ARM GAS  C:\Users\tpbw4321\AppData\Local\Temp\cccPCp6g.s 			page 1


   1              		.syntax unified
   2              		.cpu cortex-m3
   3              		.fpu softvfp
   4              		.eabi_attribute 20, 1
   5              		.eabi_attribute 21, 1
   6              		.eabi_attribute 23, 3
   7              		.eabi_attribute 24, 1
   8              		.eabi_attribute 25, 1
   9              		.eabi_attribute 26, 1
  10              		.eabi_attribute 30, 6
  11              		.eabi_attribute 34, 1
  12              		.eabi_attribute 18, 4
  13              		.thumb
  14              		.syntax unified
  15              		.file	"ECSense.c"
  16              		.text
  17              	.Ltext0:
  18              		.cfi_sections	.debug_frame
  19              		.section	.rodata
  20              		.align	2
  21              	.LC0:
  22 0000 696E7661 		.ascii	"invalid_key\000"
  22      6C69645F 
  22      6B657900 
  23              		.align	2
  24              	.LC1:
  25 000c 666C6F77 		.ascii	"flow_target\000"
  25      5F746172 
  25      67657400 
  26              		.align	2
  27              	.LC2:
  28 0018 70685F74 		.ascii	"ph_target\000"
  28      61726765 
  28      7400
  29 0022 0000     		.align	2
  30              	.LC3:
  31 0024 65635F74 		.ascii	"ec_target\000"
  31      61726765 
  31      7400
  32 002e 0000     		.align	2
  33              	.LC4:
  34 0030 6832305F 		.ascii	"h20_level_target\000"
  34      6C657665 
  34      6C5F7461 
  34      72676574 
  34      00
  35 0041 000000   		.align	2
  36              	.LC5:
  37 0044 6832305F 		.ascii	"h20_level\000"
  37      6C657665 
  37      6C00
  38 004e 0000     		.align	2
  39              	.LC6:
  40 0050 6832305F 		.ascii	"h20_stored\000"
  40      73746F72 
  40      656400
  41 005b 00       		.align	2
ARM GAS  C:\Users\tpbw4321\AppData\Local\Temp\cccPCp6g.s 			page 2


  42              	.LC7:
  43 005c 70685F6D 		.ascii	"ph_measured\000"
  43      65617375 
  43      72656400 
  44              		.align	2
  45              	.LC8:
  46 0068 70685F75 		.ascii	"ph_up_stored\000"
  46      705F7374 
  46      6F726564 
  46      00
  47 0075 000000   		.align	2
  48              	.LC9:
  49 0078 70685F64 		.ascii	"ph_down_stored\000"
  49      6F776E5F 
  49      73746F72 
  49      656400
  50 0087 00       		.align	2
  51              	.LC10:
  52 0088 65635F6D 		.ascii	"ec_measured\000"
  52      65617375 
  52      72656400 
  53              		.align	2
  54              	.LC11:
  55 0094 65635F73 		.ascii	"ec_stored\000"
  55      746F7265 
  55      6400
  56 009e 0000     		.align	2
  57              	.LC12:
  58 00a0 74656D70 		.ascii	"temp_measured\000"
  58      5F6D6561 
  58      73757265 
  58      6400
  59 00ae 0000     		.align	2
  60              	.LC13:
  61 00b0 666C6F77 		.ascii	"flow_measured\000"
  61      5F6D6561 
  61      73757265 
  61      6400
  62              		.data
  63              		.align	2
  64              		.type	pkey_const, %object
  65              		.size	pkey_const, 56
  66              	pkey_const:
  67 0000 00000000 		.word	.LC0
  68 0004 0C000000 		.word	.LC1
  69 0008 18000000 		.word	.LC2
  70 000c 24000000 		.word	.LC3
  71 0010 30000000 		.word	.LC4
  72 0014 44000000 		.word	.LC5
  73 0018 50000000 		.word	.LC6
  74 001c 5C000000 		.word	.LC7
  75 0020 68000000 		.word	.LC8
  76 0024 78000000 		.word	.LC9
  77 0028 88000000 		.word	.LC10
  78 002c 94000000 		.word	.LC11
  79 0030 A0000000 		.word	.LC12
  80 0034 B0000000 		.word	.LC13
ARM GAS  C:\Users\tpbw4321\AppData\Local\Temp\cccPCp6g.s 			page 3


  81              		.bss
  82              		.align	1
  83              	ec:
  84 0000 0000     		.space	2
  85              	ready:
  86 0002 00       		.space	1
  87 0003 00       		.align	2
  88              	RxBuffer:
  89 0004 00000000 		.space	255
  89      00000000 
  89      00000000 
  89      00000000 
  89      00000000 
  90              		.section	.text.ECSenseDataRxISRHandler,"ax",%progbits
  91              		.align	2
  92              		.global	ECSenseDataRxISRHandler
  93              		.thumb
  94              		.thumb_func
  95              		.type	ECSenseDataRxISRHandler, %function
  96              	ECSenseDataRxISRHandler:
  97              	.LFB64:
  98              		.file 1 "src\\ECSense.c"
   1:src/ECSense.c **** /*
   2:src/ECSense.c ****  * File:   ECSense.h
   3:src/ECSense.c ****  * Author: bwong20
   4:src/ECSense.c ****  *
   5:src/ECSense.c ****  * Software to control the flow 
   6:src/ECSense.c ****  *
   7:src/ECSense.c ****  *
   8:src/ECSense.c ****  *
   9:src/ECSense.c ****  * PWM_TEST (in the .c file) conditionally compiles the test harness for the code. 
  10:src/ECSense.c ****  * 
  11:src/ECSense.c ****  *
  12:src/ECSense.c ****  * Created on Janruary 25, 2019
  13:src/ECSense.c ****  */
  14:src/ECSense.c **** 
  15:src/ECSense.c **** 
  16:src/ECSense.c **** #include "project.h"
  17:src/ECSense.c **** #include "ECSense.h"
  18:src/ECSense.c **** #include "sensor_data.h"
  19:src/ECSense.c **** #include <stdio.h>
  20:src/ECSense.c **** #include <stdlib.h>
  21:src/ECSense.c **** 
  22:src/ECSense.c **** #define SUCCESS 1
  23:src/ECSense.c **** #define ERROR -1
  24:src/ECSense.c **** #define FALSE 0
  25:src/ECSense.c **** #define TRUE 1
  26:src/ECSense.c **** #define BUFF_SIZE 255
  27:src/ECSense.c **** 
  28:src/ECSense.c **** static uint16_t ec = 0;
  29:src/ECSense.c **** static uint8_t ready = 0;
  30:src/ECSense.c **** static char RxBuffer[BUFF_SIZE];
  31:src/ECSense.c **** 
  32:src/ECSense.c **** uint16_t CalcCheckSum(const char *s);
  33:src/ECSense.c **** 
  34:src/ECSense.c **** /**
  35:src/ECSense.c ****  * @function ECSenseDataRxISRHandler(void)
ARM GAS  C:\Users\tpbw4321\AppData\Local\Temp\cccPCp6g.s 			page 4


  36:src/ECSense.c ****  * @param None
  37:src/ECSense.c ****  * @return None
  38:src/ECSense.c ****  * @brief Handler for when a byte is recieved
  39:src/ECSense.c ****  * @author Barron Wong 05/15/19
  40:src/ECSense.c ****  */
  41:src/ECSense.c **** CY_ISR(ECSenseDataRxISRHandler){
  99              		.loc 1 41 0
 100              		.cfi_startproc
 101              		@ args = 0, pretend = 0, frame = 0
 102              		@ frame_needed = 1, uses_anonymous_args = 0
 103 0000 98B5     		push	{r3, r4, r7, lr}
 104              		.cfi_def_cfa_offset 16
 105              		.cfi_offset 3, -16
 106              		.cfi_offset 4, -12
 107              		.cfi_offset 7, -8
 108              		.cfi_offset 14, -4
 109 0002 00AF     		add	r7, sp, #0
 110              		.cfi_def_cfa_register 7
  42:src/ECSense.c ****     static uint8_t count = 0;
  43:src/ECSense.c ****     static uint8_t remainder = 0; 
  44:src/ECSense.c ****     
  45:src/ECSense.c ****     ECSenseDataRxISR_ClearPending();
 111              		.loc 1 45 0
 112 0004 FFF7FEFF 		bl	ECSenseDataRxISR_ClearPending
  46:src/ECSense.c ****     //Set ready to false 
  47:src/ECSense.c ****     //If ready is TRUE and we are in this ISR, 
  48:src/ECSense.c ****     //then a new transmission is incoming
  49:src/ECSense.c ****     if(ready == TRUE)
 113              		.loc 1 49 0
 114 0008 224B     		ldr	r3, .L9
 115 000a 1B78     		ldrb	r3, [r3]	@ zero_extendqisi2
 116 000c 012B     		cmp	r3, #1
 117 000e 10D1     		bne	.L3
  50:src/ECSense.c ****         ready = FALSE;
 118              		.loc 1 50 0
 119 0010 204B     		ldr	r3, .L9
 120 0012 0022     		movs	r2, #0
 121 0014 1A70     		strb	r2, [r3]
  51:src/ECSense.c ****     
  52:src/ECSense.c ****     while(ECSenseUART_ReadRxStatus() == ECSenseUART_RX_STS_FIFO_NOTEMPTY){
 122              		.loc 1 52 0
 123 0016 0CE0     		b	.L3
 124              	.L4:
  53:src/ECSense.c ****         RxBuffer[count++] = ECSenseUART_GetChar();
 125              		.loc 1 53 0
 126 0018 1F4B     		ldr	r3, .L9+4
 127 001a 1B78     		ldrb	r3, [r3]	@ zero_extendqisi2
 128 001c 5A1C     		adds	r2, r3, #1
 129 001e D1B2     		uxtb	r1, r2
 130 0020 1D4A     		ldr	r2, .L9+4
 131 0022 1170     		strb	r1, [r2]
 132 0024 1C46     		mov	r4, r3
 133 0026 FFF7FEFF 		bl	ECSenseUART_GetChar
 134 002a 0346     		mov	r3, r0
 135 002c 1A46     		mov	r2, r3
 136 002e 1B4B     		ldr	r3, .L9+8
 137 0030 1A55     		strb	r2, [r3, r4]
ARM GAS  C:\Users\tpbw4321\AppData\Local\Temp\cccPCp6g.s 			page 5


 138              	.L3:
  52:src/ECSense.c ****         RxBuffer[count++] = ECSenseUART_GetChar();
 139              		.loc 1 52 0
 140 0032 FFF7FEFF 		bl	ECSenseUART_ReadRxStatus
 141 0036 0346     		mov	r3, r0
 142 0038 202B     		cmp	r3, #32
 143 003a EDD0     		beq	.L4
  54:src/ECSense.c ****     }
  55:src/ECSense.c ****     RxBuffer[count] = '\0';
 144              		.loc 1 55 0
 145 003c 164B     		ldr	r3, .L9+4
 146 003e 1B78     		ldrb	r3, [r3]	@ zero_extendqisi2
 147 0040 1A46     		mov	r2, r3
 148 0042 164B     		ldr	r3, .L9+8
 149 0044 0021     		movs	r1, #0
 150 0046 9954     		strb	r1, [r3, r2]
  56:src/ECSense.c ****     
  57:src/ECSense.c ****     
  58:src/ECSense.c ****     if(remainder){
 151              		.loc 1 58 0
 152 0048 154B     		ldr	r3, .L9+12
 153 004a 1B78     		ldrb	r3, [r3]	@ zero_extendqisi2
 154 004c 002B     		cmp	r3, #0
 155 004e 15D0     		beq	.L5
  59:src/ECSense.c ****         if(remainder == 1){
 156              		.loc 1 59 0
 157 0050 134B     		ldr	r3, .L9+12
 158 0052 1B78     		ldrb	r3, [r3]	@ zero_extendqisi2
 159 0054 012B     		cmp	r3, #1
 160 0056 0BD1     		bne	.L6
  60:src/ECSense.c ****             count = 0;
 161              		.loc 1 60 0
 162 0058 0F4B     		ldr	r3, .L9+4
 163 005a 0022     		movs	r2, #0
 164 005c 1A70     		strb	r2, [r3]
  61:src/ECSense.c ****             //printf("%s\r\n",RxBuffer);
  62:src/ECSense.c ****             if(ECSense_DecodeMessage(RxBuffer)){
 165              		.loc 1 62 0
 166 005e 0F48     		ldr	r0, .L9+8
 167 0060 FFF7FEFF 		bl	ECSense_DecodeMessage
 168 0064 0346     		mov	r3, r0
 169 0066 002B     		cmp	r3, #0
 170 0068 02D0     		beq	.L6
  63:src/ECSense.c ****                 ready = TRUE;
 171              		.loc 1 63 0
 172 006a 0A4B     		ldr	r3, .L9
 173 006c 0122     		movs	r2, #1
 174 006e 1A70     		strb	r2, [r3]
 175              	.L6:
  64:src/ECSense.c ****             }
  65:src/ECSense.c ****         }
  66:src/ECSense.c ****         remainder--;
 176              		.loc 1 66 0
 177 0070 0B4B     		ldr	r3, .L9+12
 178 0072 1B78     		ldrb	r3, [r3]	@ zero_extendqisi2
 179 0074 013B     		subs	r3, r3, #1
 180 0076 DAB2     		uxtb	r2, r3
ARM GAS  C:\Users\tpbw4321\AppData\Local\Temp\cccPCp6g.s 			page 6


 181 0078 094B     		ldr	r3, .L9+12
 182 007a 1A70     		strb	r2, [r3]
 183              	.L5:
  67:src/ECSense.c ****     }
  68:src/ECSense.c ****     
  69:src/ECSense.c ****         //Check for end of message
  70:src/ECSense.c ****     if(RxBuffer[count - 1] == '*'){
 184              		.loc 1 70 0
 185 007c 064B     		ldr	r3, .L9+4
 186 007e 1B78     		ldrb	r3, [r3]	@ zero_extendqisi2
 187 0080 013B     		subs	r3, r3, #1
 188 0082 064A     		ldr	r2, .L9+8
 189 0084 D35C     		ldrb	r3, [r2, r3]	@ zero_extendqisi2
 190 0086 2A2B     		cmp	r3, #42
 191 0088 02D1     		bne	.L8
  71:src/ECSense.c ****         remainder = 2;
 192              		.loc 1 71 0
 193 008a 054B     		ldr	r3, .L9+12
 194 008c 0222     		movs	r2, #2
 195 008e 1A70     		strb	r2, [r3]
 196              	.L8:
  72:src/ECSense.c ****     }
  73:src/ECSense.c **** }
 197              		.loc 1 73 0
 198 0090 00BF     		nop
 199 0092 98BD     		pop	{r3, r4, r7, pc}
 200              	.L10:
 201              		.align	2
 202              	.L9:
 203 0094 02000000 		.word	ready
 204 0098 03010000 		.word	count.8085
 205 009c 04000000 		.word	RxBuffer
 206 00a0 04010000 		.word	remainder.8086
 207              		.cfi_endproc
 208              	.LFE64:
 209              		.size	ECSenseDataRxISRHandler, .-ECSenseDataRxISRHandler
 210              		.section	.text.CalcCheckSum,"ax",%progbits
 211              		.align	2
 212              		.global	CalcCheckSum
 213              		.thumb
 214              		.thumb_func
 215              		.type	CalcCheckSum, %function
 216              	CalcCheckSum:
 217              	.LFB65:
  74:src/ECSense.c **** 
  75:src/ECSense.c **** /**
  76:src/ECSense.c ****  * @function checksum()
  77:src/ECSense.c ****  * @param pointer to string that needs checksum generated
  78:src/ECSense.c ****  * @return checksum
  79:src/ECSense.c ****  * @brief computes and returns checksum of a string
  80:src/ECSense.c ****  * @author NMEA0183 Wikipedia Page
  81:src/ECSense.c ****  */
  82:src/ECSense.c **** uint16_t CalcCheckSum(const char *s){
 218              		.loc 1 82 0
 219              		.cfi_startproc
 220              		@ args = 0, pretend = 0, frame = 16
 221              		@ frame_needed = 1, uses_anonymous_args = 0
ARM GAS  C:\Users\tpbw4321\AppData\Local\Temp\cccPCp6g.s 			page 7


 222              		@ link register save eliminated.
 223 0000 80B4     		push	{r7}
 224              		.cfi_def_cfa_offset 4
 225              		.cfi_offset 7, -4
 226 0002 85B0     		sub	sp, sp, #20
 227              		.cfi_def_cfa_offset 24
 228 0004 00AF     		add	r7, sp, #0
 229              		.cfi_def_cfa_register 7
 230 0006 7860     		str	r0, [r7, #4]
  83:src/ECSense.c ****     uint16_t c = 0;
 231              		.loc 1 83 0
 232 0008 0023     		movs	r3, #0
 233 000a FB81     		strh	r3, [r7, #14]	@ movhi
  84:src/ECSense.c **** 
  85:src/ECSense.c ****     while(*s){
 234              		.loc 1 85 0
 235 000c 07E0     		b	.L12
 236              	.L13:
  86:src/ECSense.c ****         c ^= *s++;
 237              		.loc 1 86 0
 238 000e 7B68     		ldr	r3, [r7, #4]
 239 0010 5A1C     		adds	r2, r3, #1
 240 0012 7A60     		str	r2, [r7, #4]
 241 0014 1B78     		ldrb	r3, [r3]	@ zero_extendqisi2
 242 0016 9AB2     		uxth	r2, r3
 243 0018 FB89     		ldrh	r3, [r7, #14]	@ movhi
 244 001a 5340     		eors	r3, r3, r2
 245 001c FB81     		strh	r3, [r7, #14]	@ movhi
 246              	.L12:
  85:src/ECSense.c ****         c ^= *s++;
 247              		.loc 1 85 0
 248 001e 7B68     		ldr	r3, [r7, #4]
 249 0020 1B78     		ldrb	r3, [r3]	@ zero_extendqisi2
 250 0022 002B     		cmp	r3, #0
 251 0024 F3D1     		bne	.L13
  87:src/ECSense.c ****     }
  88:src/ECSense.c ****     return c;
 252              		.loc 1 88 0
 253 0026 FB89     		ldrh	r3, [r7, #14]
  89:src/ECSense.c **** }
 254              		.loc 1 89 0
 255 0028 1846     		mov	r0, r3
 256 002a 1437     		adds	r7, r7, #20
 257              		.cfi_def_cfa_offset 4
 258 002c BD46     		mov	sp, r7
 259              		.cfi_def_cfa_register 13
 260              		@ sp needed
 261 002e 80BC     		pop	{r7}
 262              		.cfi_restore 7
 263              		.cfi_def_cfa_offset 0
 264 0030 7047     		bx	lr
 265              		.cfi_endproc
 266              	.LFE65:
 267              		.size	CalcCheckSum, .-CalcCheckSum
 268 0032 00BF     		.section	.rodata
 269 00be 0000     		.align	2
 270              	.LC14:
ARM GAS  C:\Users\tpbw4321\AppData\Local\Temp\cccPCp6g.s 			page 8


 271 00c0 2C3A00   		.ascii	",:\000"
 272 00c3 00       		.align	2
 273              	.LC15:
 274 00c4 255800   		.ascii	"%X\000"
 275 00c7 00       		.align	2
 276              	.LC16:
 277 00c8 43686563 		.ascii	"Checksum Mismatch: Recvd %2X Actual %2X\015\012\000"
 277      6B73756D 
 277      204D6973 
 277      6D617463 
 277      683A2052 
 278 00f2 0000     		.align	2
 279              	.LC17:
 280 00f4 256400   		.ascii	"%d\000"
 281 00f7 00       		.align	2
 282              	.LC18:
 283 00f8 257300   		.ascii	"%s\000"
 284              		.global	__aeabi_d2uiz
 285              		.section	.text.ECSense_DecodeMessage,"ax",%progbits
 286              		.align	2
 287              		.global	ECSense_DecodeMessage
 288              		.thumb
 289              		.thumb_func
 290              		.type	ECSense_DecodeMessage, %function
 291              	ECSense_DecodeMessage:
 292              	.LFB66:
  90:src/ECSense.c **** 
  91:src/ECSense.c ****  uint16_t ECSense_DecodeMessage(char * buffer){
 293              		.loc 1 91 0
 294              		.cfi_startproc
 295              		@ args = 0, pretend = 0, frame = 296
 296              		@ frame_needed = 1, uses_anonymous_args = 0
 297 0000 90B5     		push	{r4, r7, lr}
 298              		.cfi_def_cfa_offset 12
 299              		.cfi_offset 4, -12
 300              		.cfi_offset 7, -8
 301              		.cfi_offset 14, -4
 302 0002 CBB0     		sub	sp, sp, #300
 303              		.cfi_def_cfa_offset 312
 304 0004 00AF     		add	r7, sp, #0
 305              		.cfi_def_cfa_register 7
 306 0006 3B1D     		adds	r3, r7, #4
 307 0008 1860     		str	r0, [r3]
  92:src/ECSense.c ****     uint16_t len;
  93:src/ECSense.c ****     unsigned int checksum;
  94:src/ECSense.c ****     unsigned int rchecksum;
  95:src/ECSense.c ****     char * token;
  96:src/ECSense.c ****     const char * delim = ",:";
 308              		.loc 1 96 0
 309 000a 464B     		ldr	r3, .L22
 310 000c C7F81C31 		str	r3, [r7, #284]
  97:src/ECSense.c ****     char value_str[BUFF_SIZE];
  98:src/ECSense.c ****     uint8_t key;
  99:src/ECSense.c ****     uint16_t value;
 100:src/ECSense.c ****     uint8_t return_val = ERROR;
 311              		.loc 1 100 0
 312 0010 FF23     		movs	r3, #255
ARM GAS  C:\Users\tpbw4321\AppData\Local\Temp\cccPCp6g.s 			page 9


 313 0012 87F82331 		strb	r3, [r7, #291]
 101:src/ECSense.c ****     len = strlen(buffer);
 314              		.loc 1 101 0
 315 0016 3B1D     		adds	r3, r7, #4
 316 0018 1868     		ldr	r0, [r3]
 317 001a FFF7FEFF 		bl	strlen
 318 001e 0346     		mov	r3, r0
 319 0020 A7F81A31 		strh	r3, [r7, #282]	@ movhi
 102:src/ECSense.c ****     
 103:src/ECSense.c ****     sscanf(buffer+len-2,"%X",&rchecksum);
 320              		.loc 1 103 0
 321 0024 B7F81A31 		ldrh	r3, [r7, #282]
 322 0028 023B     		subs	r3, r3, #2
 323 002a 3A1D     		adds	r2, r7, #4
 324 002c 1268     		ldr	r2, [r2]
 325 002e 1344     		add	r3, r3, r2
 326 0030 07F58672 		add	r2, r7, #268
 327 0034 3C49     		ldr	r1, .L22+4
 328 0036 1846     		mov	r0, r3
 329 0038 FFF7FEFF 		bl	sscanf
 104:src/ECSense.c ****     
 105:src/ECSense.c ****     buffer[len - 3] = 0;
 330              		.loc 1 105 0
 331 003c B7F81A31 		ldrh	r3, [r7, #282]
 332 0040 033B     		subs	r3, r3, #3
 333 0042 3A1D     		adds	r2, r7, #4
 334 0044 1268     		ldr	r2, [r2]
 335 0046 1344     		add	r3, r3, r2
 336 0048 0022     		movs	r2, #0
 337 004a 1A70     		strb	r2, [r3]
 106:src/ECSense.c ****     buffer = buffer + 1;
 338              		.loc 1 106 0
 339 004c 3B1D     		adds	r3, r7, #4
 340 004e 3A1D     		adds	r2, r7, #4
 341 0050 1268     		ldr	r2, [r2]
 342 0052 0132     		adds	r2, r2, #1
 343 0054 1A60     		str	r2, [r3]
 107:src/ECSense.c ****     checksum = CalcCheckSum(buffer);
 344              		.loc 1 107 0
 345 0056 3B1D     		adds	r3, r7, #4
 346 0058 1868     		ldr	r0, [r3]
 347 005a FFF7FEFF 		bl	CalcCheckSum
 348 005e 0346     		mov	r3, r0
 349 0060 C7F81431 		str	r3, [r7, #276]
 108:src/ECSense.c ****     if(rchecksum != checksum){
 350              		.loc 1 108 0
 351 0064 D7F80C21 		ldr	r2, [r7, #268]
 352 0068 D7F81431 		ldr	r3, [r7, #276]
 353 006c 9A42     		cmp	r2, r3
 354 006e 0BD0     		beq	.L16
 109:src/ECSense.c ****         printf("Checksum Mismatch: Recvd %2X Actual %2X\r\n",rchecksum, checksum);
 355              		.loc 1 109 0
 356 0070 D7F80C31 		ldr	r3, [r7, #268]
 357 0074 D7F81421 		ldr	r2, [r7, #276]
 358 0078 1946     		mov	r1, r3
 359 007a 2C48     		ldr	r0, .L22+8
 360 007c FFF7FEFF 		bl	printf
ARM GAS  C:\Users\tpbw4321\AppData\Local\Temp\cccPCp6g.s 			page 10


 110:src/ECSense.c ****         return_val = ERROR;
 361              		.loc 1 110 0
 362 0080 FF23     		movs	r3, #255
 363 0082 87F82331 		strb	r3, [r7, #291]
 364 0086 44E0     		b	.L17
 365              	.L16:
 111:src/ECSense.c ****     }
 112:src/ECSense.c ****     else{
 113:src/ECSense.c ****         //Update sd
 114:src/ECSense.c ****         //printf("%s\r\n", buffer);
 115:src/ECSense.c ****         token = strtok(buffer,delim);
 366              		.loc 1 115 0
 367 0088 3B1D     		adds	r3, r7, #4
 368 008a D7F81C11 		ldr	r1, [r7, #284]
 369 008e 1868     		ldr	r0, [r3]
 370 0090 FFF7FEFF 		bl	strtok
 371 0094 C7F82401 		str	r0, [r7, #292]
 116:src/ECSense.c ****         while(token != NULL){;
 372              		.loc 1 116 0
 373 0098 37E0     		b	.L18
 374              	.L20:
 117:src/ECSense.c ****             sscanf(token,"%d", &key);
 375              		.loc 1 117 0
 376 009a 07F10B03 		add	r3, r7, #11
 377 009e 1A46     		mov	r2, r3
 378 00a0 2349     		ldr	r1, .L22+12
 379 00a2 D7F82401 		ldr	r0, [r7, #292]
 380 00a6 FFF7FEFF 		bl	sscanf
 118:src/ECSense.c ****             token = strtok(NULL,delim);
 381              		.loc 1 118 0
 382 00aa D7F81C11 		ldr	r1, [r7, #284]
 383 00ae 0020     		movs	r0, #0
 384 00b0 FFF7FEFF 		bl	strtok
 385 00b4 C7F82401 		str	r0, [r7, #292]
 119:src/ECSense.c ****             sscanf(token,"%s", value_str);
 386              		.loc 1 119 0
 387 00b8 07F10C03 		add	r3, r7, #12
 388 00bc 1A46     		mov	r2, r3
 389 00be 1D49     		ldr	r1, .L22+16
 390 00c0 D7F82401 		ldr	r0, [r7, #292]
 391 00c4 FFF7FEFF 		bl	sscanf
 120:src/ECSense.c ****             value = atof(value_str);
 392              		.loc 1 120 0
 393 00c8 07F10C03 		add	r3, r7, #12
 394 00cc 1846     		mov	r0, r3
 395 00ce FFF7FEFF 		bl	atof
 396 00d2 0346     		mov	r3, r0
 397 00d4 0C46     		mov	r4, r1
 398 00d6 1846     		mov	r0, r3
 399 00d8 2146     		mov	r1, r4
 400 00da FFF7FEFF 		bl	__aeabi_d2uiz
 401 00de 0346     		mov	r3, r0
 402 00e0 A7F81231 		strh	r3, [r7, #274]	@ movhi
 121:src/ECSense.c ****             if(key == ec_measured){
 403              		.loc 1 121 0
 404 00e4 07F10B03 		add	r3, r7, #11
 405 00e8 1B78     		ldrb	r3, [r3]	@ zero_extendqisi2
ARM GAS  C:\Users\tpbw4321\AppData\Local\Temp\cccPCp6g.s 			page 11


 406 00ea 0A2B     		cmp	r3, #10
 407 00ec 06D1     		bne	.L19
 122:src/ECSense.c ****                 ec = value;
 408              		.loc 1 122 0
 409 00ee 124A     		ldr	r2, .L22+20
 410 00f0 B7F81231 		ldrh	r3, [r7, #274]	@ movhi
 411 00f4 1380     		strh	r3, [r2]	@ movhi
 123:src/ECSense.c ****                 return_val = SUCCESS;
 412              		.loc 1 123 0
 413 00f6 0123     		movs	r3, #1
 414 00f8 87F82331 		strb	r3, [r7, #291]
 415              	.L19:
 124:src/ECSense.c ****             }
 125:src/ECSense.c ****             token = strtok(NULL,delim);
 416              		.loc 1 125 0
 417 00fc D7F81C11 		ldr	r1, [r7, #284]
 418 0100 0020     		movs	r0, #0
 419 0102 FFF7FEFF 		bl	strtok
 420 0106 C7F82401 		str	r0, [r7, #292]
 421              	.L18:
 116:src/ECSense.c ****             sscanf(token,"%d", &key);
 422              		.loc 1 116 0
 423 010a D7F82431 		ldr	r3, [r7, #292]
 424 010e 002B     		cmp	r3, #0
 425 0110 C3D1     		bne	.L20
 426              	.L17:
 126:src/ECSense.c ****         }
 127:src/ECSense.c ****     }
 128:src/ECSense.c ****     return return_val;
 427              		.loc 1 128 0
 428 0112 97F82331 		ldrb	r3, [r7, #291]	@ zero_extendqisi2
 429 0116 9BB2     		uxth	r3, r3
 129:src/ECSense.c **** }
 430              		.loc 1 129 0
 431 0118 1846     		mov	r0, r3
 432 011a 07F59677 		add	r7, r7, #300
 433              		.cfi_def_cfa_offset 12
 434 011e BD46     		mov	sp, r7
 435              		.cfi_def_cfa_register 13
 436              		@ sp needed
 437 0120 90BD     		pop	{r4, r7, pc}
 438              	.L23:
 439 0122 00BF     		.align	2
 440              	.L22:
 441 0124 C0000000 		.word	.LC14
 442 0128 C4000000 		.word	.LC15
 443 012c C8000000 		.word	.LC16
 444 0130 F4000000 		.word	.LC17
 445 0134 F8000000 		.word	.LC18
 446 0138 00000000 		.word	ec
 447              		.cfi_endproc
 448              	.LFE66:
 449              		.size	ECSense_DecodeMessage, .-ECSense_DecodeMessage
 450              		.section	.text.ECSense_Init,"ax",%progbits
 451              		.align	2
 452              		.global	ECSense_Init
 453              		.thumb
ARM GAS  C:\Users\tpbw4321\AppData\Local\Temp\cccPCp6g.s 			page 12


 454              		.thumb_func
 455              		.type	ECSense_Init, %function
 456              	ECSense_Init:
 457              	.LFB67:
 130:src/ECSense.c **** 
 131:src/ECSense.c **** /**
 132:src/ECSense.c ****  * @function ECSense_Init(void)
 133:src/ECSense.c ****  * @param None
 134:src/ECSense.c ****  * @return None
 135:src/ECSense.c ****  * @brief Initializes hardware components necessary for flow control and monitoring
 136:src/ECSense.c ****  * @author Barron Wong 05/15/19
 137:src/ECSense.c **** */
 138:src/ECSense.c **** void ECSense_Init(){
 458              		.loc 1 138 0
 459              		.cfi_startproc
 460              		@ args = 0, pretend = 0, frame = 0
 461              		@ frame_needed = 1, uses_anonymous_args = 0
 462 0000 80B5     		push	{r7, lr}
 463              		.cfi_def_cfa_offset 8
 464              		.cfi_offset 7, -8
 465              		.cfi_offset 14, -4
 466 0002 00AF     		add	r7, sp, #0
 467              		.cfi_def_cfa_register 7
 139:src/ECSense.c ****     ECSenseUART_Start();
 468              		.loc 1 139 0
 469 0004 FFF7FEFF 		bl	ECSenseUART_Start
 140:src/ECSense.c ****     ECSenseDataRxISR_StartEx(ECSenseDataRxISRHandler);
 470              		.loc 1 140 0
 471 0008 0348     		ldr	r0, .L25
 472 000a FFF7FEFF 		bl	ECSenseDataRxISR_StartEx
 141:src/ECSense.c ****     ECSense_TurnOff();
 473              		.loc 1 141 0
 474 000e FFF7FEFF 		bl	ECSense_TurnOff
 142:src/ECSense.c **** }
 475              		.loc 1 142 0
 476 0012 00BF     		nop
 477 0014 80BD     		pop	{r7, pc}
 478              	.L26:
 479 0016 00BF     		.align	2
 480              	.L25:
 481 0018 00000000 		.word	ECSenseDataRxISRHandler
 482              		.cfi_endproc
 483              	.LFE67:
 484              		.size	ECSense_Init, .-ECSense_Init
 485              		.section	.text.ECSense_GetEC,"ax",%progbits
 486              		.align	2
 487              		.global	ECSense_GetEC
 488              		.thumb
 489              		.thumb_func
 490              		.type	ECSense_GetEC, %function
 491              	ECSense_GetEC:
 492              	.LFB68:
 143:src/ECSense.c **** 
 144:src/ECSense.c **** /**
 145:src/ECSense.c ****  * @function ECSense_GetEC(void)
 146:src/ECSense.c ****  * @param None
 147:src/ECSense.c ****  * @return EC value
ARM GAS  C:\Users\tpbw4321\AppData\Local\Temp\cccPCp6g.s 			page 13


 148:src/ECSense.c ****  * @brief Returns current EC value
 149:src/ECSense.c ****  * @author Barron Wong 05/15/19
 150:src/ECSense.c **** */
 151:src/ECSense.c **** uint16_t ECSense_GetEC(){
 493              		.loc 1 151 0
 494              		.cfi_startproc
 495              		@ args = 0, pretend = 0, frame = 0
 496              		@ frame_needed = 1, uses_anonymous_args = 0
 497              		@ link register save eliminated.
 498 0000 80B4     		push	{r7}
 499              		.cfi_def_cfa_offset 4
 500              		.cfi_offset 7, -4
 501 0002 00AF     		add	r7, sp, #0
 502              		.cfi_def_cfa_register 7
 152:src/ECSense.c ****     return ec;
 503              		.loc 1 152 0
 504 0004 024B     		ldr	r3, .L29
 505 0006 1B88     		ldrh	r3, [r3]
 153:src/ECSense.c **** }
 506              		.loc 1 153 0
 507 0008 1846     		mov	r0, r3
 508 000a BD46     		mov	sp, r7
 509              		.cfi_def_cfa_register 13
 510              		@ sp needed
 511 000c 80BC     		pop	{r7}
 512              		.cfi_restore 7
 513              		.cfi_def_cfa_offset 0
 514 000e 7047     		bx	lr
 515              	.L30:
 516              		.align	2
 517              	.L29:
 518 0010 00000000 		.word	ec
 519              		.cfi_endproc
 520              	.LFE68:
 521              		.size	ECSense_GetEC, .-ECSense_GetEC
 522              		.section	.text.ECSense_TurnOff,"ax",%progbits
 523              		.align	2
 524              		.global	ECSense_TurnOff
 525              		.thumb
 526              		.thumb_func
 527              		.type	ECSense_TurnOff, %function
 528              	ECSense_TurnOff:
 529              	.LFB69:
 154:src/ECSense.c **** 
 155:src/ECSense.c **** /**
 156:src/ECSense.c ****  * @function ECSense_TurnOff(void)
 157:src/ECSense.c ****  * @param None
 158:src/ECSense.c ****  * @return EC value
 159:src/ECSense.c ****  * @brief Turns off the ECSenses
 160:src/ECSense.c ****  * @author Barron Wong 05/21/19
 161:src/ECSense.c **** */
 162:src/ECSense.c **** void ECSense_TurnOff(){
 530              		.loc 1 162 0
 531              		.cfi_startproc
 532              		@ args = 0, pretend = 0, frame = 0
 533              		@ frame_needed = 1, uses_anonymous_args = 0
 534 0000 80B5     		push	{r7, lr}
ARM GAS  C:\Users\tpbw4321\AppData\Local\Temp\cccPCp6g.s 			page 14


 535              		.cfi_def_cfa_offset 8
 536              		.cfi_offset 7, -8
 537              		.cfi_offset 14, -4
 538 0002 00AF     		add	r7, sp, #0
 539              		.cfi_def_cfa_register 7
 163:src/ECSense.c ****     ECSenseControlReg_Write(0);
 540              		.loc 1 163 0
 541 0004 0020     		movs	r0, #0
 542 0006 FFF7FEFF 		bl	ECSenseControlReg_Write
 164:src/ECSense.c **** }
 543              		.loc 1 164 0
 544 000a 00BF     		nop
 545 000c 80BD     		pop	{r7, pc}
 546              		.cfi_endproc
 547              	.LFE69:
 548              		.size	ECSense_TurnOff, .-ECSense_TurnOff
 549 000e 00BF     		.section	.text.ECSense_TurnOn,"ax",%progbits
 550              		.align	2
 551              		.global	ECSense_TurnOn
 552              		.thumb
 553              		.thumb_func
 554              		.type	ECSense_TurnOn, %function
 555              	ECSense_TurnOn:
 556              	.LFB70:
 165:src/ECSense.c **** 
 166:src/ECSense.c **** /**
 167:src/ECSense.c ****  * @function ECSense_TurnOn(void)
 168:src/ECSense.c ****  * @param None
 169:src/ECSense.c ****  * @return EC value
 170:src/ECSense.c ****  * @brief Turns on ECSense and enables updates
 171:src/ECSense.c ****  * @author Barron Wong 05/21/19
 172:src/ECSense.c **** */
 173:src/ECSense.c **** void ECSense_TurnOn(){
 557              		.loc 1 173 0
 558              		.cfi_startproc
 559              		@ args = 0, pretend = 0, frame = 0
 560              		@ frame_needed = 1, uses_anonymous_args = 0
 561 0000 80B5     		push	{r7, lr}
 562              		.cfi_def_cfa_offset 8
 563              		.cfi_offset 7, -8
 564              		.cfi_offset 14, -4
 565 0002 00AF     		add	r7, sp, #0
 566              		.cfi_def_cfa_register 7
 174:src/ECSense.c ****     ECSenseControlReg_Write(1);
 567              		.loc 1 174 0
 568 0004 0120     		movs	r0, #1
 569 0006 FFF7FEFF 		bl	ECSenseControlReg_Write
 175:src/ECSense.c **** }
 570              		.loc 1 175 0
 571 000a 00BF     		nop
 572 000c 80BD     		pop	{r7, pc}
 573              		.cfi_endproc
 574              	.LFE70:
 575              		.size	ECSense_TurnOn, .-ECSense_TurnOn
 576 000e 00BF     		.section	.text.ECSense_StartSampling,"ax",%progbits
 577              		.align	2
 578              		.global	ECSense_StartSampling
ARM GAS  C:\Users\tpbw4321\AppData\Local\Temp\cccPCp6g.s 			page 15


 579              		.thumb
 580              		.thumb_func
 581              		.type	ECSense_StartSampling, %function
 582              	ECSense_StartSampling:
 583              	.LFB71:
 176:src/ECSense.c **** /**
 177:src/ECSense.c ****  * @function ECSense_StartSampling(void)
 178:src/ECSense.c ****  * @param None
 179:src/ECSense.c ****  * @return None
 180:src/ECSense.c ****  * @brief Enables EC Sampling
 181:src/ECSense.c ****  * @author Barron Wong 05/21/19
 182:src/ECSense.c **** */
 183:src/ECSense.c **** void ECSense_StartSampling(){
 584              		.loc 1 183 0
 585              		.cfi_startproc
 586              		@ args = 0, pretend = 0, frame = 0
 587              		@ frame_needed = 1, uses_anonymous_args = 0
 588 0000 80B5     		push	{r7, lr}
 589              		.cfi_def_cfa_offset 8
 590              		.cfi_offset 7, -8
 591              		.cfi_offset 14, -4
 592 0002 00AF     		add	r7, sp, #0
 593              		.cfi_def_cfa_register 7
 184:src/ECSense.c ****     ECSenseUART_Start();
 594              		.loc 1 184 0
 595 0004 FFF7FEFF 		bl	ECSenseUART_Start
 185:src/ECSense.c ****     ECSenseDataRxISR_StartEx(ECSenseDataRxISRHandler);
 596              		.loc 1 185 0
 597 0008 0248     		ldr	r0, .L34
 598 000a FFF7FEFF 		bl	ECSenseDataRxISR_StartEx
 186:src/ECSense.c **** }
 599              		.loc 1 186 0
 600 000e 00BF     		nop
 601 0010 80BD     		pop	{r7, pc}
 602              	.L35:
 603 0012 00BF     		.align	2
 604              	.L34:
 605 0014 00000000 		.word	ECSenseDataRxISRHandler
 606              		.cfi_endproc
 607              	.LFE71:
 608              		.size	ECSense_StartSampling, .-ECSense_StartSampling
 609              		.section	.text.ECSense_StopSampling,"ax",%progbits
 610              		.align	2
 611              		.global	ECSense_StopSampling
 612              		.thumb
 613              		.thumb_func
 614              		.type	ECSense_StopSampling, %function
 615              	ECSense_StopSampling:
 616              	.LFB72:
 187:src/ECSense.c **** /**
 188:src/ECSense.c ****  * @function ECSense_StartSampling(void)
 189:src/ECSense.c ****  * @param None
 190:src/ECSense.c ****  * @return None
 191:src/ECSense.c ****  * @brief Disables EC Sampling
 192:src/ECSense.c ****  * @author Barron Wong 05/21/19
 193:src/ECSense.c **** */
 194:src/ECSense.c **** void ECSense_StopSampling(){
ARM GAS  C:\Users\tpbw4321\AppData\Local\Temp\cccPCp6g.s 			page 16


 617              		.loc 1 194 0
 618              		.cfi_startproc
 619              		@ args = 0, pretend = 0, frame = 0
 620              		@ frame_needed = 1, uses_anonymous_args = 0
 621 0000 80B5     		push	{r7, lr}
 622              		.cfi_def_cfa_offset 8
 623              		.cfi_offset 7, -8
 624              		.cfi_offset 14, -4
 625 0002 00AF     		add	r7, sp, #0
 626              		.cfi_def_cfa_register 7
 195:src/ECSense.c ****     ECSenseDataRxISR_Disable();
 627              		.loc 1 195 0
 628 0004 FFF7FEFF 		bl	ECSenseDataRxISR_Disable
 196:src/ECSense.c ****     ECSenseUART_ClearRxBuffer();
 629              		.loc 1 196 0
 630 0008 FFF7FEFF 		bl	ECSenseUART_ClearRxBuffer
 197:src/ECSense.c ****     ECSenseDataRxISR_ClearPending();
 631              		.loc 1 197 0
 632 000c FFF7FEFF 		bl	ECSenseDataRxISR_ClearPending
 198:src/ECSense.c ****     ECSenseUART_Stop();
 633              		.loc 1 198 0
 634 0010 FFF7FEFF 		bl	ECSenseUART_Stop
 199:src/ECSense.c **** }
 635              		.loc 1 199 0
 636 0014 00BF     		nop
 637 0016 80BD     		pop	{r7, pc}
 638              		.cfi_endproc
 639              	.LFE72:
 640              		.size	ECSense_StopSampling, .-ECSense_StopSampling
 641              		.bss
 642              	count.8085:
 643 0103 00       		.space	1
 644              	remainder.8086:
 645 0104 00       		.space	1
 646              		.text
 647              	.Letext0:
 648              		.file 2 "c:\\program files (x86)\\cypress\\psoc creator\\4.2\\psoc creator\\import\\gnu\\arm\\5.4.
 649              		.file 3 "c:\\program files (x86)\\cypress\\psoc creator\\4.2\\psoc creator\\import\\gnu\\arm\\5.4.
 650              		.file 4 "Generated_Source\\PSoC5/cytypes.h"
 651              		.file 5 ".\\include/Protocol.h"
 652              		.file 6 "Generated_Source\\PSoC5/core_cm3.h"