ARM GAS  C:\Users\tpbw4321\AppData\Local\Temp\cc5OW4A8.s 			page 1


   1              		.syntax unified
   2              		.cpu cortex-m3
   3              		.fpu softvfp
   4              		.eabi_attribute 20, 1
   5              		.eabi_attribute 21, 1
   6              		.eabi_attribute 23, 3
   7              		.eabi_attribute 24, 1
   8              		.eabi_attribute 25, 1
   9              		.eabi_attribute 26, 1
  10              		.eabi_attribute 30, 6
  11              		.eabi_attribute 34, 1
  12              		.eabi_attribute 18, 4
  13              		.thumb
  14              		.syntax unified
  15              		.file	"FlowSenseTimeOutTimer_PM.c"
  16              		.text
  17              	.Ltext0:
  18              		.cfi_sections	.debug_frame
  19              		.bss
  20              		.align	2
  21              	FlowSenseTimeOutTimer_backup:
  22 0000 00000000 		.space	12
  22      00000000 
  22      00000000 
  23              		.section	.text.FlowSenseTimeOutTimer_SaveConfig,"ax",%progbits
  24              		.align	2
  25              		.global	FlowSenseTimeOutTimer_SaveConfig
  26              		.thumb
  27              		.thumb_func
  28              		.type	FlowSenseTimeOutTimer_SaveConfig, %function
  29              	FlowSenseTimeOutTimer_SaveConfig:
  30              	.LFB0:
  31              		.file 1 "Generated_Source\\PSoC5\\FlowSenseTimeOutTimer_PM.c"
   1:Generated_Source\PSoC5/FlowSenseTimeOutTimer_PM.c **** /*******************************************************************************
   2:Generated_Source\PSoC5/FlowSenseTimeOutTimer_PM.c **** * File Name: FlowSenseTimeOutTimer_PM.c
   3:Generated_Source\PSoC5/FlowSenseTimeOutTimer_PM.c **** * Version 2.80
   4:Generated_Source\PSoC5/FlowSenseTimeOutTimer_PM.c **** *
   5:Generated_Source\PSoC5/FlowSenseTimeOutTimer_PM.c **** *  Description:
   6:Generated_Source\PSoC5/FlowSenseTimeOutTimer_PM.c **** *     This file provides the power management source code to API for the
   7:Generated_Source\PSoC5/FlowSenseTimeOutTimer_PM.c **** *     Timer.
   8:Generated_Source\PSoC5/FlowSenseTimeOutTimer_PM.c **** *
   9:Generated_Source\PSoC5/FlowSenseTimeOutTimer_PM.c **** *   Note:
  10:Generated_Source\PSoC5/FlowSenseTimeOutTimer_PM.c **** *     None
  11:Generated_Source\PSoC5/FlowSenseTimeOutTimer_PM.c **** *
  12:Generated_Source\PSoC5/FlowSenseTimeOutTimer_PM.c **** *******************************************************************************
  13:Generated_Source\PSoC5/FlowSenseTimeOutTimer_PM.c **** * Copyright 2008-2017, Cypress Semiconductor Corporation.  All rights reserved.
  14:Generated_Source\PSoC5/FlowSenseTimeOutTimer_PM.c **** * You may use this file only in accordance with the license, terms, conditions,
  15:Generated_Source\PSoC5/FlowSenseTimeOutTimer_PM.c **** * disclaimers, and limitations in the end user license agreement accompanying
  16:Generated_Source\PSoC5/FlowSenseTimeOutTimer_PM.c **** * the software package with which this file was provided.
  17:Generated_Source\PSoC5/FlowSenseTimeOutTimer_PM.c **** ********************************************************************************/
  18:Generated_Source\PSoC5/FlowSenseTimeOutTimer_PM.c **** 
  19:Generated_Source\PSoC5/FlowSenseTimeOutTimer_PM.c **** #include "FlowSenseTimeOutTimer.h"
  20:Generated_Source\PSoC5/FlowSenseTimeOutTimer_PM.c **** 
  21:Generated_Source\PSoC5/FlowSenseTimeOutTimer_PM.c **** static FlowSenseTimeOutTimer_backupStruct FlowSenseTimeOutTimer_backup;
  22:Generated_Source\PSoC5/FlowSenseTimeOutTimer_PM.c **** 
  23:Generated_Source\PSoC5/FlowSenseTimeOutTimer_PM.c **** 
  24:Generated_Source\PSoC5/FlowSenseTimeOutTimer_PM.c **** /*******************************************************************************
ARM GAS  C:\Users\tpbw4321\AppData\Local\Temp\cc5OW4A8.s 			page 2


  25:Generated_Source\PSoC5/FlowSenseTimeOutTimer_PM.c **** * Function Name: FlowSenseTimeOutTimer_SaveConfig
  26:Generated_Source\PSoC5/FlowSenseTimeOutTimer_PM.c **** ********************************************************************************
  27:Generated_Source\PSoC5/FlowSenseTimeOutTimer_PM.c **** *
  28:Generated_Source\PSoC5/FlowSenseTimeOutTimer_PM.c **** * Summary:
  29:Generated_Source\PSoC5/FlowSenseTimeOutTimer_PM.c **** *     Save the current user configuration
  30:Generated_Source\PSoC5/FlowSenseTimeOutTimer_PM.c **** *
  31:Generated_Source\PSoC5/FlowSenseTimeOutTimer_PM.c **** * Parameters:
  32:Generated_Source\PSoC5/FlowSenseTimeOutTimer_PM.c **** *  void
  33:Generated_Source\PSoC5/FlowSenseTimeOutTimer_PM.c **** *
  34:Generated_Source\PSoC5/FlowSenseTimeOutTimer_PM.c **** * Return:
  35:Generated_Source\PSoC5/FlowSenseTimeOutTimer_PM.c **** *  void
  36:Generated_Source\PSoC5/FlowSenseTimeOutTimer_PM.c **** *
  37:Generated_Source\PSoC5/FlowSenseTimeOutTimer_PM.c **** * Global variables:
  38:Generated_Source\PSoC5/FlowSenseTimeOutTimer_PM.c **** *  FlowSenseTimeOutTimer_backup:  Variables of this global structure are modified to
  39:Generated_Source\PSoC5/FlowSenseTimeOutTimer_PM.c **** *  store the values of non retention configuration registers when Sleep() API is
  40:Generated_Source\PSoC5/FlowSenseTimeOutTimer_PM.c **** *  called.
  41:Generated_Source\PSoC5/FlowSenseTimeOutTimer_PM.c **** *
  42:Generated_Source\PSoC5/FlowSenseTimeOutTimer_PM.c **** *******************************************************************************/
  43:Generated_Source\PSoC5/FlowSenseTimeOutTimer_PM.c **** void FlowSenseTimeOutTimer_SaveConfig(void) 
  44:Generated_Source\PSoC5/FlowSenseTimeOutTimer_PM.c **** {
  32              		.loc 1 44 0
  33              		.cfi_startproc
  34              		@ args = 0, pretend = 0, frame = 0
  35              		@ frame_needed = 1, uses_anonymous_args = 0
  36 0000 80B5     		push	{r7, lr}
  37              		.cfi_def_cfa_offset 8
  38              		.cfi_offset 7, -8
  39              		.cfi_offset 14, -4
  40 0002 00AF     		add	r7, sp, #0
  41              		.cfi_def_cfa_register 7
  45:Generated_Source\PSoC5/FlowSenseTimeOutTimer_PM.c ****     #if (!FlowSenseTimeOutTimer_UsingFixedFunction)
  46:Generated_Source\PSoC5/FlowSenseTimeOutTimer_PM.c ****         FlowSenseTimeOutTimer_backup.TimerUdb = FlowSenseTimeOutTimer_ReadCounter();
  42              		.loc 1 46 0
  43 0004 FFF7FEFF 		bl	FlowSenseTimeOutTimer_ReadCounter
  44 0008 0246     		mov	r2, r0
  45 000a 074B     		ldr	r3, .L2
  46 000c 5A60     		str	r2, [r3, #4]
  47:Generated_Source\PSoC5/FlowSenseTimeOutTimer_PM.c ****         FlowSenseTimeOutTimer_backup.InterruptMaskValue = FlowSenseTimeOutTimer_STATUS_MASK;
  47              		.loc 1 47 0
  48 000e 074B     		ldr	r3, .L2+4
  49 0010 1B78     		ldrb	r3, [r3]
  50 0012 DAB2     		uxtb	r2, r3
  51 0014 044B     		ldr	r3, .L2
  52 0016 1A72     		strb	r2, [r3, #8]
  48:Generated_Source\PSoC5/FlowSenseTimeOutTimer_PM.c ****         #if (FlowSenseTimeOutTimer_UsingHWCaptureCounter)
  49:Generated_Source\PSoC5/FlowSenseTimeOutTimer_PM.c ****             FlowSenseTimeOutTimer_backup.TimerCaptureCounter = FlowSenseTimeOutTimer_ReadCaptureCou
  50:Generated_Source\PSoC5/FlowSenseTimeOutTimer_PM.c ****         #endif /* Back Up capture counter register  */
  51:Generated_Source\PSoC5/FlowSenseTimeOutTimer_PM.c **** 
  52:Generated_Source\PSoC5/FlowSenseTimeOutTimer_PM.c ****         #if(!FlowSenseTimeOutTimer_UDB_CONTROL_REG_REMOVED)
  53:Generated_Source\PSoC5/FlowSenseTimeOutTimer_PM.c ****             FlowSenseTimeOutTimer_backup.TimerControlRegister = FlowSenseTimeOutTimer_ReadControlRe
  53              		.loc 1 53 0
  54 0018 FFF7FEFF 		bl	FlowSenseTimeOutTimer_ReadControlRegister
  55 001c 0346     		mov	r3, r0
  56 001e 1A46     		mov	r2, r3
  57 0020 014B     		ldr	r3, .L2
  58 0022 5A72     		strb	r2, [r3, #9]
  54:Generated_Source\PSoC5/FlowSenseTimeOutTimer_PM.c ****         #endif /* Backup the enable state of the Timer component */
ARM GAS  C:\Users\tpbw4321\AppData\Local\Temp\cc5OW4A8.s 			page 3


  55:Generated_Source\PSoC5/FlowSenseTimeOutTimer_PM.c ****     #endif /* Backup non retention registers in UDB implementation. All fixed function registers ar
  56:Generated_Source\PSoC5/FlowSenseTimeOutTimer_PM.c **** }
  59              		.loc 1 56 0
  60 0024 00BF     		nop
  61 0026 80BD     		pop	{r7, pc}
  62              	.L3:
  63              		.align	2
  64              	.L2:
  65 0028 00000000 		.word	FlowSenseTimeOutTimer_backup
  66 002c 8A640040 		.word	1073767562
  67              		.cfi_endproc
  68              	.LFE0:
  69              		.size	FlowSenseTimeOutTimer_SaveConfig, .-FlowSenseTimeOutTimer_SaveConfig
  70              		.section	.text.FlowSenseTimeOutTimer_RestoreConfig,"ax",%progbits
  71              		.align	2
  72              		.global	FlowSenseTimeOutTimer_RestoreConfig
  73              		.thumb
  74              		.thumb_func
  75              		.type	FlowSenseTimeOutTimer_RestoreConfig, %function
  76              	FlowSenseTimeOutTimer_RestoreConfig:
  77              	.LFB1:
  57:Generated_Source\PSoC5/FlowSenseTimeOutTimer_PM.c **** 
  58:Generated_Source\PSoC5/FlowSenseTimeOutTimer_PM.c **** 
  59:Generated_Source\PSoC5/FlowSenseTimeOutTimer_PM.c **** /*******************************************************************************
  60:Generated_Source\PSoC5/FlowSenseTimeOutTimer_PM.c **** * Function Name: FlowSenseTimeOutTimer_RestoreConfig
  61:Generated_Source\PSoC5/FlowSenseTimeOutTimer_PM.c **** ********************************************************************************
  62:Generated_Source\PSoC5/FlowSenseTimeOutTimer_PM.c **** *
  63:Generated_Source\PSoC5/FlowSenseTimeOutTimer_PM.c **** * Summary:
  64:Generated_Source\PSoC5/FlowSenseTimeOutTimer_PM.c **** *  Restores the current user configuration.
  65:Generated_Source\PSoC5/FlowSenseTimeOutTimer_PM.c **** *
  66:Generated_Source\PSoC5/FlowSenseTimeOutTimer_PM.c **** * Parameters:
  67:Generated_Source\PSoC5/FlowSenseTimeOutTimer_PM.c **** *  void
  68:Generated_Source\PSoC5/FlowSenseTimeOutTimer_PM.c **** *
  69:Generated_Source\PSoC5/FlowSenseTimeOutTimer_PM.c **** * Return:
  70:Generated_Source\PSoC5/FlowSenseTimeOutTimer_PM.c **** *  void
  71:Generated_Source\PSoC5/FlowSenseTimeOutTimer_PM.c **** *
  72:Generated_Source\PSoC5/FlowSenseTimeOutTimer_PM.c **** * Global variables:
  73:Generated_Source\PSoC5/FlowSenseTimeOutTimer_PM.c **** *  FlowSenseTimeOutTimer_backup:  Variables of this global structure are used to
  74:Generated_Source\PSoC5/FlowSenseTimeOutTimer_PM.c **** *  restore the values of non retention registers on wakeup from sleep mode.
  75:Generated_Source\PSoC5/FlowSenseTimeOutTimer_PM.c **** *
  76:Generated_Source\PSoC5/FlowSenseTimeOutTimer_PM.c **** *******************************************************************************/
  77:Generated_Source\PSoC5/FlowSenseTimeOutTimer_PM.c **** void FlowSenseTimeOutTimer_RestoreConfig(void) 
  78:Generated_Source\PSoC5/FlowSenseTimeOutTimer_PM.c **** {   
  78              		.loc 1 78 0
  79              		.cfi_startproc
  80              		@ args = 0, pretend = 0, frame = 0
  81              		@ frame_needed = 1, uses_anonymous_args = 0
  82 0000 80B5     		push	{r7, lr}
  83              		.cfi_def_cfa_offset 8
  84              		.cfi_offset 7, -8
  85              		.cfi_offset 14, -4
  86 0002 00AF     		add	r7, sp, #0
  87              		.cfi_def_cfa_register 7
  79:Generated_Source\PSoC5/FlowSenseTimeOutTimer_PM.c ****     #if (!FlowSenseTimeOutTimer_UsingFixedFunction)
  80:Generated_Source\PSoC5/FlowSenseTimeOutTimer_PM.c **** 
  81:Generated_Source\PSoC5/FlowSenseTimeOutTimer_PM.c ****         FlowSenseTimeOutTimer_WriteCounter(FlowSenseTimeOutTimer_backup.TimerUdb);
  88              		.loc 1 81 0
ARM GAS  C:\Users\tpbw4321\AppData\Local\Temp\cc5OW4A8.s 			page 4


  89 0004 074B     		ldr	r3, .L5
  90 0006 5B68     		ldr	r3, [r3, #4]
  91 0008 1846     		mov	r0, r3
  92 000a FFF7FEFF 		bl	FlowSenseTimeOutTimer_WriteCounter
  82:Generated_Source\PSoC5/FlowSenseTimeOutTimer_PM.c ****         FlowSenseTimeOutTimer_STATUS_MASK =FlowSenseTimeOutTimer_backup.InterruptMaskValue;
  93              		.loc 1 82 0
  94 000e 064B     		ldr	r3, .L5+4
  95 0010 044A     		ldr	r2, .L5
  96 0012 127A     		ldrb	r2, [r2, #8]	@ zero_extendqisi2
  97 0014 1A70     		strb	r2, [r3]
  83:Generated_Source\PSoC5/FlowSenseTimeOutTimer_PM.c ****         #if (FlowSenseTimeOutTimer_UsingHWCaptureCounter)
  84:Generated_Source\PSoC5/FlowSenseTimeOutTimer_PM.c ****             FlowSenseTimeOutTimer_SetCaptureCount(FlowSenseTimeOutTimer_backup.TimerCaptureCounter)
  85:Generated_Source\PSoC5/FlowSenseTimeOutTimer_PM.c ****         #endif /* Restore Capture counter register*/
  86:Generated_Source\PSoC5/FlowSenseTimeOutTimer_PM.c **** 
  87:Generated_Source\PSoC5/FlowSenseTimeOutTimer_PM.c ****         #if(!FlowSenseTimeOutTimer_UDB_CONTROL_REG_REMOVED)
  88:Generated_Source\PSoC5/FlowSenseTimeOutTimer_PM.c ****             FlowSenseTimeOutTimer_WriteControlRegister(FlowSenseTimeOutTimer_backup.TimerControlReg
  98              		.loc 1 88 0
  99 0016 034B     		ldr	r3, .L5
 100 0018 5B7A     		ldrb	r3, [r3, #9]	@ zero_extendqisi2
 101 001a 1846     		mov	r0, r3
 102 001c FFF7FEFF 		bl	FlowSenseTimeOutTimer_WriteControlRegister
  89:Generated_Source\PSoC5/FlowSenseTimeOutTimer_PM.c ****         #endif /* Restore the enable state of the Timer component */
  90:Generated_Source\PSoC5/FlowSenseTimeOutTimer_PM.c ****     #endif /* Restore non retention registers in the UDB implementation only */
  91:Generated_Source\PSoC5/FlowSenseTimeOutTimer_PM.c **** }
 103              		.loc 1 91 0
 104 0020 00BF     		nop
 105 0022 80BD     		pop	{r7, pc}
 106              	.L6:
 107              		.align	2
 108              	.L5:
 109 0024 00000000 		.word	FlowSenseTimeOutTimer_backup
 110 0028 8A640040 		.word	1073767562
 111              		.cfi_endproc
 112              	.LFE1:
 113              		.size	FlowSenseTimeOutTimer_RestoreConfig, .-FlowSenseTimeOutTimer_RestoreConfig
 114              		.section	.text.FlowSenseTimeOutTimer_Sleep,"ax",%progbits
 115              		.align	2
 116              		.global	FlowSenseTimeOutTimer_Sleep
 117              		.thumb
 118              		.thumb_func
 119              		.type	FlowSenseTimeOutTimer_Sleep, %function
 120              	FlowSenseTimeOutTimer_Sleep:
 121              	.LFB2:
  92:Generated_Source\PSoC5/FlowSenseTimeOutTimer_PM.c **** 
  93:Generated_Source\PSoC5/FlowSenseTimeOutTimer_PM.c **** 
  94:Generated_Source\PSoC5/FlowSenseTimeOutTimer_PM.c **** /*******************************************************************************
  95:Generated_Source\PSoC5/FlowSenseTimeOutTimer_PM.c **** * Function Name: FlowSenseTimeOutTimer_Sleep
  96:Generated_Source\PSoC5/FlowSenseTimeOutTimer_PM.c **** ********************************************************************************
  97:Generated_Source\PSoC5/FlowSenseTimeOutTimer_PM.c **** *
  98:Generated_Source\PSoC5/FlowSenseTimeOutTimer_PM.c **** * Summary:
  99:Generated_Source\PSoC5/FlowSenseTimeOutTimer_PM.c **** *     Stop and Save the user configuration
 100:Generated_Source\PSoC5/FlowSenseTimeOutTimer_PM.c **** *
 101:Generated_Source\PSoC5/FlowSenseTimeOutTimer_PM.c **** * Parameters:
 102:Generated_Source\PSoC5/FlowSenseTimeOutTimer_PM.c **** *  void
 103:Generated_Source\PSoC5/FlowSenseTimeOutTimer_PM.c **** *
 104:Generated_Source\PSoC5/FlowSenseTimeOutTimer_PM.c **** * Return:
 105:Generated_Source\PSoC5/FlowSenseTimeOutTimer_PM.c **** *  void
ARM GAS  C:\Users\tpbw4321\AppData\Local\Temp\cc5OW4A8.s 			page 5


 106:Generated_Source\PSoC5/FlowSenseTimeOutTimer_PM.c **** *
 107:Generated_Source\PSoC5/FlowSenseTimeOutTimer_PM.c **** * Global variables:
 108:Generated_Source\PSoC5/FlowSenseTimeOutTimer_PM.c **** *  FlowSenseTimeOutTimer_backup.TimerEnableState:  Is modified depending on the
 109:Generated_Source\PSoC5/FlowSenseTimeOutTimer_PM.c **** *  enable state of the block before entering sleep mode.
 110:Generated_Source\PSoC5/FlowSenseTimeOutTimer_PM.c **** *
 111:Generated_Source\PSoC5/FlowSenseTimeOutTimer_PM.c **** *******************************************************************************/
 112:Generated_Source\PSoC5/FlowSenseTimeOutTimer_PM.c **** void FlowSenseTimeOutTimer_Sleep(void) 
 113:Generated_Source\PSoC5/FlowSenseTimeOutTimer_PM.c **** {
 122              		.loc 1 113 0
 123              		.cfi_startproc
 124              		@ args = 0, pretend = 0, frame = 0
 125              		@ frame_needed = 1, uses_anonymous_args = 0
 126 0000 80B5     		push	{r7, lr}
 127              		.cfi_def_cfa_offset 8
 128              		.cfi_offset 7, -8
 129              		.cfi_offset 14, -4
 130 0002 00AF     		add	r7, sp, #0
 131              		.cfi_def_cfa_register 7
 114:Generated_Source\PSoC5/FlowSenseTimeOutTimer_PM.c ****     #if(!FlowSenseTimeOutTimer_UDB_CONTROL_REG_REMOVED)
 115:Generated_Source\PSoC5/FlowSenseTimeOutTimer_PM.c ****         /* Save Counter's enable state */
 116:Generated_Source\PSoC5/FlowSenseTimeOutTimer_PM.c ****         if(FlowSenseTimeOutTimer_CTRL_ENABLE == (FlowSenseTimeOutTimer_CONTROL & FlowSenseTimeOutTi
 132              		.loc 1 116 0
 133 0004 094B     		ldr	r3, .L10
 134 0006 1B78     		ldrb	r3, [r3]
 135 0008 DBB2     		uxtb	r3, r3
 136 000a 5BB2     		sxtb	r3, r3
 137 000c 002B     		cmp	r3, #0
 138 000e 03DA     		bge	.L8
 117:Generated_Source\PSoC5/FlowSenseTimeOutTimer_PM.c ****         {
 118:Generated_Source\PSoC5/FlowSenseTimeOutTimer_PM.c ****             /* Timer is enabled */
 119:Generated_Source\PSoC5/FlowSenseTimeOutTimer_PM.c ****             FlowSenseTimeOutTimer_backup.TimerEnableState = 1u;
 139              		.loc 1 119 0
 140 0010 074B     		ldr	r3, .L10+4
 141 0012 0122     		movs	r2, #1
 142 0014 1A70     		strb	r2, [r3]
 143 0016 02E0     		b	.L9
 144              	.L8:
 120:Generated_Source\PSoC5/FlowSenseTimeOutTimer_PM.c ****         }
 121:Generated_Source\PSoC5/FlowSenseTimeOutTimer_PM.c ****         else
 122:Generated_Source\PSoC5/FlowSenseTimeOutTimer_PM.c ****         {
 123:Generated_Source\PSoC5/FlowSenseTimeOutTimer_PM.c ****             /* Timer is disabled */
 124:Generated_Source\PSoC5/FlowSenseTimeOutTimer_PM.c ****             FlowSenseTimeOutTimer_backup.TimerEnableState = 0u;
 145              		.loc 1 124 0
 146 0018 054B     		ldr	r3, .L10+4
 147 001a 0022     		movs	r2, #0
 148 001c 1A70     		strb	r2, [r3]
 149              	.L9:
 125:Generated_Source\PSoC5/FlowSenseTimeOutTimer_PM.c ****         }
 126:Generated_Source\PSoC5/FlowSenseTimeOutTimer_PM.c ****     #endif /* Back up enable state from the Timer control register */
 127:Generated_Source\PSoC5/FlowSenseTimeOutTimer_PM.c ****     FlowSenseTimeOutTimer_Stop();
 150              		.loc 1 127 0
 151 001e FFF7FEFF 		bl	FlowSenseTimeOutTimer_Stop
 128:Generated_Source\PSoC5/FlowSenseTimeOutTimer_PM.c ****     FlowSenseTimeOutTimer_SaveConfig();
 152              		.loc 1 128 0
 153 0022 FFF7FEFF 		bl	FlowSenseTimeOutTimer_SaveConfig
 129:Generated_Source\PSoC5/FlowSenseTimeOutTimer_PM.c **** }
 154              		.loc 1 129 0
ARM GAS  C:\Users\tpbw4321\AppData\Local\Temp\cc5OW4A8.s 			page 6


 155 0026 00BF     		nop
 156 0028 80BD     		pop	{r7, pc}
 157              	.L11:
 158 002a 00BF     		.align	2
 159              	.L10:
 160 002c 7A640040 		.word	1073767546
 161 0030 00000000 		.word	FlowSenseTimeOutTimer_backup
 162              		.cfi_endproc
 163              	.LFE2:
 164              		.size	FlowSenseTimeOutTimer_Sleep, .-FlowSenseTimeOutTimer_Sleep
 165              		.section	.text.FlowSenseTimeOutTimer_Wakeup,"ax",%progbits
 166              		.align	2
 167              		.global	FlowSenseTimeOutTimer_Wakeup
 168              		.thumb
 169              		.thumb_func
 170              		.type	FlowSenseTimeOutTimer_Wakeup, %function
 171              	FlowSenseTimeOutTimer_Wakeup:
 172              	.LFB3:
 130:Generated_Source\PSoC5/FlowSenseTimeOutTimer_PM.c **** 
 131:Generated_Source\PSoC5/FlowSenseTimeOutTimer_PM.c **** 
 132:Generated_Source\PSoC5/FlowSenseTimeOutTimer_PM.c **** /*******************************************************************************
 133:Generated_Source\PSoC5/FlowSenseTimeOutTimer_PM.c **** * Function Name: FlowSenseTimeOutTimer_Wakeup
 134:Generated_Source\PSoC5/FlowSenseTimeOutTimer_PM.c **** ********************************************************************************
 135:Generated_Source\PSoC5/FlowSenseTimeOutTimer_PM.c **** *
 136:Generated_Source\PSoC5/FlowSenseTimeOutTimer_PM.c **** * Summary:
 137:Generated_Source\PSoC5/FlowSenseTimeOutTimer_PM.c **** *  Restores and enables the user configuration
 138:Generated_Source\PSoC5/FlowSenseTimeOutTimer_PM.c **** *
 139:Generated_Source\PSoC5/FlowSenseTimeOutTimer_PM.c **** * Parameters:
 140:Generated_Source\PSoC5/FlowSenseTimeOutTimer_PM.c **** *  void
 141:Generated_Source\PSoC5/FlowSenseTimeOutTimer_PM.c **** *
 142:Generated_Source\PSoC5/FlowSenseTimeOutTimer_PM.c **** * Return:
 143:Generated_Source\PSoC5/FlowSenseTimeOutTimer_PM.c **** *  void
 144:Generated_Source\PSoC5/FlowSenseTimeOutTimer_PM.c **** *
 145:Generated_Source\PSoC5/FlowSenseTimeOutTimer_PM.c **** * Global variables:
 146:Generated_Source\PSoC5/FlowSenseTimeOutTimer_PM.c **** *  FlowSenseTimeOutTimer_backup.enableState:  Is used to restore the enable state of
 147:Generated_Source\PSoC5/FlowSenseTimeOutTimer_PM.c **** *  block on wakeup from sleep mode.
 148:Generated_Source\PSoC5/FlowSenseTimeOutTimer_PM.c **** *
 149:Generated_Source\PSoC5/FlowSenseTimeOutTimer_PM.c **** *******************************************************************************/
 150:Generated_Source\PSoC5/FlowSenseTimeOutTimer_PM.c **** void FlowSenseTimeOutTimer_Wakeup(void) 
 151:Generated_Source\PSoC5/FlowSenseTimeOutTimer_PM.c **** {
 173              		.loc 1 151 0
 174              		.cfi_startproc
 175              		@ args = 0, pretend = 0, frame = 0
 176              		@ frame_needed = 1, uses_anonymous_args = 0
 177 0000 80B5     		push	{r7, lr}
 178              		.cfi_def_cfa_offset 8
 179              		.cfi_offset 7, -8
 180              		.cfi_offset 14, -4
 181 0002 00AF     		add	r7, sp, #0
 182              		.cfi_def_cfa_register 7
 152:Generated_Source\PSoC5/FlowSenseTimeOutTimer_PM.c ****     FlowSenseTimeOutTimer_RestoreConfig();
 183              		.loc 1 152 0
 184 0004 FFF7FEFF 		bl	FlowSenseTimeOutTimer_RestoreConfig
 153:Generated_Source\PSoC5/FlowSenseTimeOutTimer_PM.c ****     #if(!FlowSenseTimeOutTimer_UDB_CONTROL_REG_REMOVED)
 154:Generated_Source\PSoC5/FlowSenseTimeOutTimer_PM.c ****         if(FlowSenseTimeOutTimer_backup.TimerEnableState == 1u)
 185              		.loc 1 154 0
 186 0008 034B     		ldr	r3, .L15
ARM GAS  C:\Users\tpbw4321\AppData\Local\Temp\cc5OW4A8.s 			page 7


 187 000a 1B78     		ldrb	r3, [r3]	@ zero_extendqisi2
 188 000c 012B     		cmp	r3, #1
 189 000e 01D1     		bne	.L14
 155:Generated_Source\PSoC5/FlowSenseTimeOutTimer_PM.c ****         {     /* Enable Timer's operation */
 156:Generated_Source\PSoC5/FlowSenseTimeOutTimer_PM.c ****                 FlowSenseTimeOutTimer_Enable();
 190              		.loc 1 156 0
 191 0010 FFF7FEFF 		bl	FlowSenseTimeOutTimer_Enable
 192              	.L14:
 157:Generated_Source\PSoC5/FlowSenseTimeOutTimer_PM.c ****         } /* Do nothing if Timer was disabled before */
 158:Generated_Source\PSoC5/FlowSenseTimeOutTimer_PM.c ****     #endif /* Remove this code section if Control register is removed */
 159:Generated_Source\PSoC5/FlowSenseTimeOutTimer_PM.c **** }
 193              		.loc 1 159 0
 194 0014 00BF     		nop
 195 0016 80BD     		pop	{r7, pc}
 196              	.L16:
 197              		.align	2
 198              	.L15:
 199 0018 00000000 		.word	FlowSenseTimeOutTimer_backup
 200              		.cfi_endproc
 201              	.LFE3:
 202              		.size	FlowSenseTimeOutTimer_Wakeup, .-FlowSenseTimeOutTimer_Wakeup
 203              		.text
 204              	.Letext0:
 205              		.file 2 "Generated_Source\\PSoC5\\cytypes.h"
 206              		.file 3 "Generated_Source\\PSoC5\\FlowSenseTimeOutTimer.h"