ARM GAS  C:\Users\tpbw4321\AppData\Local\Temp\ccZ6n7p4.s 			page 1


   1              		.syntax unified
   2              		.cpu cortex-m3
   3              		.fpu softvfp
   4              		.eabi_attribute 20, 1
   5              		.eabi_attribute 21, 1
   6              		.eabi_attribute 23, 3
   7              		.eabi_attribute 24, 1
   8              		.eabi_attribute 25, 1
   9              		.eabi_attribute 26, 1
  10              		.eabi_attribute 30, 6
  11              		.eabi_attribute 34, 1
  12              		.eabi_attribute 18, 4
  13              		.thumb
  14              		.syntax unified
  15              		.file	"FlowSense.c"
  16              		.text
  17              	.Ltext0:
  18              		.cfi_sections	.debug_frame
  19              		.syntax unified
  20              		.global _printf_float
  21              		.thumb
  22              		.syntax unified
  23              		.bss
  24              		.align	2
  25              	flowSensorPeriodHistory:
  26 0000 00000000 		.space	32
  26      00000000 
  26      00000000 
  26      00000000 
  26      00000000 
  27              		.align	2
  28              	flowSensorPeriod:
  29 0020 00000000 		.space	4
  30              	timeout_flag:
  31 0024 00       		.space	1
  32              		.section	.text.FlowSenseTimeOutISRHandler,"ax",%progbits
  33              		.align	2
  34              		.global	FlowSenseTimeOutISRHandler
  35              		.thumb
  36              		.thumb_func
  37              		.type	FlowSenseTimeOutISRHandler, %function
  38              	FlowSenseTimeOutISRHandler:
  39              	.LFB64:
  40              		.file 1 "src\\FlowSense.c"
   1:src/FlowSense.c **** /* ========================================
   2:src/FlowSense.c ****  *
   3:src/FlowSense.c ****  * Copyright YOUR COMPANY, THE YEAR
   4:src/FlowSense.c ****  * All Rights Reserved
   5:src/FlowSense.c ****  * UNPUBLISHED, LICENSED SOFTWARE.
   6:src/FlowSense.c ****  *
   7:src/FlowSense.c ****  * CONFIDENTIAL AND PROPRIETARY INFORMATION
   8:src/FlowSense.c ****  * WHICH IS THE PROPERTY OF your company.
   9:src/FlowSense.c ****  *
  10:src/FlowSense.c ****  * ========================================
  11:src/FlowSense.c **** */
  12:src/FlowSense.c **** #include "FlowSense.h"
  13:src/FlowSense.c **** #include "SerialCom.h"
ARM GAS  C:\Users\tpbw4321\AppData\Local\Temp\ccZ6n7p4.s 			page 2


  14:src/FlowSense.c **** #include <stdio.h>
  15:src/FlowSense.c **** #include <stdlib.h>
  16:src/FlowSense.c **** 
  17:src/FlowSense.c **** #define FLOWRATE_CONVERSION_FACTOR 23.0
  18:src/FlowSense.c **** #define FALSE 0 
  19:src/FlowSense.c **** #define TRUE 1
  20:src/FlowSense.c **** #define ADC_MAX 255
  21:src/FlowSense.c **** #define FREE_TIMER_MAX 4294967296
  22:src/FlowSense.c **** #define MEGA 100000.0
  23:src/FlowSense.c **** 
  24:src/FlowSense.c **** #define NEW_HIST_CNT 16
  25:src/FlowSense.c **** #define NEW_SHIFT_CNT 4
  26:src/FlowSense.c **** 
  27:src/FlowSense.c **** #define HIST_CNT 4
  28:src/FlowSense.c **** #define SHIFT_CNT 2
  29:src/FlowSense.c **** 
  30:src/FlowSense.c **** static uint16_t flowSensorPeriodHistory[NEW_HIST_CNT] = {0};
  31:src/FlowSense.c **** 
  32:src/FlowSense.c **** static uint32_t flowSensorPeriod = 0;
  33:src/FlowSense.c **** static uint8_t timeout_flag = 0;
  34:src/FlowSense.c **** /**
  35:src/FlowSense.c ****  * @function FlowSenseTimeOutISRHandler(void)
  36:src/FlowSense.c ****  * @param None
  37:src/FlowSense.c ****  * @return None
  38:src/FlowSense.c ****  * @brief Interrupt to detect timeouts when no flow occurs
  39:src/FlowSense.c ****  * @author Barron Wong 01/25/19
  40:src/FlowSense.c ****  */
  41:src/FlowSense.c **** CY_ISR(FlowSenseTimeOutISRHandler){
  41              		.loc 1 41 0
  42              		.cfi_startproc
  43              		@ args = 0, pretend = 0, frame = 0
  44              		@ frame_needed = 1, uses_anonymous_args = 0
  45 0000 80B5     		push	{r7, lr}
  46              		.cfi_def_cfa_offset 8
  47              		.cfi_offset 7, -8
  48              		.cfi_offset 14, -4
  49 0002 00AF     		add	r7, sp, #0
  50              		.cfi_def_cfa_register 7
  42:src/FlowSense.c ****     FlowSenseTimeOutISR_ClearPending();
  51              		.loc 1 42 0
  52 0004 FFF7FEFF 		bl	FlowSenseTimeOutISR_ClearPending
  43:src/FlowSense.c ****     
  44:src/FlowSense.c ****     if (!timeout_flag){
  53              		.loc 1 44 0
  54 0008 064B     		ldr	r3, .L5
  55 000a 1B78     		ldrb	r3, [r3]	@ zero_extendqisi2
  56 000c 002B     		cmp	r3, #0
  57 000e 03D1     		bne	.L2
  45:src/FlowSense.c ****         timeout_flag = 1;
  58              		.loc 1 45 0
  59 0010 044B     		ldr	r3, .L5
  60 0012 0122     		movs	r2, #1
  61 0014 1A70     		strb	r2, [r3]
  46:src/FlowSense.c ****     }
  47:src/FlowSense.c ****     else{
  48:src/FlowSense.c ****         flowSensorPeriod = MEGA*10;
  49:src/FlowSense.c ****     }
ARM GAS  C:\Users\tpbw4321\AppData\Local\Temp\ccZ6n7p4.s 			page 3


  50:src/FlowSense.c **** }
  62              		.loc 1 50 0
  63 0016 02E0     		b	.L4
  64              	.L2:
  48:src/FlowSense.c ****     }
  65              		.loc 1 48 0
  66 0018 034B     		ldr	r3, .L5+4
  67 001a 044A     		ldr	r2, .L5+8
  68 001c 1A60     		str	r2, [r3]
  69              	.L4:
  70              		.loc 1 50 0
  71 001e 00BF     		nop
  72 0020 80BD     		pop	{r7, pc}
  73              	.L6:
  74 0022 00BF     		.align	2
  75              	.L5:
  76 0024 24000000 		.word	timeout_flag
  77 0028 20000000 		.word	flowSensorPeriod
  78 002c 40420F00 		.word	1000000
  79              		.cfi_endproc
  80              	.LFE64:
  81              		.size	FlowSenseTimeOutISRHandler, .-FlowSenseTimeOutISRHandler
  82              		.section	.text.FlowSenseCaptureISRHandler,"ax",%progbits
  83              		.align	2
  84              		.global	FlowSenseCaptureISRHandler
  85              		.thumb
  86              		.thumb_func
  87              		.type	FlowSenseCaptureISRHandler, %function
  88              	FlowSenseCaptureISRHandler:
  89              	.LFB65:
  51:src/FlowSense.c **** /**
  52:src/FlowSense.c ****  * @function FlowCounterTimerISRHandler(void)
  53:src/FlowSense.c ****  * @param None
  54:src/FlowSense.c ****  * @return None
  55:src/FlowSense.c ****  * @brief Computes time elapsed since last capture
  56:src/FlowSense.c ****  * @author Barron Wong 01/25/19
  57:src/FlowSense.c ****  */
  58:src/FlowSense.c **** CY_ISR(FlowSenseCaptureISRHandler){
  90              		.loc 1 58 0
  91              		.cfi_startproc
  92              		@ args = 0, pretend = 0, frame = 8
  93              		@ frame_needed = 1, uses_anonymous_args = 0
  94 0000 80B5     		push	{r7, lr}
  95              		.cfi_def_cfa_offset 8
  96              		.cfi_offset 7, -8
  97              		.cfi_offset 14, -4
  98 0002 82B0     		sub	sp, sp, #8
  99              		.cfi_def_cfa_offset 16
 100 0004 00AF     		add	r7, sp, #0
 101              		.cfi_def_cfa_register 7
  59:src/FlowSense.c ****     static uint32_t prev; 
  60:src/FlowSense.c ****     static uint16_t index = 0;
  61:src/FlowSense.c ****     static uint32_t sum;
  62:src/FlowSense.c ****     static uint16_t time_elapsed;
  63:src/FlowSense.c ****     uint32_t current;
  64:src/FlowSense.c ****     
  65:src/FlowSense.c ****     timeout_flag = 0;
ARM GAS  C:\Users\tpbw4321\AppData\Local\Temp\ccZ6n7p4.s 			page 4


 102              		.loc 1 65 0
 103 0006 244B     		ldr	r3, .L9
 104 0008 0022     		movs	r2, #0
 105 000a 1A70     		strb	r2, [r3]
  66:src/FlowSense.c ****     
  67:src/FlowSense.c ****     current = FREE_TIMER_MAX - FreeRunningTimer_ReadCounter();
 106              		.loc 1 67 0
 107 000c FFF7FEFF 		bl	FreeRunningTimer_ReadCounter
 108 0010 0346     		mov	r3, r0
 109 0012 5B42     		negs	r3, r3
 110 0014 7B60     		str	r3, [r7, #4]
  68:src/FlowSense.c ****     
  69:src/FlowSense.c ****     time_elapsed = current - prev;
 111              		.loc 1 69 0
 112 0016 7B68     		ldr	r3, [r7, #4]
 113 0018 9AB2     		uxth	r2, r3
 114 001a 204B     		ldr	r3, .L9+4
 115 001c 1B68     		ldr	r3, [r3]
 116 001e 9BB2     		uxth	r3, r3
 117 0020 D31A     		subs	r3, r2, r3
 118 0022 9AB2     		uxth	r2, r3
 119 0024 1E4B     		ldr	r3, .L9+8
 120 0026 1A80     		strh	r2, [r3]	@ movhi
  70:src/FlowSense.c ****     prev = current;
 121              		.loc 1 70 0
 122 0028 1C4A     		ldr	r2, .L9+4
 123 002a 7B68     		ldr	r3, [r7, #4]
 124 002c 1360     		str	r3, [r2]
  71:src/FlowSense.c ****     
  72:src/FlowSense.c ****     //Removed Average stability issues
  73:src/FlowSense.c ****     //Subtract oldest value
  74:src/FlowSense.c ****     sum -= flowSensorPeriodHistory[index]; 
 125              		.loc 1 74 0
 126 002e 1D4B     		ldr	r3, .L9+12
 127 0030 1B68     		ldr	r3, [r3]
 128 0032 1D4A     		ldr	r2, .L9+16
 129 0034 1288     		ldrh	r2, [r2]
 130 0036 1146     		mov	r1, r2
 131 0038 1C4A     		ldr	r2, .L9+20
 132 003a 32F81120 		ldrh	r2, [r2, r1, lsl #1]
 133 003e 9B1A     		subs	r3, r3, r2
 134 0040 184A     		ldr	r2, .L9+12
 135 0042 1360     		str	r3, [r2]
  75:src/FlowSense.c ****     flowSensorPeriodHistory[index] = time_elapsed;
 136              		.loc 1 75 0
 137 0044 184B     		ldr	r3, .L9+16
 138 0046 1B88     		ldrh	r3, [r3]
 139 0048 1A46     		mov	r2, r3
 140 004a 154B     		ldr	r3, .L9+8
 141 004c 1988     		ldrh	r1, [r3]
 142 004e 174B     		ldr	r3, .L9+20
 143 0050 23F81210 		strh	r1, [r3, r2, lsl #1]	@ movhi
  76:src/FlowSense.c ****     //Add newest value
  77:src/FlowSense.c ****     sum += time_elapsed;
 144              		.loc 1 77 0
 145 0054 124B     		ldr	r3, .L9+8
 146 0056 1B88     		ldrh	r3, [r3]
ARM GAS  C:\Users\tpbw4321\AppData\Local\Temp\ccZ6n7p4.s 			page 5


 147 0058 1A46     		mov	r2, r3
 148 005a 124B     		ldr	r3, .L9+12
 149 005c 1B68     		ldr	r3, [r3]
 150 005e 1344     		add	r3, r3, r2
 151 0060 104A     		ldr	r2, .L9+12
 152 0062 1360     		str	r3, [r2]
  78:src/FlowSense.c ****     //Increment Index
  79:src/FlowSense.c ****     index = (index + 1) % (NEW_HIST_CNT);
 153              		.loc 1 79 0
 154 0064 104B     		ldr	r3, .L9+16
 155 0066 1B88     		ldrh	r3, [r3]
 156 0068 5A1C     		adds	r2, r3, #1
 157 006a 114B     		ldr	r3, .L9+24
 158 006c 1340     		ands	r3, r3, r2
 159 006e 002B     		cmp	r3, #0
 160 0070 03DA     		bge	.L8
 161 0072 013B     		subs	r3, r3, #1
 162 0074 63F00F03 		orn	r3, r3, #15
 163 0078 0133     		adds	r3, r3, #1
 164              	.L8:
 165 007a 9AB2     		uxth	r2, r3
 166 007c 0A4B     		ldr	r3, .L9+16
 167 007e 1A80     		strh	r2, [r3]	@ movhi
  80:src/FlowSense.c ****     
  81:src/FlowSense.c ****     flowSensorPeriod = sum>>NEW_SHIFT_CNT;
 168              		.loc 1 81 0
 169 0080 084B     		ldr	r3, .L9+12
 170 0082 1B68     		ldr	r3, [r3]
 171 0084 1B09     		lsrs	r3, r3, #4
 172 0086 0B4A     		ldr	r2, .L9+28
 173 0088 1360     		str	r3, [r2]
  82:src/FlowSense.c ****     
  83:src/FlowSense.c ****     
  84:src/FlowSense.c ****     FlowSenseCaptureISR_ClearPending();
 174              		.loc 1 84 0
 175 008a FFF7FEFF 		bl	FlowSenseCaptureISR_ClearPending
  85:src/FlowSense.c **** }
 176              		.loc 1 85 0
 177 008e 00BF     		nop
 178 0090 0837     		adds	r7, r7, #8
 179              		.cfi_def_cfa_offset 8
 180 0092 BD46     		mov	sp, r7
 181              		.cfi_def_cfa_register 13
 182              		@ sp needed
 183 0094 80BD     		pop	{r7, pc}
 184              	.L10:
 185 0096 00BF     		.align	2
 186              	.L9:
 187 0098 24000000 		.word	timeout_flag
 188 009c 28000000 		.word	prev.8026
 189 00a0 2C000000 		.word	time_elapsed.8029
 190 00a4 30000000 		.word	sum.8028
 191 00a8 34000000 		.word	index.8027
 192 00ac 00000000 		.word	flowSensorPeriodHistory
 193 00b0 0F000080 		.word	-2147483633
 194 00b4 20000000 		.word	flowSensorPeriod
 195              		.cfi_endproc
ARM GAS  C:\Users\tpbw4321\AppData\Local\Temp\ccZ6n7p4.s 			page 6


 196              	.LFE65:
 197              		.size	FlowSenseCaptureISRHandler, .-FlowSenseCaptureISRHandler
 198              		.section	.text.FlowSense_Init,"ax",%progbits
 199              		.align	2
 200              		.global	FlowSense_Init
 201              		.thumb
 202              		.thumb_func
 203              		.type	FlowSense_Init, %function
 204              	FlowSense_Init:
 205              	.LFB66:
  86:src/FlowSense.c **** 
  87:src/FlowSense.c **** 
  88:src/FlowSense.c **** /**
  89:src/FlowSense.c ****  * @function FlowSense_Init(void)
  90:src/FlowSense.c ****  * @param None
  91:src/FlowSense.c ****  * @return SUCCESS or ERROR
  92:src/FlowSense.c ****  * @brief Initializes hardware components necessary for flow control and monitoring
  93:src/FlowSense.c ****  * @author Barron Wong 01/25/19
  94:src/FlowSense.c **** */
  95:src/FlowSense.c **** void FlowSense_Init(void){
 206              		.loc 1 95 0
 207              		.cfi_startproc
 208              		@ args = 0, pretend = 0, frame = 0
 209              		@ frame_needed = 1, uses_anonymous_args = 0
 210 0000 80B5     		push	{r7, lr}
 211              		.cfi_def_cfa_offset 8
 212              		.cfi_offset 7, -8
 213              		.cfi_offset 14, -4
 214 0002 00AF     		add	r7, sp, #0
 215              		.cfi_def_cfa_register 7
  96:src/FlowSense.c ****     FlowSenseCaptureISR_StartEx(FlowSenseCaptureISRHandler);
 216              		.loc 1 96 0
 217 0004 0548     		ldr	r0, .L12
 218 0006 FFF7FEFF 		bl	FlowSenseCaptureISR_StartEx
  97:src/FlowSense.c ****     FlowSenseTimeOutISR_StartEx(FlowSenseTimeOutISRHandler);
 219              		.loc 1 97 0
 220 000a 0548     		ldr	r0, .L12+4
 221 000c FFF7FEFF 		bl	FlowSenseTimeOutISR_StartEx
  98:src/FlowSense.c ****     FreeRunningTimer_Start();
 222              		.loc 1 98 0
 223 0010 FFF7FEFF 		bl	FreeRunningTimer_Start
  99:src/FlowSense.c ****     FlowSenseTimeOutTimer_Start();
 224              		.loc 1 99 0
 225 0014 FFF7FEFF 		bl	FlowSenseTimeOutTimer_Start
 100:src/FlowSense.c **** }
 226              		.loc 1 100 0
 227 0018 00BF     		nop
 228 001a 80BD     		pop	{r7, pc}
 229              	.L13:
 230              		.align	2
 231              	.L12:
 232 001c 00000000 		.word	FlowSenseCaptureISRHandler
 233 0020 00000000 		.word	FlowSenseTimeOutISRHandler
 234              		.cfi_endproc
 235              	.LFE66:
 236              		.size	FlowSense_Init, .-FlowSense_Init
 237              		.global	__aeabi_ui2d
ARM GAS  C:\Users\tpbw4321\AppData\Local\Temp\ccZ6n7p4.s 			page 7


 238              		.global	__aeabi_ddiv
 239              		.global	__aeabi_dmul
 240              		.global	__aeabi_dadd
 241              		.global	__aeabi_d2f
 242              		.section	.text.FlowSense_GetFlowRate,"ax",%progbits
 243              		.align	2
 244              		.global	FlowSense_GetFlowRate
 245              		.thumb
 246              		.thumb_func
 247              		.type	FlowSense_GetFlowRate, %function
 248              	FlowSense_GetFlowRate:
 249              	.LFB67:
 101:src/FlowSense.c **** 
 102:src/FlowSense.c **** #define SLOPE 1.1763
 103:src/FlowSense.c **** #define BIAS 0.131
 104:src/FlowSense.c **** 
 105:src/FlowSense.c **** float FlowSense_GetFlowRate(){
 250              		.loc 1 105 0
 251              		.cfi_startproc
 252              		@ args = 0, pretend = 0, frame = 16
 253              		@ frame_needed = 1, uses_anonymous_args = 0
 254 0000 90B5     		push	{r4, r7, lr}
 255              		.cfi_def_cfa_offset 12
 256              		.cfi_offset 4, -12
 257              		.cfi_offset 7, -8
 258              		.cfi_offset 14, -4
 259 0002 85B0     		sub	sp, sp, #20
 260              		.cfi_def_cfa_offset 32
 261 0004 00AF     		add	r7, sp, #0
 262              		.cfi_def_cfa_register 7
 106:src/FlowSense.c ****     
 107:src/FlowSense.c ****     double flowRate;
 108:src/FlowSense.c ****     
 109:src/FlowSense.c ****     double freq = 1.0/(flowSensorPeriod/MEGA);
 263              		.loc 1 109 0
 264 0006 244B     		ldr	r3, .L16+24
 265 0008 1B68     		ldr	r3, [r3]
 266 000a 1846     		mov	r0, r3
 267 000c FFF7FEFF 		bl	__aeabi_ui2d
 268 0010 1BA3     		adr	r3, .L16
 269 0012 D3E90023 		ldrd	r2, [r3]
 270 0016 FFF7FEFF 		bl	__aeabi_ddiv
 271 001a 0346     		mov	r3, r0
 272 001c 0C46     		mov	r4, r1
 273 001e 1A46     		mov	r2, r3
 274 0020 2346     		mov	r3, r4
 275 0022 4FF00000 		mov	r0, #0
 276 0026 1D49     		ldr	r1, .L16+28
 277 0028 FFF7FEFF 		bl	__aeabi_ddiv
 278 002c 0346     		mov	r3, r0
 279 002e 0C46     		mov	r4, r1
 280 0030 C7E90234 		strd	r3, [r7, #8]
 110:src/FlowSense.c ****     
 111:src/FlowSense.c ****     flowRate = SLOPE*(freq/FLOWRATE_CONVERSION_FACTOR) + BIAS;
 281              		.loc 1 111 0
 282 0034 4FF00002 		mov	r2, #0
 283 0038 194B     		ldr	r3, .L16+32
ARM GAS  C:\Users\tpbw4321\AppData\Local\Temp\ccZ6n7p4.s 			page 8


 284 003a D7E90201 		ldrd	r0, [r7, #8]
 285 003e FFF7FEFF 		bl	__aeabi_ddiv
 286 0042 0346     		mov	r3, r0
 287 0044 0C46     		mov	r4, r1
 288 0046 1846     		mov	r0, r3
 289 0048 2146     		mov	r1, r4
 290 004a 0FA3     		adr	r3, .L16+8
 291 004c D3E90023 		ldrd	r2, [r3]
 292 0050 FFF7FEFF 		bl	__aeabi_dmul
 293 0054 0346     		mov	r3, r0
 294 0056 0C46     		mov	r4, r1
 295 0058 1846     		mov	r0, r3
 296 005a 2146     		mov	r1, r4
 297 005c 0CA3     		adr	r3, .L16+16
 298 005e D3E90023 		ldrd	r2, [r3]
 299 0062 FFF7FEFF 		bl	__aeabi_dadd
 300 0066 0346     		mov	r3, r0
 301 0068 0C46     		mov	r4, r1
 302 006a C7E90034 		strd	r3, [r7]
 112:src/FlowSense.c ****     
 113:src/FlowSense.c ****     return flowRate;
 303              		.loc 1 113 0
 304 006e D7E90001 		ldrd	r0, [r7]
 305 0072 FFF7FEFF 		bl	__aeabi_d2f
 306 0076 0346     		mov	r3, r0
 114:src/FlowSense.c **** }
 307              		.loc 1 114 0
 308 0078 1846     		mov	r0, r3
 309 007a 1437     		adds	r7, r7, #20
 310              		.cfi_def_cfa_offset 12
 311 007c BD46     		mov	sp, r7
 312              		.cfi_def_cfa_register 13
 313              		@ sp needed
 314 007e 90BD     		pop	{r4, r7, pc}
 315              	.L17:
 316              		.align	3
 317              	.L16:
 318 0080 00000000 		.word	0
 319 0084 006AF840 		.word	1090021888
 320 0088 8A8EE4F2 		.word	-219902326
 321 008c 1FD2F23F 		.word	1072878111
 322 0090 F853E3A5 		.word	-1511828488
 323 0094 9BC4C03F 		.word	1069597851
 324 0098 20000000 		.word	flowSensorPeriod
 325 009c 0000F03F 		.word	1072693248
 326 00a0 00003740 		.word	1077346304
 327              		.cfi_endproc
 328              	.LFE67:
 329              		.size	FlowSense_GetFlowRate, .-FlowSense_GetFlowRate
 330              		.bss
 331 0025 000000   		.align	2
 332              	prev.8026:
 333 0028 00000000 		.space	4
 334              		.align	1
 335              	time_elapsed.8029:
 336 002c 0000     		.space	2
 337 002e 0000     		.align	2
ARM GAS  C:\Users\tpbw4321\AppData\Local\Temp\ccZ6n7p4.s 			page 9


 338              	sum.8028:
 339 0030 00000000 		.space	4
 340              		.align	1
 341              	index.8027:
 342 0034 0000     		.space	2
 343              		.text
 344              	.Letext0:
 345              		.file 2 "c:\\program files (x86)\\cypress\\psoc creator\\4.2\\psoc creator\\import\\gnu\\arm\\5.4.
 346              		.file 3 "c:\\program files (x86)\\cypress\\psoc creator\\4.2\\psoc creator\\import\\gnu\\arm\\5.4.
 347              		.file 4 "Generated_Source\\PSoC5/core_cm3.h"