ARM GAS  C:\Users\tpbw4321\AppData\Local\Temp\cck3JO3s.s 			page 1


   1              		.syntax unified
   2              		.cpu cortex-m3
   3              		.fpu softvfp
   4              		.eabi_attribute 20, 1
   5              		.eabi_attribute 21, 1
   6              		.eabi_attribute 23, 3
   7              		.eabi_attribute 24, 1
   8              		.eabi_attribute 25, 1
   9              		.eabi_attribute 26, 1
  10              		.eabi_attribute 30, 6
  11              		.eabi_attribute 34, 1
  12              		.eabi_attribute 18, 4
  13              		.thumb
  14              		.syntax unified
  15              		.file	"main.c"
  16              		.text
  17              	.Ltext0:
  18              		.cfi_sections	.debug_frame
  19              		.syntax unified
  20              		.global _printf_float
  21              		.thumb
  22              		.syntax unified
  23              		.section	.rodata
  24              		.align	2
  25              	.LC0:
  26 0000 696E7661 		.ascii	"invalid_key\000"
  26      6C69645F 
  26      6B657900 
  27              		.align	2
  28              	.LC1:
  29 000c 666C6F77 		.ascii	"flow_target\000"
  29      5F746172 
  29      67657400 
  30              		.align	2
  31              	.LC2:
  32 0018 70685F74 		.ascii	"ph_target\000"
  32      61726765 
  32      7400
  33 0022 0000     		.align	2
  34              	.LC3:
  35 0024 65635F74 		.ascii	"ec_target\000"
  35      61726765 
  35      7400
  36 002e 0000     		.align	2
  37              	.LC4:
  38 0030 6832305F 		.ascii	"h20_level_target\000"
  38      6C657665 
  38      6C5F7461 
  38      72676574 
  38      00
  39 0041 000000   		.align	2
  40              	.LC5:
  41 0044 6832305F 		.ascii	"h20_level\000"
  41      6C657665 
  41      6C00
  42 004e 0000     		.align	2
  43              	.LC6:
ARM GAS  C:\Users\tpbw4321\AppData\Local\Temp\cck3JO3s.s 			page 2


  44 0050 6832305F 		.ascii	"h20_stored\000"
  44      73746F72 
  44      656400
  45 005b 00       		.align	2
  46              	.LC7:
  47 005c 70685F6D 		.ascii	"ph_measured\000"
  47      65617375 
  47      72656400 
  48              		.align	2
  49              	.LC8:
  50 0068 70685F75 		.ascii	"ph_up_stored\000"
  50      705F7374 
  50      6F726564 
  50      00
  51 0075 000000   		.align	2
  52              	.LC9:
  53 0078 70685F64 		.ascii	"ph_down_stored\000"
  53      6F776E5F 
  53      73746F72 
  53      656400
  54 0087 00       		.align	2
  55              	.LC10:
  56 0088 65635F6D 		.ascii	"ec_measured\000"
  56      65617375 
  56      72656400 
  57              		.align	2
  58              	.LC11:
  59 0094 65635F73 		.ascii	"ec_stored\000"
  59      746F7265 
  59      6400
  60 009e 0000     		.align	2
  61              	.LC12:
  62 00a0 74656D70 		.ascii	"temp_measured\000"
  62      5F6D6561 
  62      73757265 
  62      6400
  63 00ae 0000     		.align	2
  64              	.LC13:
  65 00b0 666C6F77 		.ascii	"flow_measured\000"
  65      5F6D6561 
  65      73757265 
  65      6400
  66              		.data
  67              		.align	2
  68              		.type	pkey_const, %object
  69              		.size	pkey_const, 56
  70              	pkey_const:
  71 0000 00000000 		.word	.LC0
  72 0004 0C000000 		.word	.LC1
  73 0008 18000000 		.word	.LC2
  74 000c 24000000 		.word	.LC3
  75 0010 30000000 		.word	.LC4
  76 0014 44000000 		.word	.LC5
  77 0018 50000000 		.word	.LC6
  78 001c 5C000000 		.word	.LC7
  79 0020 68000000 		.word	.LC8
  80 0024 78000000 		.word	.LC9
ARM GAS  C:\Users\tpbw4321\AppData\Local\Temp\cck3JO3s.s 			page 3


  81 0028 88000000 		.word	.LC10
  82 002c 94000000 		.word	.LC11
  83 0030 A0000000 		.word	.LC12
  84 0034 B0000000 		.word	.LC13
  85              		.comm	sd,368,8
  86              		.section	.rodata
  87 00be 0000     		.align	2
  88              	.LC14:
  89 00c0 48796472 		.ascii	"Hydroponic Automation\015\000"
  89      6F706F6E 
  89      69632041 
  89      75746F6D 
  89      6174696F 
  90              		.global	__aeabi_f2d
  91              		.global	__aeabi_ui2d
  92              		.section	.text.main,"ax",%progbits
  93              		.align	2
  94              		.global	main
  95              		.thumb
  96              		.thumb_func
  97              		.type	main, %function
  98              	main:
  99              	.LFB64:
 100              		.file 1 "main.c"
   1:main.c        **** /* ========================================
   2:main.c        ****  *
   3:main.c        ****  * Copyright YOUR COMPANY, THE YEAR
   4:main.c        ****  * All Rights Reserved
   5:main.c        ****  * UNPUBLISHED, LICENSED SOFTWARE.
   6:main.c        ****  *
   7:main.c        ****  * CONFIDENTIAL AND PROPRIETARY INFORMATION
   8:main.c        ****  * WHICH IS THE PROPERTY OF your company.
   9:main.c        ****  *
  10:main.c        ****  * ========================================
  11:main.c        **** */
  12:main.c        **** //#define MODULE_TEST
  13:main.c        ****     
  14:main.c        **** #include "project.h"
  15:main.c        **** #include <stdio.h>
  16:main.c        **** #include <stdlib.h>
  17:main.c        **** #include "FlowSense.h"
  18:main.c        **** #include "SerialCom.h"
  19:main.c        **** #include "Protocol.h"
  20:main.c        **** #include "pHSense.h"
  21:main.c        **** #include "PingSensor.h"
  22:main.c        **** #include "SensorComTx.h"
  23:main.c        **** #include "sensor_data.h"
  24:main.c        **** #include "ECSense.h"
  25:main.c        **** #include "SenseSwitch.h"
  26:main.c        **** 
  27:main.c        **** #define FLOW_REF 2.0
  28:main.c        **** #define PH_REF 4.5
  29:main.c        **** 
  30:main.c        **** #ifndef MODULE_TEST   
  31:main.c        **** 
  32:main.c        **** struct SensorData sd;
  33:main.c        ****     
ARM GAS  C:\Users\tpbw4321\AppData\Local\Temp\cck3JO3s.s 			page 4


  34:main.c        **** int main(void)
  35:main.c        **** {
 101              		.loc 1 35 0
 102              		.cfi_startproc
 103              		@ args = 0, pretend = 0, frame = 72
 104              		@ frame_needed = 1, uses_anonymous_args = 0
 105 0000 90B5     		push	{r4, r7, lr}
 106              		.cfi_def_cfa_offset 12
 107              		.cfi_offset 4, -12
 108              		.cfi_offset 7, -8
 109              		.cfi_offset 14, -4
 110 0002 93B0     		sub	sp, sp, #76
 111              		.cfi_def_cfa_offset 88
 112 0004 00AF     		add	r7, sp, #0
 113              		.cfi_def_cfa_register 7
  36:main.c        ****     CyGlobalIntEnable; /* Enable global interrupts. */
 114              		.loc 1 36 0
 115              		.syntax unified
 116              	@ 36 "main.c" 1
 117 0006 62B6     		CPSIE   i
 118              	@ 0 "" 2
  37:main.c        ****     char buffer[64];
  38:main.c        ****     
  39:main.c        ****   
  40:main.c        ****     FlowSense_Init();
 119              		.loc 1 40 0
 120              		.thumb
 121              		.syntax unified
 122 0008 FFF7FEFF 		bl	FlowSense_Init
  41:main.c        ****     SerialCom_Init();
 123              		.loc 1 41 0
 124 000c FFF7FEFF 		bl	SerialCom_Init
  42:main.c        ****     PingSensor_Init();
 125              		.loc 1 42 0
 126 0010 FFF7FEFF 		bl	PingSensor_Init
  43:main.c        ****     ECSense_Init();
 127              		.loc 1 43 0
 128 0014 FFF7FEFF 		bl	ECSense_Init
  44:main.c        **** 
  45:main.c        ****     
  46:main.c        ****     //Sensor Transmit
  47:main.c        ****     SensorComTx_Init();
 129              		.loc 1 47 0
 130 0018 FFF7FEFF 		bl	SensorComTx_Init
  48:main.c        ****     pHSense_Init();
 131              		.loc 1 48 0
 132 001c FFF7FEFF 		bl	pHSense_Init
  49:main.c        ****     sensor_data_init(&sd);
 133              		.loc 1 49 0
 134 0020 3B48     		ldr	r0, .L3
 135 0022 FFF7FEFF 		bl	sensor_data_init
  50:main.c        ****     SenseSwitch_Init();
 136              		.loc 1 50 0
 137 0026 FFF7FEFF 		bl	SenseSwitch_Init
  51:main.c        ****     
  52:main.c        ****     
  53:main.c        ****     
ARM GAS  C:\Users\tpbw4321\AppData\Local\Temp\cck3JO3s.s 			page 5


  54:main.c        ****     printf("Hydroponic Automation\r\n");
 138              		.loc 1 54 0
 139 002a 3A48     		ldr	r0, .L3+4
 140 002c FFF7FEFF 		bl	puts
 141              	.L2:
  55:main.c        ****     message_t target;
  56:main.c        ****     
  57:main.c        ****     /* Place your initialization/startup code here (e.g. MyInst_Start()) */
  58:main.c        ****     for(;;)
  59:main.c        ****     {
  60:main.c        ****         //Update Sensor Readings
  61:main.c        ****         sd.h2o_level = PingSensor_GetWaterLevel();
 142              		.loc 1 61 0 discriminator 1
 143 0030 FFF7FEFF 		bl	PingSensor_GetWaterLevel
 144 0034 0346     		mov	r3, r0
 145 0036 0C46     		mov	r4, r1
 146 0038 354A     		ldr	r2, .L3
 147 003a C2E90034 		strd	r3, [r2]
  62:main.c        ****         sd.h2o_stored = PingSensor_GetWaterResLevel();
 148              		.loc 1 62 0 discriminator 1
 149 003e FFF7FEFF 		bl	PingSensor_GetWaterResLevel
 150 0042 0346     		mov	r3, r0
 151 0044 0C46     		mov	r4, r1
 152 0046 324A     		ldr	r2, .L3
 153 0048 C2E90234 		strd	r3, [r2, #8]
  63:main.c        ****         sd.ph_level = pHSense_GetpH();
 154              		.loc 1 63 0 discriminator 1
 155 004c FFF7FEFF 		bl	pHSense_GetpH
 156 0050 0346     		mov	r3, r0
 157 0052 1846     		mov	r0, r3
 158 0054 FFF7FEFF 		bl	__aeabi_f2d
 159 0058 0346     		mov	r3, r0
 160 005a 0C46     		mov	r4, r1
 161 005c 2C4A     		ldr	r2, .L3
 162 005e C2E90434 		strd	r3, [r2, #16]
  64:main.c        ****         sd.ph_up_stored = PingSensor_GetpHUpLevel();
 163              		.loc 1 64 0 discriminator 1
 164 0062 FFF7FEFF 		bl	PingSensor_GetpHUpLevel
 165 0066 0346     		mov	r3, r0
 166 0068 0C46     		mov	r4, r1
 167 006a 294A     		ldr	r2, .L3
 168 006c C2E90634 		strd	r3, [r2, #24]
  65:main.c        ****         sd.ph_down_stored = PingSensor_GetpHDownLevel();
 169              		.loc 1 65 0 discriminator 1
 170 0070 FFF7FEFF 		bl	PingSensor_GetpHDownLevel
 171 0074 0346     		mov	r3, r0
 172 0076 0C46     		mov	r4, r1
 173 0078 254A     		ldr	r2, .L3
 174 007a C2E90834 		strd	r3, [r2, #32]
  66:main.c        ****         sd.ec_level = ECSense_GetEC();
 175              		.loc 1 66 0 discriminator 1
 176 007e FFF7FEFF 		bl	ECSense_GetEC
 177 0082 0346     		mov	r3, r0
 178 0084 1846     		mov	r0, r3
 179 0086 FFF7FEFF 		bl	__aeabi_ui2d
 180 008a 0346     		mov	r3, r0
 181 008c 0C46     		mov	r4, r1
ARM GAS  C:\Users\tpbw4321\AppData\Local\Temp\cck3JO3s.s 			page 6


 182 008e 204A     		ldr	r2, .L3
 183 0090 C2E90A34 		strd	r3, [r2, #40]
  67:main.c        ****         sd.ec_stored = PingSensor_GetNutLevel();
 184              		.loc 1 67 0 discriminator 1
 185 0094 FFF7FEFF 		bl	PingSensor_GetNutLevel
 186 0098 0346     		mov	r3, r0
 187 009a 0C46     		mov	r4, r1
 188 009c 1C4A     		ldr	r2, .L3
 189 009e C2E90C34 		strd	r3, [r2, #48]
  68:main.c        ****         sd.temp_measured = 0;
 190              		.loc 1 68 0 discriminator 1
 191 00a2 1B4A     		ldr	r2, .L3
 192 00a4 4FF00003 		mov	r3, #0
 193 00a8 4FF00004 		mov	r4, #0
 194 00ac C2E90E34 		strd	r3, [r2, #56]
  69:main.c        ****         sd.flow_measured = FlowSense_GetFlowRate();
 195              		.loc 1 69 0 discriminator 1
 196 00b0 FFF7FEFF 		bl	FlowSense_GetFlowRate
 197 00b4 0346     		mov	r3, r0
 198 00b6 1846     		mov	r0, r3
 199 00b8 FFF7FEFF 		bl	__aeabi_f2d
 200 00bc 0346     		mov	r3, r0
 201 00be 0C46     		mov	r4, r1
 202 00c0 134A     		ldr	r2, .L3
 203 00c2 C2E91034 		strd	r3, [r2, #64]
  70:main.c        ****         
  71:main.c        ****         //Set Targets
  72:main.c        ****         sd.flow_target = 0;
 204              		.loc 1 72 0 discriminator 1
 205 00c6 124A     		ldr	r2, .L3
 206 00c8 4FF00003 		mov	r3, #0
 207 00cc 4FF00004 		mov	r4, #0
 208 00d0 C2E91234 		strd	r3, [r2, #72]
  73:main.c        ****         sd.ph_target = 0;
 209              		.loc 1 73 0 discriminator 1
 210 00d4 0E4A     		ldr	r2, .L3
 211 00d6 4FF00003 		mov	r3, #0
 212 00da 4FF00004 		mov	r4, #0
 213 00de C2E91434 		strd	r3, [r2, #80]
  74:main.c        ****         sd.ec_target = 0;
 214              		.loc 1 74 0 discriminator 1
 215 00e2 0B4A     		ldr	r2, .L3
 216 00e4 4FF00003 		mov	r3, #0
 217 00e8 4FF00004 		mov	r4, #0
 218 00ec C2E91634 		strd	r3, [r2, #88]
  75:main.c        ****         sd.h2o_target = 0;
 219              		.loc 1 75 0 discriminator 1
 220 00f0 074A     		ldr	r2, .L3
 221 00f2 4FF00003 		mov	r3, #0
 222 00f6 4FF00004 		mov	r4, #0
 223 00fa C2E91834 		strd	r3, [r2, #96]
  76:main.c        ****         sd.temp_target = 0;   
 224              		.loc 1 76 0 discriminator 1
 225 00fe 044A     		ldr	r2, .L3
 226 0100 4FF00003 		mov	r3, #0
 227 0104 4FF00004 		mov	r4, #0
 228 0108 C2E91A34 		strd	r3, [r2, #104]
ARM GAS  C:\Users\tpbw4321\AppData\Local\Temp\cck3JO3s.s 			page 7


  77:main.c        ****             
  78:main.c        **** //        if(SensorComTx_isReady()){
  79:main.c        **** //            //Update Sensor Readings
  80:main.c        **** //            sd.h2o_level = PingSensor_GetWaterLevel();
  81:main.c        **** //            sd.h2o_stored = PingSensor_GetWaterResLevel();
  82:main.c        **** //            sd.ph_level = pHSense_GetpH();
  83:main.c        **** //            sd.ph_up_stored = PingSensor_GetpHUpLevel();
  84:main.c        **** //            sd.ph_down_stored = PingSensor_GetpHDownLevel();
  85:main.c        **** //            sd.ec_level = ECSense_GetEC();
  86:main.c        **** //            sd.ec_stored = PingSensor_GetNutLevel();
  87:main.c        **** //            sd.temp_measured = 0;
  88:main.c        **** //            sd.flow_measured = FlowSense_GetFlowRate();
  89:main.c        **** //            
  90:main.c        **** //            //Set Targets
  91:main.c        **** //            sd.flow_target = 0;
  92:main.c        **** //            sd.ph_target = 0;
  93:main.c        **** //            sd.ec_target = 0;
  94:main.c        **** //            sd.h2o_target = 0;
  95:main.c        **** //            sd.temp_target = 0;   
  96:main.c        **** //            
  97:main.c        **** //            SensorComTx_EncodeMessage(sd,buffer);
  98:main.c        **** //            SensorComTx_SendMessage(buffer);
  99:main.c        **** //        }
 100:main.c        ****     }
 229              		.loc 1 100 0 discriminator 1
 230 010c 90E7     		b	.L2
 231              	.L4:
 232 010e 00BF     		.align	2
 233              	.L3:
 234 0110 00000000 		.word	sd
 235 0114 C0000000 		.word	.LC14
 236              		.cfi_endproc
 237              	.LFE64:
 238              		.size	main, .-main
 239              		.text
 240              	.Letext0:
 241              		.file 2 "c:\\program files (x86)\\cypress\\psoc creator\\4.2\\psoc creator\\import\\gnu\\arm\\5.4.
 242              		.file 3 "c:\\program files (x86)\\cypress\\psoc creator\\4.2\\psoc creator\\import\\gnu\\arm\\5.4.
 243              		.file 4 ".\\include/Protocol.h"
 244              		.file 5 ".\\include/sensor_data.h"
 245              		.file 6 "Generated_Source\\PSoC5/core_cm3.h"