ARM GAS  C:\Users\tpbw4321\AppData\Local\Temp\ccQrxvJF.s 			page 1


   1              		.syntax unified
   2              		.cpu cortex-m3
   3              		.fpu softvfp
   4              		.eabi_attribute 20, 1
   5              		.eabi_attribute 21, 1
   6              		.eabi_attribute 23, 3
   7              		.eabi_attribute 24, 1
   8              		.eabi_attribute 25, 1
   9              		.eabi_attribute 26, 1
  10              		.eabi_attribute 30, 6
  11              		.eabi_attribute 34, 1
  12              		.eabi_attribute 18, 4
  13              		.thumb
  14              		.syntax unified
  15              		.file	"pHSense.c"
  16              		.text
  17              	.Ltext0:
  18              		.cfi_sections	.debug_frame
  19              		.data
  20              		.align	2
  21              		.type	pHRef, %object
  22              		.size	pHRef, 4
  23              	pHRef:
  24 0000 00009040 		.word	1083179008
  25              		.bss
  26              		.align	2
  27              	pH:
  28 0000 00000000 		.space	4
  29              		.align	1
  30              	phRaw:
  31 0004 0000     		.space	2
  32 0006 0000     		.align	2
  33              	phHistory:
  34 0008 00000000 		.space	2048
  34      00000000 
  34      00000000 
  34      00000000 
  34      00000000 
  35              		.align	2
  36              	sum:
  37 0808 00000000 		.space	4
  38              		.global	__aeabi_f2uiz
  39              		.global	__aeabi_i2d
  40              		.global	__aeabi_dmul
  41              		.global	__aeabi_dadd
  42              		.global	__aeabi_d2f
  43              		.section	.text.pHSampleTimerISRHandler,"ax",%progbits
  44              		.align	2
  45              		.global	pHSampleTimerISRHandler
  46              		.thumb
  47              		.thumb_func
  48              		.type	pHSampleTimerISRHandler, %function
  49              	pHSampleTimerISRHandler:
  50              	.LFB64:
  51              		.file 1 "src\\pHSense.c"
   1:src/pHSense.c **** /* ========================================
   2:src/pHSense.c ****  *
ARM GAS  C:\Users\tpbw4321\AppData\Local\Temp\ccQrxvJF.s 			page 2


   3:src/pHSense.c ****  * Copyright YOUR COMPANY, THE YEAR
   4:src/pHSense.c ****  * All Rights Reserved
   5:src/pHSense.c ****  * UNPUBLISHED, LICENSED SOFTWARE.
   6:src/pHSense.c ****  *
   7:src/pHSense.c ****  * CONFIDENTIAL AND PROPRIETARY INFORMATION
   8:src/pHSense.c ****  * WHICH IS THE PROPERTY OF your company.
   9:src/pHSense.c ****  *
  10:src/pHSense.c ****  * ========================================
  11:src/pHSense.c **** */
  12:src/pHSense.c **** #include "pHSense.h"
  13:src/pHSense.c **** #include "project.h"
  14:src/pHSense.c **** #include <stdio.h>
  15:src/pHSense.c **** #include <stdlib.h>
  16:src/pHSense.c **** #include <math.h>
  17:src/pHSense.c **** 
  18:src/pHSense.c **** #define PH_MAX_REF 10
  19:src/pHSense.c **** #define PH_MIN_REF 2
  20:src/pHSense.c **** #define PH_DEFAULT_REF 5
  21:src/pHSense.c **** #define PWM_MAX 255.0
  22:src/pHSense.c **** #define DROP_TIME 200
  23:src/pHSense.c **** #define UP 0
  24:src/pHSense.c **** #define DOWN 1
  25:src/pHSense.c **** #define A0 -4.40E-3
  26:src/pHSense.c **** #define A1 13.22
  27:src/pHSense.c **** #define UP_PUMP_DROP_PERIOD 200
  28:src/pHSense.c **** #define DOWN_PUMP_DROP_PERIOD 200
  29:src/pHSense.c **** #define UP_PUMP_DROP_CMP 127
  30:src/pHSense.c **** #define DOWN_PUMP_DROP_CMP 100
  31:src/pHSense.c **** #define MARGIN 0.05
  32:src/pHSense.c **** 
  33:src/pHSense.c **** #define FALSE 0
  34:src/pHSense.c **** #define TRUE 1
  35:src/pHSense.c **** 
  36:src/pHSense.c **** #define PH_UPPERBOUND pHRef*MARGIN
  37:src/pHSense.c **** #define PH_LOWERBOUND -pHRef*MARGIN
  38:src/pHSense.c **** 
  39:src/pHSense.c **** #define HIST_CNT 1024
  40:src/pHSense.c **** #define SHIFT_CNT 10
  41:src/pHSense.c **** 
  42:src/pHSense.c **** static float pHRef = 4.5;
  43:src/pHSense.c **** static float pH = 0;
  44:src/pHSense.c **** static uint16_t phRaw = 0;
  45:src/pHSense.c **** static uint16_t phHistory[HIST_CNT] = {0};
  46:src/pHSense.c **** static uint32_t sum = 0;
  47:src/pHSense.c **** 
  48:src/pHSense.c **** 
  49:src/pHSense.c **** /**
  50:src/pHSense.c ****  * @function pHSampleTimerISRHandler(void)
  51:src/pHSense.c ****  * @param None
  52:src/pHSense.c ****  * @return void
  53:src/pHSense.c ****  * @brief pH Controller ISR. Takes reading of flow meter every milisecond.
  54:src/pHSense.c ****  *        Readings are averaged accrossed 1024 data points.
  55:src/pHSense.c ****  * @author Barron Wong 01/25/19
  56:src/pHSense.c ****  */
  57:src/pHSense.c **** CY_ISR(pHSampleTimerISRHandler){
  52              		.loc 1 57 0
  53              		.cfi_startproc
ARM GAS  C:\Users\tpbw4321\AppData\Local\Temp\ccQrxvJF.s 			page 3


  54              		@ args = 0, pretend = 0, frame = 8
  55              		@ frame_needed = 1, uses_anonymous_args = 0
  56 0000 90B5     		push	{r4, r7, lr}
  57              		.cfi_def_cfa_offset 12
  58              		.cfi_offset 4, -12
  59              		.cfi_offset 7, -8
  60              		.cfi_offset 14, -4
  61 0002 83B0     		sub	sp, sp, #12
  62              		.cfi_def_cfa_offset 24
  63 0004 00AF     		add	r7, sp, #0
  64              		.cfi_def_cfa_register 7
  58:src/pHSense.c ****     
  59:src/pHSense.c ****     uint16_t pHADCSample;
  60:src/pHSense.c ****     
  61:src/pHSense.c ****     static uint16_t index;
  62:src/pHSense.c ****     
  63:src/pHSense.c ****     pHADCSample = pHSense_ReadSensor();
  65              		.loc 1 63 0
  66 0006 FFF7FEFF 		bl	pHSense_ReadSensor
  67 000a 0346     		mov	r3, r0
  68 000c 1846     		mov	r0, r3
  69 000e FFF7FEFF 		bl	__aeabi_f2uiz
  70 0012 0346     		mov	r3, r0
  71 0014 FB80     		strh	r3, [r7, #6]	@ movhi
  64:src/pHSense.c ****     pHSampleTimer_Start();
  72              		.loc 1 64 0
  73 0016 FFF7FEFF 		bl	pHSampleTimer_Start
  65:src/pHSense.c ****     
  66:src/pHSense.c ****     //Removed Average stability issues
  67:src/pHSense.c ****     //Subtract oldest value
  68:src/pHSense.c ****     sum -= phHistory[index]; 
  74              		.loc 1 68 0
  75 001a 2D4B     		ldr	r3, .L3+16
  76 001c 1B68     		ldr	r3, [r3]
  77 001e 2D4A     		ldr	r2, .L3+20
  78 0020 1288     		ldrh	r2, [r2]
  79 0022 1146     		mov	r1, r2
  80 0024 2C4A     		ldr	r2, .L3+24
  81 0026 32F81120 		ldrh	r2, [r2, r1, lsl #1]
  82 002a 9B1A     		subs	r3, r3, r2
  83 002c 284A     		ldr	r2, .L3+16
  84 002e 1360     		str	r3, [r2]
  69:src/pHSense.c ****     phHistory[index] = pHADCSample;
  85              		.loc 1 69 0
  86 0030 284B     		ldr	r3, .L3+20
  87 0032 1B88     		ldrh	r3, [r3]
  88 0034 1946     		mov	r1, r3
  89 0036 284A     		ldr	r2, .L3+24
  90 0038 FB88     		ldrh	r3, [r7, #6]	@ movhi
  91 003a 22F81130 		strh	r3, [r2, r1, lsl #1]	@ movhi
  70:src/pHSense.c ****     //Add newest value
  71:src/pHSense.c ****     sum += pHADCSample;
  92              		.loc 1 71 0
  93 003e FA88     		ldrh	r2, [r7, #6]
  94 0040 234B     		ldr	r3, .L3+16
  95 0042 1B68     		ldr	r3, [r3]
  96 0044 1344     		add	r3, r3, r2
ARM GAS  C:\Users\tpbw4321\AppData\Local\Temp\ccQrxvJF.s 			page 4


  97 0046 224A     		ldr	r2, .L3+16
  98 0048 1360     		str	r3, [r2]
  72:src/pHSense.c ****     //Increment Index
  73:src/pHSense.c ****     index = (index + 1) % (HIST_CNT);
  99              		.loc 1 73 0
 100 004a 224B     		ldr	r3, .L3+20
 101 004c 1B88     		ldrh	r3, [r3]
 102 004e 5A1C     		adds	r2, r3, #1
 103 0050 224B     		ldr	r3, .L3+28
 104 0052 1340     		ands	r3, r3, r2
 105 0054 002B     		cmp	r3, #0
 106 0056 05DA     		bge	.L2
 107 0058 013B     		subs	r3, r3, #1
 108 005a 6FEA8353 		mvn	r3, r3, lsl #22
 109 005e 6FEA9353 		mvn	r3, r3, lsr #22
 110 0062 0133     		adds	r3, r3, #1
 111              	.L2:
 112 0064 9AB2     		uxth	r2, r3
 113 0066 1B4B     		ldr	r3, .L3+20
 114 0068 1A80     		strh	r2, [r3]	@ movhi
  74:src/pHSense.c ****     
  75:src/pHSense.c ****     phRaw = sum>>SHIFT_CNT;
 115              		.loc 1 75 0
 116 006a 194B     		ldr	r3, .L3+16
 117 006c 1B68     		ldr	r3, [r3]
 118 006e 9B0A     		lsrs	r3, r3, #10
 119 0070 9AB2     		uxth	r2, r3
 120 0072 1B4B     		ldr	r3, .L3+32
 121 0074 1A80     		strh	r2, [r3]	@ movhi
  76:src/pHSense.c ****     pH = A0*phRaw + A1;
 122              		.loc 1 76 0
 123 0076 1A4B     		ldr	r3, .L3+32
 124 0078 1B88     		ldrh	r3, [r3]
 125 007a 1846     		mov	r0, r3
 126 007c FFF7FEFF 		bl	__aeabi_i2d
 127 0080 0FA3     		adr	r3, .L3
 128 0082 D3E90023 		ldrd	r2, [r3]
 129 0086 FFF7FEFF 		bl	__aeabi_dmul
 130 008a 0346     		mov	r3, r0
 131 008c 0C46     		mov	r4, r1
 132 008e 1846     		mov	r0, r3
 133 0090 2146     		mov	r1, r4
 134 0092 0DA3     		adr	r3, .L3+8
 135 0094 D3E90023 		ldrd	r2, [r3]
 136 0098 FFF7FEFF 		bl	__aeabi_dadd
 137 009c 0346     		mov	r3, r0
 138 009e 0C46     		mov	r4, r1
 139 00a0 1846     		mov	r0, r3
 140 00a2 2146     		mov	r1, r4
 141 00a4 FFF7FEFF 		bl	__aeabi_d2f
 142 00a8 0246     		mov	r2, r0
 143 00aa 0E4B     		ldr	r3, .L3+36
 144 00ac 1A60     		str	r2, [r3]	@ float
  77:src/pHSense.c ****     
  78:src/pHSense.c ****     pHSampleTimerISR_ClearPending();
 145              		.loc 1 78 0
 146 00ae FFF7FEFF 		bl	pHSampleTimerISR_ClearPending
ARM GAS  C:\Users\tpbw4321\AppData\Local\Temp\ccQrxvJF.s 			page 5


  79:src/pHSense.c ****     
  80:src/pHSense.c **** }
 147              		.loc 1 80 0
 148 00b2 00BF     		nop
 149 00b4 0C37     		adds	r7, r7, #12
 150              		.cfi_def_cfa_offset 12
 151 00b6 BD46     		mov	sp, r7
 152              		.cfi_def_cfa_register 13
 153              		@ sp needed
 154 00b8 90BD     		pop	{r4, r7, pc}
 155              	.L4:
 156 00ba 00BFAFF3 		.align	3
 156      0080
 157              	.L3:
 158 00c0 2F6EA301 		.word	27487791
 159 00c4 BC0572BF 		.word	-1083046468
 160 00c8 713D0AD7 		.word	-687194767
 161 00cc A3702A40 		.word	1076523171
 162 00d0 08080000 		.word	sum
 163 00d4 0C080000 		.word	index.8539
 164 00d8 08000000 		.word	phHistory
 165 00dc FF030080 		.word	-2147482625
 166 00e0 04000000 		.word	phRaw
 167 00e4 00000000 		.word	pH
 168              		.cfi_endproc
 169              	.LFE64:
 170              		.size	pHSampleTimerISRHandler, .-pHSampleTimerISRHandler
 171              		.section	.text.pHSense_Init,"ax",%progbits
 172              		.align	2
 173              		.global	pHSense_Init
 174              		.thumb
 175              		.thumb_func
 176              		.type	pHSense_Init, %function
 177              	pHSense_Init:
 178              	.LFB65:
  81:src/pHSense.c **** /**
  82:src/pHSense.c ****  * @function pHSense_Init(void)
  83:src/pHSense.c ****  * @param None
  84:src/pHSense.c ****  * @return None
  85:src/pHSense.c ****  * @brief Initializes hardware components necessary for pH Control.
  86:src/pHSense.c ****  *        Sets default reference to 5
  87:src/pHSense.c ****  * @author Barron Wong 01/25/19
  88:src/pHSense.c **** */
  89:src/pHSense.c **** void pHSense_Init(void){
 179              		.loc 1 89 0
 180              		.cfi_startproc
 181              		@ args = 0, pretend = 0, frame = 0
 182              		@ frame_needed = 1, uses_anonymous_args = 0
 183 0000 80B5     		push	{r7, lr}
 184              		.cfi_def_cfa_offset 8
 185              		.cfi_offset 7, -8
 186              		.cfi_offset 14, -4
 187 0002 00AF     		add	r7, sp, #0
 188              		.cfi_def_cfa_register 7
  90:src/pHSense.c ****     
  91:src/pHSense.c ****     pHADC_Start();
 189              		.loc 1 91 0
ARM GAS  C:\Users\tpbw4321\AppData\Local\Temp\ccQrxvJF.s 			page 6


 190 0004 FFF7FEFF 		bl	pHADC_Start
  92:src/pHSense.c ****     pHSampleTimer_Start();
 191              		.loc 1 92 0
 192 0008 FFF7FEFF 		bl	pHSampleTimer_Start
  93:src/pHSense.c ****     
  94:src/pHSense.c ****     //ISR Setup
  95:src/pHSense.c ****     pHSampleTimerISR_StartEx(pHSampleTimerISRHandler);
 193              		.loc 1 95 0
 194 000c 0248     		ldr	r0, .L6
 195 000e FFF7FEFF 		bl	pHSampleTimerISR_StartEx
  96:src/pHSense.c **** }
 196              		.loc 1 96 0
 197 0012 00BF     		nop
 198 0014 80BD     		pop	{r7, pc}
 199              	.L7:
 200 0016 00BF     		.align	2
 201              	.L6:
 202 0018 00000000 		.word	pHSampleTimerISRHandler
 203              		.cfi_endproc
 204              	.LFE65:
 205              		.size	pHSense_Init, .-pHSense_Init
 206              		.global	__aeabi_ui2f
 207              		.section	.text.pHSense_ReadSensor,"ax",%progbits
 208              		.align	2
 209              		.global	pHSense_ReadSensor
 210              		.thumb
 211              		.thumb_func
 212              		.type	pHSense_ReadSensor, %function
 213              	pHSense_ReadSensor:
 214              	.LFB66:
  97:src/pHSense.c **** 
  98:src/pHSense.c **** 
  99:src/pHSense.c **** /**
 100:src/pHSense.c ****  * @function pHSense_ReadSensor(void)
 101:src/pHSense.c ****  * @param  None
 102:src/pHSense.c ****  * @return pH Sensor reading
 103:src/pHSense.c ****  * @brief  Readings are in ADC values; 
 104:src/pHSense.c ****  * @author Barron Wong 01/25/19
 105:src/pHSense.c **** */
 106:src/pHSense.c **** float pHSense_ReadSensor(void){
 215              		.loc 1 106 0
 216              		.cfi_startproc
 217              		@ args = 0, pretend = 0, frame = 8
 218              		@ frame_needed = 1, uses_anonymous_args = 0
 219 0000 80B5     		push	{r7, lr}
 220              		.cfi_def_cfa_offset 8
 221              		.cfi_offset 7, -8
 222              		.cfi_offset 14, -4
 223 0002 82B0     		sub	sp, sp, #8
 224              		.cfi_def_cfa_offset 16
 225 0004 00AF     		add	r7, sp, #0
 226              		.cfi_def_cfa_register 7
 107:src/pHSense.c ****     uint16_t result;
 108:src/pHSense.c ****     
 109:src/pHSense.c ****     pHADC_StartConvert();
 227              		.loc 1 109 0
 228 0006 FFF7FEFF 		bl	pHADC_StartConvert
ARM GAS  C:\Users\tpbw4321\AppData\Local\Temp\ccQrxvJF.s 			page 7


 110:src/pHSense.c ****     pHADC_IsEndConversion(pHADC_WAIT_FOR_RESULT);
 229              		.loc 1 110 0
 230 000a 0020     		movs	r0, #0
 231 000c FFF7FEFF 		bl	pHADC_IsEndConversion
 111:src/pHSense.c ****     result = pHADC_GetResult16();
 232              		.loc 1 111 0
 233 0010 FFF7FEFF 		bl	pHADC_GetResult16
 234 0014 0346     		mov	r3, r0
 235 0016 FB80     		strh	r3, [r7, #6]	@ movhi
 112:src/pHSense.c **** 
 113:src/pHSense.c ****     return result;
 236              		.loc 1 113 0
 237 0018 FB88     		ldrh	r3, [r7, #6]
 238 001a 1846     		mov	r0, r3
 239 001c FFF7FEFF 		bl	__aeabi_ui2f
 240 0020 0346     		mov	r3, r0
 114:src/pHSense.c **** }
 241              		.loc 1 114 0
 242 0022 1846     		mov	r0, r3
 243 0024 0837     		adds	r7, r7, #8
 244              		.cfi_def_cfa_offset 8
 245 0026 BD46     		mov	sp, r7
 246              		.cfi_def_cfa_register 13
 247              		@ sp needed
 248 0028 80BD     		pop	{r7, pc}
 249              		.cfi_endproc
 250              	.LFE66:
 251              		.size	pHSense_ReadSensor, .-pHSense_ReadSensor
 252 002a 00BF     		.section	.text.pHSense_GetpH,"ax",%progbits
 253              		.align	2
 254              		.global	pHSense_GetpH
 255              		.thumb
 256              		.thumb_func
 257              		.type	pHSense_GetpH, %function
 258              	pHSense_GetpH:
 259              	.LFB67:
 115:src/pHSense.c **** 
 116:src/pHSense.c **** /**
 117:src/pHSense.c ****  * @function pHSense_GetpH(void)
 118:src/pHSense.c ****  * @param  Nonw
 119:src/pHSense.c ****  * @return pH level
 120:src/pHSense.c ****  * @brief Returns the current pH level
 121:src/pHSense.c ****  * @author Barron Wong 02/19/19
 122:src/pHSense.c **** */
 123:src/pHSense.c **** float pHSense_GetpH(void){
 260              		.loc 1 123 0
 261              		.cfi_startproc
 262              		@ args = 0, pretend = 0, frame = 0
 263              		@ frame_needed = 1, uses_anonymous_args = 0
 264              		@ link register save eliminated.
 265 0000 80B4     		push	{r7}
 266              		.cfi_def_cfa_offset 4
 267              		.cfi_offset 7, -4
 268 0002 00AF     		add	r7, sp, #0
 269              		.cfi_def_cfa_register 7
 124:src/pHSense.c ****     return pH;
 270              		.loc 1 124 0
ARM GAS  C:\Users\tpbw4321\AppData\Local\Temp\ccQrxvJF.s 			page 8


 271 0004 024B     		ldr	r3, .L12
 272 0006 1B68     		ldr	r3, [r3]	@ float
 125:src/pHSense.c **** }
 273              		.loc 1 125 0
 274 0008 1846     		mov	r0, r3
 275 000a BD46     		mov	sp, r7
 276              		.cfi_def_cfa_register 13
 277              		@ sp needed
 278 000c 80BC     		pop	{r7}
 279              		.cfi_restore 7
 280              		.cfi_def_cfa_offset 0
 281 000e 7047     		bx	lr
 282              	.L13:
 283              		.align	2
 284              	.L12:
 285 0010 00000000 		.word	pH
 286              		.cfi_endproc
 287              	.LFE67:
 288              		.size	pHSense_GetpH, .-pHSense_GetpH
 289              		.section	.text.pHSense_TurnOff,"ax",%progbits
 290              		.align	2
 291              		.global	pHSense_TurnOff
 292              		.thumb
 293              		.thumb_func
 294              		.type	pHSense_TurnOff, %function
 295              	pHSense_TurnOff:
 296              	.LFB68:
 126:src/pHSense.c **** /**
 127:src/pHSense.c ****  * @function pHSense_TurnOff(void)
 128:src/pHSense.c ****  * @param None
 129:src/pHSense.c ****  * @return None
 130:src/pHSense.c ****  * @brief Disables updating for pH
 131:src/pHSense.c ****  * @author Barron Wong 05/21/19
 132:src/pHSense.c **** */
 133:src/pHSense.c **** void pHSense_TurnOff(void){
 297              		.loc 1 133 0
 298              		.cfi_startproc
 299              		@ args = 0, pretend = 0, frame = 0
 300              		@ frame_needed = 1, uses_anonymous_args = 0
 301 0000 80B5     		push	{r7, lr}
 302              		.cfi_def_cfa_offset 8
 303              		.cfi_offset 7, -8
 304              		.cfi_offset 14, -4
 305 0002 00AF     		add	r7, sp, #0
 306              		.cfi_def_cfa_register 7
 134:src/pHSense.c ****     pHSampleTimerISR_Disable();
 307              		.loc 1 134 0
 308 0004 FFF7FEFF 		bl	pHSampleTimerISR_Disable
 135:src/pHSense.c **** }
 309              		.loc 1 135 0
 310 0008 00BF     		nop
 311 000a 80BD     		pop	{r7, pc}
 312              		.cfi_endproc
 313              	.LFE68:
 314              		.size	pHSense_TurnOff, .-pHSense_TurnOff
 315              		.section	.text.pHSense_TurnOn,"ax",%progbits
 316              		.align	2
ARM GAS  C:\Users\tpbw4321\AppData\Local\Temp\ccQrxvJF.s 			page 9


 317              		.global	pHSense_TurnOn
 318              		.thumb
 319              		.thumb_func
 320              		.type	pHSense_TurnOn, %function
 321              	pHSense_TurnOn:
 322              	.LFB69:
 136:src/pHSense.c **** 
 137:src/pHSense.c **** /**
 138:src/pHSense.c ****  * @function pHSense_TurnOn(void)
 139:src/pHSense.c ****  * @param None
 140:src/pHSense.c ****  * @return None
 141:src/pHSense.c ****  * @brief Enables updating for pH
 142:src/pHSense.c ****  * @author Barron Wong 05/21/19
 143:src/pHSense.c **** */
 144:src/pHSense.c **** void pHSense_TurnOn(void){
 323              		.loc 1 144 0
 324              		.cfi_startproc
 325              		@ args = 0, pretend = 0, frame = 0
 326              		@ frame_needed = 1, uses_anonymous_args = 0
 327 0000 80B5     		push	{r7, lr}
 328              		.cfi_def_cfa_offset 8
 329              		.cfi_offset 7, -8
 330              		.cfi_offset 14, -4
 331 0002 00AF     		add	r7, sp, #0
 332              		.cfi_def_cfa_register 7
 145:src/pHSense.c ****     pHSampleTimerISR_Enable();
 333              		.loc 1 145 0
 334 0004 FFF7FEFF 		bl	pHSampleTimerISR_Enable
 146:src/pHSense.c ****     pHSampleTimer_Start();
 335              		.loc 1 146 0
 336 0008 FFF7FEFF 		bl	pHSampleTimer_Start
 147:src/pHSense.c **** }
 337              		.loc 1 147 0
 338 000c 00BF     		nop
 339 000e 80BD     		pop	{r7, pc}
 340              		.cfi_endproc
 341              	.LFE69:
 342              		.size	pHSense_TurnOn, .-pHSense_TurnOn
 343              		.bss
 344              		.align	1
 345              	index.8539:
 346 080c 0000     		.space	2
 347              		.text
 348              	.Letext0:
 349              		.file 2 "c:\\program files (x86)\\cypress\\psoc creator\\4.2\\psoc creator\\import\\gnu\\arm\\5.4.
 350              		.file 3 "c:\\program files (x86)\\cypress\\psoc creator\\4.2\\psoc creator\\import\\gnu\\arm\\5.4.
 351              		.file 4 "Generated_Source\\PSoC5/core_cm3.h"