ARM GAS  C:\Users\tpbw4321\AppData\Local\Temp\cc6BUzHo.s 			page 1


   1              		.syntax unified
   2              		.cpu cortex-m3
   3              		.fpu softvfp
   4              		.eabi_attribute 20, 1
   5              		.eabi_attribute 21, 1
   6              		.eabi_attribute 23, 3
   7              		.eabi_attribute 24, 1
   8              		.eabi_attribute 25, 1
   9              		.eabi_attribute 26, 1
  10              		.eabi_attribute 30, 6
  11              		.eabi_attribute 34, 1
  12              		.eabi_attribute 18, 4
  13              		.thumb
  14              		.syntax unified
  15              		.file	"PingSensorTrigCounter.c"
  16              		.text
  17              	.Ltext0:
  18              		.cfi_sections	.debug_frame
  19              		.global	PingSensorTrigCounter_initVar
  20              		.bss
  21              		.type	PingSensorTrigCounter_initVar, %object
  22              		.size	PingSensorTrigCounter_initVar, 1
  23              	PingSensorTrigCounter_initVar:
  24 0000 00       		.space	1
  25              		.section	.text.PingSensorTrigCounter_Init,"ax",%progbits
  26              		.align	2
  27              		.global	PingSensorTrigCounter_Init
  28              		.thumb
  29              		.thumb_func
  30              		.type	PingSensorTrigCounter_Init, %function
  31              	PingSensorTrigCounter_Init:
  32              	.LFB0:
  33              		.file 1 "Generated_Source\\PSoC5\\PingSensorTrigCounter.c"
   1:Generated_Source\PSoC5/PingSensorTrigCounter.c **** /*******************************************************************************
   2:Generated_Source\PSoC5/PingSensorTrigCounter.c **** * File Name: PingSensorTrigCounter.c  
   3:Generated_Source\PSoC5/PingSensorTrigCounter.c **** * Version 3.0
   4:Generated_Source\PSoC5/PingSensorTrigCounter.c **** *
   5:Generated_Source\PSoC5/PingSensorTrigCounter.c **** *  Description:
   6:Generated_Source\PSoC5/PingSensorTrigCounter.c **** *     The Counter component consists of a 8, 16, 24 or 32-bit counter with
   7:Generated_Source\PSoC5/PingSensorTrigCounter.c **** *     a selectable period between 2 and 2^Width - 1.  
   8:Generated_Source\PSoC5/PingSensorTrigCounter.c **** *
   9:Generated_Source\PSoC5/PingSensorTrigCounter.c **** *   Note:
  10:Generated_Source\PSoC5/PingSensorTrigCounter.c **** *     None
  11:Generated_Source\PSoC5/PingSensorTrigCounter.c **** *
  12:Generated_Source\PSoC5/PingSensorTrigCounter.c **** ********************************************************************************
  13:Generated_Source\PSoC5/PingSensorTrigCounter.c **** * Copyright 2008-2012, Cypress Semiconductor Corporation.  All rights reserved.
  14:Generated_Source\PSoC5/PingSensorTrigCounter.c **** * You may use this file only in accordance with the license, terms, conditions, 
  15:Generated_Source\PSoC5/PingSensorTrigCounter.c **** * disclaimers, and limitations in the end user license agreement accompanying 
  16:Generated_Source\PSoC5/PingSensorTrigCounter.c **** * the software package with which this file was provided.
  17:Generated_Source\PSoC5/PingSensorTrigCounter.c **** *******************************************************************************/
  18:Generated_Source\PSoC5/PingSensorTrigCounter.c **** 
  19:Generated_Source\PSoC5/PingSensorTrigCounter.c **** #include "PingSensorTrigCounter.h"
  20:Generated_Source\PSoC5/PingSensorTrigCounter.c **** 
  21:Generated_Source\PSoC5/PingSensorTrigCounter.c **** uint8 PingSensorTrigCounter_initVar = 0u;
  22:Generated_Source\PSoC5/PingSensorTrigCounter.c **** 
  23:Generated_Source\PSoC5/PingSensorTrigCounter.c **** 
  24:Generated_Source\PSoC5/PingSensorTrigCounter.c **** /*******************************************************************************
ARM GAS  C:\Users\tpbw4321\AppData\Local\Temp\cc6BUzHo.s 			page 2


  25:Generated_Source\PSoC5/PingSensorTrigCounter.c **** * Function Name: PingSensorTrigCounter_Init
  26:Generated_Source\PSoC5/PingSensorTrigCounter.c **** ********************************************************************************
  27:Generated_Source\PSoC5/PingSensorTrigCounter.c **** * Summary:
  28:Generated_Source\PSoC5/PingSensorTrigCounter.c **** *     Initialize to the schematic state
  29:Generated_Source\PSoC5/PingSensorTrigCounter.c **** * 
  30:Generated_Source\PSoC5/PingSensorTrigCounter.c **** * Parameters:  
  31:Generated_Source\PSoC5/PingSensorTrigCounter.c **** *  void  
  32:Generated_Source\PSoC5/PingSensorTrigCounter.c **** *
  33:Generated_Source\PSoC5/PingSensorTrigCounter.c **** * Return: 
  34:Generated_Source\PSoC5/PingSensorTrigCounter.c **** *  void
  35:Generated_Source\PSoC5/PingSensorTrigCounter.c **** *
  36:Generated_Source\PSoC5/PingSensorTrigCounter.c **** *******************************************************************************/
  37:Generated_Source\PSoC5/PingSensorTrigCounter.c **** void PingSensorTrigCounter_Init(void) 
  38:Generated_Source\PSoC5/PingSensorTrigCounter.c **** {
  34              		.loc 1 38 0
  35              		.cfi_startproc
  36              		@ args = 0, pretend = 0, frame = 0
  37              		@ frame_needed = 1, uses_anonymous_args = 0
  38 0000 80B5     		push	{r7, lr}
  39              		.cfi_def_cfa_offset 8
  40              		.cfi_offset 7, -8
  41              		.cfi_offset 14, -4
  42 0002 00AF     		add	r7, sp, #0
  43              		.cfi_def_cfa_register 7
  39:Generated_Source\PSoC5/PingSensorTrigCounter.c ****         #if (!PingSensorTrigCounter_UsingFixedFunction && !PingSensorTrigCounter_ControlRegRemoved)
  40:Generated_Source\PSoC5/PingSensorTrigCounter.c ****             uint8 ctrl;
  41:Generated_Source\PSoC5/PingSensorTrigCounter.c ****         #endif /* (!PingSensorTrigCounter_UsingFixedFunction && !PingSensorTrigCounter_ControlRegRe
  42:Generated_Source\PSoC5/PingSensorTrigCounter.c ****         
  43:Generated_Source\PSoC5/PingSensorTrigCounter.c ****         #if(!PingSensorTrigCounter_UsingFixedFunction) 
  44:Generated_Source\PSoC5/PingSensorTrigCounter.c ****             /* Interrupt State Backup for Critical Region*/
  45:Generated_Source\PSoC5/PingSensorTrigCounter.c ****             uint8 PingSensorTrigCounter_interruptState;
  46:Generated_Source\PSoC5/PingSensorTrigCounter.c ****         #endif /* (!PingSensorTrigCounter_UsingFixedFunction) */
  47:Generated_Source\PSoC5/PingSensorTrigCounter.c ****         
  48:Generated_Source\PSoC5/PingSensorTrigCounter.c ****         #if (PingSensorTrigCounter_UsingFixedFunction)
  49:Generated_Source\PSoC5/PingSensorTrigCounter.c ****             /* Clear all bits but the enable bit (if it's already set for Timer operation */
  50:Generated_Source\PSoC5/PingSensorTrigCounter.c ****             PingSensorTrigCounter_CONTROL &= PingSensorTrigCounter_CTRL_ENABLE;
  44              		.loc 1 50 0
  45 0004 254A     		ldr	r2, .L2
  46 0006 254B     		ldr	r3, .L2
  47 0008 1B78     		ldrb	r3, [r3]
  48 000a DBB2     		uxtb	r3, r3
  49 000c 03F00103 		and	r3, r3, #1
  50 0010 DBB2     		uxtb	r3, r3
  51 0012 1370     		strb	r3, [r2]
  51:Generated_Source\PSoC5/PingSensorTrigCounter.c ****             
  52:Generated_Source\PSoC5/PingSensorTrigCounter.c ****             /* Clear the mode bits for continuous run mode */
  53:Generated_Source\PSoC5/PingSensorTrigCounter.c ****             #if (CY_PSOC5A)
  54:Generated_Source\PSoC5/PingSensorTrigCounter.c ****                 PingSensorTrigCounter_CONTROL2 &= ((uint8)(~PingSensorTrigCounter_CTRL_MODE_MASK));
  55:Generated_Source\PSoC5/PingSensorTrigCounter.c ****             #endif /* (CY_PSOC5A) */
  56:Generated_Source\PSoC5/PingSensorTrigCounter.c ****             #if (CY_PSOC3 || CY_PSOC5LP)
  57:Generated_Source\PSoC5/PingSensorTrigCounter.c ****                 PingSensorTrigCounter_CONTROL3 &= ((uint8)(~PingSensorTrigCounter_CTRL_MODE_MASK));
  52              		.loc 1 57 0
  53 0014 224A     		ldr	r2, .L2+4
  54 0016 224B     		ldr	r3, .L2+4
  55 0018 1B78     		ldrb	r3, [r3]
  56 001a DBB2     		uxtb	r3, r3
  57 001c 23F00303 		bic	r3, r3, #3
ARM GAS  C:\Users\tpbw4321\AppData\Local\Temp\cc6BUzHo.s 			page 3


  58 0020 DBB2     		uxtb	r3, r3
  59 0022 1370     		strb	r3, [r2]
  58:Generated_Source\PSoC5/PingSensorTrigCounter.c ****             #endif /* (CY_PSOC3 || CY_PSOC5LP) */
  59:Generated_Source\PSoC5/PingSensorTrigCounter.c ****             /* Check if One Shot mode is enabled i.e. RunMode !=0*/
  60:Generated_Source\PSoC5/PingSensorTrigCounter.c ****             #if (PingSensorTrigCounter_RunModeUsed != 0x0u)
  61:Generated_Source\PSoC5/PingSensorTrigCounter.c ****                 /* Set 3rd bit of Control register to enable one shot mode */
  62:Generated_Source\PSoC5/PingSensorTrigCounter.c ****                 PingSensorTrigCounter_CONTROL |= PingSensorTrigCounter_ONESHOT;
  60              		.loc 1 62 0
  61 0024 1D4A     		ldr	r2, .L2
  62 0026 1D4B     		ldr	r3, .L2
  63 0028 1B78     		ldrb	r3, [r3]
  64 002a DBB2     		uxtb	r3, r3
  65 002c 43F00403 		orr	r3, r3, #4
  66 0030 DBB2     		uxtb	r3, r3
  67 0032 1370     		strb	r3, [r2]
  63:Generated_Source\PSoC5/PingSensorTrigCounter.c ****             #endif /* (PingSensorTrigCounter_RunModeUsed != 0x0u) */
  64:Generated_Source\PSoC5/PingSensorTrigCounter.c ****             
  65:Generated_Source\PSoC5/PingSensorTrigCounter.c ****             /* Set the IRQ to use the status register interrupts */
  66:Generated_Source\PSoC5/PingSensorTrigCounter.c ****             PingSensorTrigCounter_CONTROL2 |= PingSensorTrigCounter_CTRL2_IRQ_SEL;
  68              		.loc 1 66 0
  69 0034 1B4A     		ldr	r2, .L2+8
  70 0036 1B4B     		ldr	r3, .L2+8
  71 0038 1B78     		ldrb	r3, [r3]
  72 003a DBB2     		uxtb	r3, r3
  73 003c 43F00103 		orr	r3, r3, #1
  74 0040 DBB2     		uxtb	r3, r3
  75 0042 1370     		strb	r3, [r2]
  67:Generated_Source\PSoC5/PingSensorTrigCounter.c ****             
  68:Generated_Source\PSoC5/PingSensorTrigCounter.c ****             /* Clear and Set SYNCTC and SYNCCMP bits of RT1 register */
  69:Generated_Source\PSoC5/PingSensorTrigCounter.c ****             PingSensorTrigCounter_RT1 &= ((uint8)(~PingSensorTrigCounter_RT1_MASK));
  76              		.loc 1 69 0
  77 0044 184A     		ldr	r2, .L2+12
  78 0046 184B     		ldr	r3, .L2+12
  79 0048 1B78     		ldrb	r3, [r3]
  80 004a DBB2     		uxtb	r3, r3
  81 004c 23F03003 		bic	r3, r3, #48
  82 0050 DBB2     		uxtb	r3, r3
  83 0052 1370     		strb	r3, [r2]
  70:Generated_Source\PSoC5/PingSensorTrigCounter.c ****             PingSensorTrigCounter_RT1 |= PingSensorTrigCounter_SYNC;     
  84              		.loc 1 70 0
  85 0054 144A     		ldr	r2, .L2+12
  86 0056 144B     		ldr	r3, .L2+12
  87 0058 1B78     		ldrb	r3, [r3]
  88 005a DBB2     		uxtb	r3, r3
  89 005c 43F03003 		orr	r3, r3, #48
  90 0060 DBB2     		uxtb	r3, r3
  91 0062 1370     		strb	r3, [r2]
  71:Generated_Source\PSoC5/PingSensorTrigCounter.c ****                     
  72:Generated_Source\PSoC5/PingSensorTrigCounter.c ****             /*Enable DSI Sync all all inputs of the Timer*/
  73:Generated_Source\PSoC5/PingSensorTrigCounter.c ****             PingSensorTrigCounter_RT1 &= ((uint8)(~PingSensorTrigCounter_SYNCDSI_MASK));
  92              		.loc 1 73 0
  93 0064 104A     		ldr	r2, .L2+12
  94 0066 104B     		ldr	r3, .L2+12
  95 0068 1B78     		ldrb	r3, [r3]
  96 006a DBB2     		uxtb	r3, r3
  97 006c 23F00F03 		bic	r3, r3, #15
  98 0070 DBB2     		uxtb	r3, r3
ARM GAS  C:\Users\tpbw4321\AppData\Local\Temp\cc6BUzHo.s 			page 4


  99 0072 1370     		strb	r3, [r2]
  74:Generated_Source\PSoC5/PingSensorTrigCounter.c ****             PingSensorTrigCounter_RT1 |= PingSensorTrigCounter_SYNCDSI_EN;
 100              		.loc 1 74 0
 101 0074 0C4A     		ldr	r2, .L2+12
 102 0076 0C4B     		ldr	r3, .L2+12
 103 0078 1B78     		ldrb	r3, [r3]
 104 007a DBB2     		uxtb	r3, r3
 105 007c 43F00F03 		orr	r3, r3, #15
 106 0080 DBB2     		uxtb	r3, r3
 107 0082 1370     		strb	r3, [r2]
  75:Generated_Source\PSoC5/PingSensorTrigCounter.c **** 
  76:Generated_Source\PSoC5/PingSensorTrigCounter.c ****         #else
  77:Generated_Source\PSoC5/PingSensorTrigCounter.c ****             #if(!PingSensorTrigCounter_ControlRegRemoved)
  78:Generated_Source\PSoC5/PingSensorTrigCounter.c ****             /* Set the default compare mode defined in the parameter */
  79:Generated_Source\PSoC5/PingSensorTrigCounter.c ****             ctrl = PingSensorTrigCounter_CONTROL & ((uint8)(~PingSensorTrigCounter_CTRL_CMPMODE_MAS
  80:Generated_Source\PSoC5/PingSensorTrigCounter.c ****             PingSensorTrigCounter_CONTROL = ctrl | PingSensorTrigCounter_DEFAULT_COMPARE_MODE;
  81:Generated_Source\PSoC5/PingSensorTrigCounter.c ****             
  82:Generated_Source\PSoC5/PingSensorTrigCounter.c ****             /* Set the default capture mode defined in the parameter */
  83:Generated_Source\PSoC5/PingSensorTrigCounter.c ****             ctrl = PingSensorTrigCounter_CONTROL & ((uint8)(~PingSensorTrigCounter_CTRL_CAPMODE_MAS
  84:Generated_Source\PSoC5/PingSensorTrigCounter.c ****             
  85:Generated_Source\PSoC5/PingSensorTrigCounter.c ****             #if( 0 != PingSensorTrigCounter_CAPTURE_MODE_CONF)
  86:Generated_Source\PSoC5/PingSensorTrigCounter.c ****                 PingSensorTrigCounter_CONTROL = ctrl | PingSensorTrigCounter_DEFAULT_CAPTURE_MODE;
  87:Generated_Source\PSoC5/PingSensorTrigCounter.c ****             #else
  88:Generated_Source\PSoC5/PingSensorTrigCounter.c ****                 PingSensorTrigCounter_CONTROL = ctrl;
  89:Generated_Source\PSoC5/PingSensorTrigCounter.c ****             #endif /* 0 != PingSensorTrigCounter_CAPTURE_MODE */ 
  90:Generated_Source\PSoC5/PingSensorTrigCounter.c ****             
  91:Generated_Source\PSoC5/PingSensorTrigCounter.c ****             #endif /* (!PingSensorTrigCounter_ControlRegRemoved) */
  92:Generated_Source\PSoC5/PingSensorTrigCounter.c ****         #endif /* (PingSensorTrigCounter_UsingFixedFunction) */
  93:Generated_Source\PSoC5/PingSensorTrigCounter.c ****         
  94:Generated_Source\PSoC5/PingSensorTrigCounter.c ****         /* Clear all data in the FIFO's */
  95:Generated_Source\PSoC5/PingSensorTrigCounter.c ****         #if (!PingSensorTrigCounter_UsingFixedFunction)
  96:Generated_Source\PSoC5/PingSensorTrigCounter.c ****             PingSensorTrigCounter_ClearFIFO();
  97:Generated_Source\PSoC5/PingSensorTrigCounter.c ****         #endif /* (!PingSensorTrigCounter_UsingFixedFunction) */
  98:Generated_Source\PSoC5/PingSensorTrigCounter.c ****         
  99:Generated_Source\PSoC5/PingSensorTrigCounter.c ****         /* Set Initial values from Configuration */
 100:Generated_Source\PSoC5/PingSensorTrigCounter.c ****         PingSensorTrigCounter_WritePeriod(PingSensorTrigCounter_INIT_PERIOD_VALUE);
 108              		.loc 1 100 0
 109 0084 0520     		movs	r0, #5
 110 0086 FFF7FEFF 		bl	PingSensorTrigCounter_WritePeriod
 101:Generated_Source\PSoC5/PingSensorTrigCounter.c ****         #if (!(PingSensorTrigCounter_UsingFixedFunction && (CY_PSOC5A)))
 102:Generated_Source\PSoC5/PingSensorTrigCounter.c ****             PingSensorTrigCounter_WriteCounter(PingSensorTrigCounter_INIT_COUNTER_VALUE);
 111              		.loc 1 102 0
 112 008a 0520     		movs	r0, #5
 113 008c FFF7FEFF 		bl	PingSensorTrigCounter_WriteCounter
 103:Generated_Source\PSoC5/PingSensorTrigCounter.c ****         #endif /* (!(PingSensorTrigCounter_UsingFixedFunction && (CY_PSOC5A))) */
 104:Generated_Source\PSoC5/PingSensorTrigCounter.c ****         PingSensorTrigCounter_SetInterruptMode(PingSensorTrigCounter_INIT_INTERRUPTS_MASK);
 114              		.loc 1 104 0
 115 0090 0020     		movs	r0, #0
 116 0092 FFF7FEFF 		bl	PingSensorTrigCounter_SetInterruptMode
 105:Generated_Source\PSoC5/PingSensorTrigCounter.c ****         
 106:Generated_Source\PSoC5/PingSensorTrigCounter.c ****         #if (!PingSensorTrigCounter_UsingFixedFunction)
 107:Generated_Source\PSoC5/PingSensorTrigCounter.c ****             /* Read the status register to clear the unwanted interrupts */
 108:Generated_Source\PSoC5/PingSensorTrigCounter.c ****             (void)PingSensorTrigCounter_ReadStatusRegister();
 109:Generated_Source\PSoC5/PingSensorTrigCounter.c ****             /* Set the compare value (only available to non-fixed function implementation */
 110:Generated_Source\PSoC5/PingSensorTrigCounter.c ****             PingSensorTrigCounter_WriteCompare(PingSensorTrigCounter_INIT_COMPARE_VALUE);
 111:Generated_Source\PSoC5/PingSensorTrigCounter.c ****             /* Use the interrupt output of the status register for IRQ output */
 112:Generated_Source\PSoC5/PingSensorTrigCounter.c ****             
ARM GAS  C:\Users\tpbw4321\AppData\Local\Temp\cc6BUzHo.s 			page 5


 113:Generated_Source\PSoC5/PingSensorTrigCounter.c ****             /* CyEnterCriticalRegion and CyExitCriticalRegion are used to mark following region cri
 114:Generated_Source\PSoC5/PingSensorTrigCounter.c ****             /* Enter Critical Region*/
 115:Generated_Source\PSoC5/PingSensorTrigCounter.c ****             PingSensorTrigCounter_interruptState = CyEnterCriticalSection();
 116:Generated_Source\PSoC5/PingSensorTrigCounter.c ****             
 117:Generated_Source\PSoC5/PingSensorTrigCounter.c ****             PingSensorTrigCounter_STATUS_AUX_CTRL |= PingSensorTrigCounter_STATUS_ACTL_INT_EN_MASK;
 118:Generated_Source\PSoC5/PingSensorTrigCounter.c ****             
 119:Generated_Source\PSoC5/PingSensorTrigCounter.c ****             /* Exit Critical Region*/
 120:Generated_Source\PSoC5/PingSensorTrigCounter.c ****             CyExitCriticalSection(PingSensorTrigCounter_interruptState);
 121:Generated_Source\PSoC5/PingSensorTrigCounter.c ****             
 122:Generated_Source\PSoC5/PingSensorTrigCounter.c ****         #endif /* (!PingSensorTrigCounter_UsingFixedFunction) */
 123:Generated_Source\PSoC5/PingSensorTrigCounter.c **** }
 117              		.loc 1 123 0
 118 0096 00BF     		nop
 119 0098 80BD     		pop	{r7, pc}
 120              	.L3:
 121 009a 00BF     		.align	2
 122              	.L2:
 123 009c 004F0040 		.word	1073762048
 124 00a0 024F0040 		.word	1073762050
 125 00a4 014F0040 		.word	1073762049
 126 00a8 0B4F0040 		.word	1073762059
 127              		.cfi_endproc
 128              	.LFE0:
 129              		.size	PingSensorTrigCounter_Init, .-PingSensorTrigCounter_Init
 130              		.section	.text.PingSensorTrigCounter_Enable,"ax",%progbits
 131              		.align	2
 132              		.global	PingSensorTrigCounter_Enable
 133              		.thumb
 134              		.thumb_func
 135              		.type	PingSensorTrigCounter_Enable, %function
 136              	PingSensorTrigCounter_Enable:
 137              	.LFB1:
 124:Generated_Source\PSoC5/PingSensorTrigCounter.c **** 
 125:Generated_Source\PSoC5/PingSensorTrigCounter.c **** 
 126:Generated_Source\PSoC5/PingSensorTrigCounter.c **** /*******************************************************************************
 127:Generated_Source\PSoC5/PingSensorTrigCounter.c **** * Function Name: PingSensorTrigCounter_Enable
 128:Generated_Source\PSoC5/PingSensorTrigCounter.c **** ********************************************************************************
 129:Generated_Source\PSoC5/PingSensorTrigCounter.c **** * Summary:
 130:Generated_Source\PSoC5/PingSensorTrigCounter.c **** *     Enable the Counter
 131:Generated_Source\PSoC5/PingSensorTrigCounter.c **** * 
 132:Generated_Source\PSoC5/PingSensorTrigCounter.c **** * Parameters:  
 133:Generated_Source\PSoC5/PingSensorTrigCounter.c **** *  void  
 134:Generated_Source\PSoC5/PingSensorTrigCounter.c **** *
 135:Generated_Source\PSoC5/PingSensorTrigCounter.c **** * Return: 
 136:Generated_Source\PSoC5/PingSensorTrigCounter.c **** *  void
 137:Generated_Source\PSoC5/PingSensorTrigCounter.c **** *
 138:Generated_Source\PSoC5/PingSensorTrigCounter.c **** * Side Effects: 
 139:Generated_Source\PSoC5/PingSensorTrigCounter.c **** *   If the Enable mode is set to Hardware only then this function has no effect 
 140:Generated_Source\PSoC5/PingSensorTrigCounter.c **** *   on the operation of the counter.
 141:Generated_Source\PSoC5/PingSensorTrigCounter.c **** *
 142:Generated_Source\PSoC5/PingSensorTrigCounter.c **** *******************************************************************************/
 143:Generated_Source\PSoC5/PingSensorTrigCounter.c **** void PingSensorTrigCounter_Enable(void) 
 144:Generated_Source\PSoC5/PingSensorTrigCounter.c **** {
 138              		.loc 1 144 0
 139              		.cfi_startproc
 140              		@ args = 0, pretend = 0, frame = 0
 141              		@ frame_needed = 1, uses_anonymous_args = 0
ARM GAS  C:\Users\tpbw4321\AppData\Local\Temp\cc6BUzHo.s 			page 6


 142              		@ link register save eliminated.
 143 0000 80B4     		push	{r7}
 144              		.cfi_def_cfa_offset 4
 145              		.cfi_offset 7, -4
 146 0002 00AF     		add	r7, sp, #0
 147              		.cfi_def_cfa_register 7
 145:Generated_Source\PSoC5/PingSensorTrigCounter.c ****     /* Globally Enable the Fixed Function Block chosen */
 146:Generated_Source\PSoC5/PingSensorTrigCounter.c ****     #if (PingSensorTrigCounter_UsingFixedFunction)
 147:Generated_Source\PSoC5/PingSensorTrigCounter.c ****         PingSensorTrigCounter_GLOBAL_ENABLE |= PingSensorTrigCounter_BLOCK_EN_MASK;
 148              		.loc 1 147 0
 149 0004 0D4A     		ldr	r2, .L5
 150 0006 0D4B     		ldr	r3, .L5
 151 0008 1B78     		ldrb	r3, [r3]
 152 000a DBB2     		uxtb	r3, r3
 153 000c 43F00103 		orr	r3, r3, #1
 154 0010 DBB2     		uxtb	r3, r3
 155 0012 1370     		strb	r3, [r2]
 148:Generated_Source\PSoC5/PingSensorTrigCounter.c ****         PingSensorTrigCounter_GLOBAL_STBY_ENABLE |= PingSensorTrigCounter_BLOCK_STBY_EN_MASK;
 156              		.loc 1 148 0
 157 0014 0A4A     		ldr	r2, .L5+4
 158 0016 0A4B     		ldr	r3, .L5+4
 159 0018 1B78     		ldrb	r3, [r3]
 160 001a DBB2     		uxtb	r3, r3
 161 001c 43F00103 		orr	r3, r3, #1
 162 0020 DBB2     		uxtb	r3, r3
 163 0022 1370     		strb	r3, [r2]
 149:Generated_Source\PSoC5/PingSensorTrigCounter.c ****     #endif /* (PingSensorTrigCounter_UsingFixedFunction) */  
 150:Generated_Source\PSoC5/PingSensorTrigCounter.c ****         
 151:Generated_Source\PSoC5/PingSensorTrigCounter.c ****     /* Enable the counter from the control register  */
 152:Generated_Source\PSoC5/PingSensorTrigCounter.c ****     /* If Fixed Function then make sure Mode is set correctly */
 153:Generated_Source\PSoC5/PingSensorTrigCounter.c ****     /* else make sure reset is clear */
 154:Generated_Source\PSoC5/PingSensorTrigCounter.c ****     #if(!PingSensorTrigCounter_ControlRegRemoved || PingSensorTrigCounter_UsingFixedFunction)
 155:Generated_Source\PSoC5/PingSensorTrigCounter.c ****         PingSensorTrigCounter_CONTROL |= PingSensorTrigCounter_CTRL_ENABLE;                
 164              		.loc 1 155 0
 165 0024 074A     		ldr	r2, .L5+8
 166 0026 074B     		ldr	r3, .L5+8
 167 0028 1B78     		ldrb	r3, [r3]
 168 002a DBB2     		uxtb	r3, r3
 169 002c 43F00103 		orr	r3, r3, #1
 170 0030 DBB2     		uxtb	r3, r3
 171 0032 1370     		strb	r3, [r2]
 156:Generated_Source\PSoC5/PingSensorTrigCounter.c ****     #endif /* (!PingSensorTrigCounter_ControlRegRemoved || PingSensorTrigCounter_UsingFixedFunction
 157:Generated_Source\PSoC5/PingSensorTrigCounter.c ****     
 158:Generated_Source\PSoC5/PingSensorTrigCounter.c **** }
 172              		.loc 1 158 0
 173 0034 00BF     		nop
 174 0036 BD46     		mov	sp, r7
 175              		.cfi_def_cfa_register 13
 176              		@ sp needed
 177 0038 80BC     		pop	{r7}
 178              		.cfi_restore 7
 179              		.cfi_def_cfa_offset 0
 180 003a 7047     		bx	lr
 181              	.L6:
 182              		.align	2
 183              	.L5:
 184 003c A3430040 		.word	1073759139
ARM GAS  C:\Users\tpbw4321\AppData\Local\Temp\cc6BUzHo.s 			page 7


 185 0040 B3430040 		.word	1073759155
 186 0044 004F0040 		.word	1073762048
 187              		.cfi_endproc
 188              	.LFE1:
 189              		.size	PingSensorTrigCounter_Enable, .-PingSensorTrigCounter_Enable
 190              		.section	.text.PingSensorTrigCounter_Start,"ax",%progbits
 191              		.align	2
 192              		.global	PingSensorTrigCounter_Start
 193              		.thumb
 194              		.thumb_func
 195              		.type	PingSensorTrigCounter_Start, %function
 196              	PingSensorTrigCounter_Start:
 197              	.LFB2:
 159:Generated_Source\PSoC5/PingSensorTrigCounter.c **** 
 160:Generated_Source\PSoC5/PingSensorTrigCounter.c **** 
 161:Generated_Source\PSoC5/PingSensorTrigCounter.c **** /*******************************************************************************
 162:Generated_Source\PSoC5/PingSensorTrigCounter.c **** * Function Name: PingSensorTrigCounter_Start
 163:Generated_Source\PSoC5/PingSensorTrigCounter.c **** ********************************************************************************
 164:Generated_Source\PSoC5/PingSensorTrigCounter.c **** * Summary:
 165:Generated_Source\PSoC5/PingSensorTrigCounter.c **** *  Enables the counter for operation 
 166:Generated_Source\PSoC5/PingSensorTrigCounter.c **** *
 167:Generated_Source\PSoC5/PingSensorTrigCounter.c **** * Parameters:  
 168:Generated_Source\PSoC5/PingSensorTrigCounter.c **** *  void  
 169:Generated_Source\PSoC5/PingSensorTrigCounter.c **** *
 170:Generated_Source\PSoC5/PingSensorTrigCounter.c **** * Return: 
 171:Generated_Source\PSoC5/PingSensorTrigCounter.c **** *  void
 172:Generated_Source\PSoC5/PingSensorTrigCounter.c **** *
 173:Generated_Source\PSoC5/PingSensorTrigCounter.c **** * Global variables:
 174:Generated_Source\PSoC5/PingSensorTrigCounter.c **** *  PingSensorTrigCounter_initVar: Is modified when this function is called for the  
 175:Generated_Source\PSoC5/PingSensorTrigCounter.c **** *   first time. Is used to ensure that initialization happens only once.
 176:Generated_Source\PSoC5/PingSensorTrigCounter.c **** *
 177:Generated_Source\PSoC5/PingSensorTrigCounter.c **** *******************************************************************************/
 178:Generated_Source\PSoC5/PingSensorTrigCounter.c **** void PingSensorTrigCounter_Start(void) 
 179:Generated_Source\PSoC5/PingSensorTrigCounter.c **** {
 198              		.loc 1 179 0
 199              		.cfi_startproc
 200              		@ args = 0, pretend = 0, frame = 0
 201              		@ frame_needed = 1, uses_anonymous_args = 0
 202 0000 80B5     		push	{r7, lr}
 203              		.cfi_def_cfa_offset 8
 204              		.cfi_offset 7, -8
 205              		.cfi_offset 14, -4
 206 0002 00AF     		add	r7, sp, #0
 207              		.cfi_def_cfa_register 7
 180:Generated_Source\PSoC5/PingSensorTrigCounter.c ****     if(PingSensorTrigCounter_initVar == 0u)
 208              		.loc 1 180 0
 209 0004 064B     		ldr	r3, .L9
 210 0006 1B78     		ldrb	r3, [r3]	@ zero_extendqisi2
 211 0008 002B     		cmp	r3, #0
 212 000a 04D1     		bne	.L8
 181:Generated_Source\PSoC5/PingSensorTrigCounter.c ****     {
 182:Generated_Source\PSoC5/PingSensorTrigCounter.c ****         PingSensorTrigCounter_Init();
 213              		.loc 1 182 0
 214 000c FFF7FEFF 		bl	PingSensorTrigCounter_Init
 183:Generated_Source\PSoC5/PingSensorTrigCounter.c ****         
 184:Generated_Source\PSoC5/PingSensorTrigCounter.c ****         PingSensorTrigCounter_initVar = 1u; /* Clear this bit for Initialization */        
 215              		.loc 1 184 0
ARM GAS  C:\Users\tpbw4321\AppData\Local\Temp\cc6BUzHo.s 			page 8


 216 0010 034B     		ldr	r3, .L9
 217 0012 0122     		movs	r2, #1
 218 0014 1A70     		strb	r2, [r3]
 219              	.L8:
 185:Generated_Source\PSoC5/PingSensorTrigCounter.c ****     }
 186:Generated_Source\PSoC5/PingSensorTrigCounter.c ****     
 187:Generated_Source\PSoC5/PingSensorTrigCounter.c ****     /* Enable the Counter */
 188:Generated_Source\PSoC5/PingSensorTrigCounter.c ****     PingSensorTrigCounter_Enable();        
 220              		.loc 1 188 0
 221 0016 FFF7FEFF 		bl	PingSensorTrigCounter_Enable
 189:Generated_Source\PSoC5/PingSensorTrigCounter.c **** }
 222              		.loc 1 189 0
 223 001a 00BF     		nop
 224 001c 80BD     		pop	{r7, pc}
 225              	.L10:
 226 001e 00BF     		.align	2
 227              	.L9:
 228 0020 00000000 		.word	PingSensorTrigCounter_initVar
 229              		.cfi_endproc
 230              	.LFE2:
 231              		.size	PingSensorTrigCounter_Start, .-PingSensorTrigCounter_Start
 232              		.section	.text.PingSensorTrigCounter_Stop,"ax",%progbits
 233              		.align	2
 234              		.global	PingSensorTrigCounter_Stop
 235              		.thumb
 236              		.thumb_func
 237              		.type	PingSensorTrigCounter_Stop, %function
 238              	PingSensorTrigCounter_Stop:
 239              	.LFB3:
 190:Generated_Source\PSoC5/PingSensorTrigCounter.c **** 
 191:Generated_Source\PSoC5/PingSensorTrigCounter.c **** 
 192:Generated_Source\PSoC5/PingSensorTrigCounter.c **** /*******************************************************************************
 193:Generated_Source\PSoC5/PingSensorTrigCounter.c **** * Function Name: PingSensorTrigCounter_Stop
 194:Generated_Source\PSoC5/PingSensorTrigCounter.c **** ********************************************************************************
 195:Generated_Source\PSoC5/PingSensorTrigCounter.c **** * Summary:
 196:Generated_Source\PSoC5/PingSensorTrigCounter.c **** * Halts the counter, but does not change any modes or disable interrupts.
 197:Generated_Source\PSoC5/PingSensorTrigCounter.c **** *
 198:Generated_Source\PSoC5/PingSensorTrigCounter.c **** * Parameters:  
 199:Generated_Source\PSoC5/PingSensorTrigCounter.c **** *  void  
 200:Generated_Source\PSoC5/PingSensorTrigCounter.c **** *
 201:Generated_Source\PSoC5/PingSensorTrigCounter.c **** * Return: 
 202:Generated_Source\PSoC5/PingSensorTrigCounter.c **** *  void
 203:Generated_Source\PSoC5/PingSensorTrigCounter.c **** *
 204:Generated_Source\PSoC5/PingSensorTrigCounter.c **** * Side Effects: If the Enable mode is set to Hardware only then this function
 205:Generated_Source\PSoC5/PingSensorTrigCounter.c **** *               has no effect on the operation of the counter.
 206:Generated_Source\PSoC5/PingSensorTrigCounter.c **** *
 207:Generated_Source\PSoC5/PingSensorTrigCounter.c **** *******************************************************************************/
 208:Generated_Source\PSoC5/PingSensorTrigCounter.c **** void PingSensorTrigCounter_Stop(void) 
 209:Generated_Source\PSoC5/PingSensorTrigCounter.c **** {
 240              		.loc 1 209 0
 241              		.cfi_startproc
 242              		@ args = 0, pretend = 0, frame = 0
 243              		@ frame_needed = 1, uses_anonymous_args = 0
 244              		@ link register save eliminated.
 245 0000 80B4     		push	{r7}
 246              		.cfi_def_cfa_offset 4
 247              		.cfi_offset 7, -4
ARM GAS  C:\Users\tpbw4321\AppData\Local\Temp\cc6BUzHo.s 			page 9


 248 0002 00AF     		add	r7, sp, #0
 249              		.cfi_def_cfa_register 7
 210:Generated_Source\PSoC5/PingSensorTrigCounter.c ****     /* Disable Counter */
 211:Generated_Source\PSoC5/PingSensorTrigCounter.c ****     #if(!PingSensorTrigCounter_ControlRegRemoved || PingSensorTrigCounter_UsingFixedFunction)
 212:Generated_Source\PSoC5/PingSensorTrigCounter.c ****         PingSensorTrigCounter_CONTROL &= ((uint8)(~PingSensorTrigCounter_CTRL_ENABLE));        
 250              		.loc 1 212 0
 251 0004 0D4A     		ldr	r2, .L12
 252 0006 0D4B     		ldr	r3, .L12
 253 0008 1B78     		ldrb	r3, [r3]
 254 000a DBB2     		uxtb	r3, r3
 255 000c 23F00103 		bic	r3, r3, #1
 256 0010 DBB2     		uxtb	r3, r3
 257 0012 1370     		strb	r3, [r2]
 213:Generated_Source\PSoC5/PingSensorTrigCounter.c ****     #endif /* (!PingSensorTrigCounter_ControlRegRemoved || PingSensorTrigCounter_UsingFixedFunction
 214:Generated_Source\PSoC5/PingSensorTrigCounter.c ****     
 215:Generated_Source\PSoC5/PingSensorTrigCounter.c ****     /* Globally disable the Fixed Function Block chosen */
 216:Generated_Source\PSoC5/PingSensorTrigCounter.c ****     #if (PingSensorTrigCounter_UsingFixedFunction)
 217:Generated_Source\PSoC5/PingSensorTrigCounter.c ****         PingSensorTrigCounter_GLOBAL_ENABLE &= ((uint8)(~PingSensorTrigCounter_BLOCK_EN_MASK));
 258              		.loc 1 217 0
 259 0014 0A4A     		ldr	r2, .L12+4
 260 0016 0A4B     		ldr	r3, .L12+4
 261 0018 1B78     		ldrb	r3, [r3]
 262 001a DBB2     		uxtb	r3, r3
 263 001c 23F00103 		bic	r3, r3, #1
 264 0020 DBB2     		uxtb	r3, r3
 265 0022 1370     		strb	r3, [r2]
 218:Generated_Source\PSoC5/PingSensorTrigCounter.c ****         PingSensorTrigCounter_GLOBAL_STBY_ENABLE &= ((uint8)(~PingSensorTrigCounter_BLOCK_STBY_EN_M
 266              		.loc 1 218 0
 267 0024 074A     		ldr	r2, .L12+8
 268 0026 074B     		ldr	r3, .L12+8
 269 0028 1B78     		ldrb	r3, [r3]
 270 002a DBB2     		uxtb	r3, r3
 271 002c 23F00103 		bic	r3, r3, #1
 272 0030 DBB2     		uxtb	r3, r3
 273 0032 1370     		strb	r3, [r2]
 219:Generated_Source\PSoC5/PingSensorTrigCounter.c ****     #endif /* (PingSensorTrigCounter_UsingFixedFunction) */
 220:Generated_Source\PSoC5/PingSensorTrigCounter.c **** }
 274              		.loc 1 220 0
 275 0034 00BF     		nop
 276 0036 BD46     		mov	sp, r7
 277              		.cfi_def_cfa_register 13
 278              		@ sp needed
 279 0038 80BC     		pop	{r7}
 280              		.cfi_restore 7
 281              		.cfi_def_cfa_offset 0
 282 003a 7047     		bx	lr
 283              	.L13:
 284              		.align	2
 285              	.L12:
 286 003c 004F0040 		.word	1073762048
 287 0040 A3430040 		.word	1073759139
 288 0044 B3430040 		.word	1073759155
 289              		.cfi_endproc
 290              	.LFE3:
 291              		.size	PingSensorTrigCounter_Stop, .-PingSensorTrigCounter_Stop
 292              		.section	.text.PingSensorTrigCounter_SetInterruptMode,"ax",%progbits
 293              		.align	2
ARM GAS  C:\Users\tpbw4321\AppData\Local\Temp\cc6BUzHo.s 			page 10


 294              		.global	PingSensorTrigCounter_SetInterruptMode
 295              		.thumb
 296              		.thumb_func
 297              		.type	PingSensorTrigCounter_SetInterruptMode, %function
 298              	PingSensorTrigCounter_SetInterruptMode:
 299              	.LFB4:
 221:Generated_Source\PSoC5/PingSensorTrigCounter.c **** 
 222:Generated_Source\PSoC5/PingSensorTrigCounter.c **** 
 223:Generated_Source\PSoC5/PingSensorTrigCounter.c **** /*******************************************************************************
 224:Generated_Source\PSoC5/PingSensorTrigCounter.c **** * Function Name: PingSensorTrigCounter_SetInterruptMode
 225:Generated_Source\PSoC5/PingSensorTrigCounter.c **** ********************************************************************************
 226:Generated_Source\PSoC5/PingSensorTrigCounter.c **** * Summary:
 227:Generated_Source\PSoC5/PingSensorTrigCounter.c **** * Configures which interrupt sources are enabled to generate the final interrupt
 228:Generated_Source\PSoC5/PingSensorTrigCounter.c **** *
 229:Generated_Source\PSoC5/PingSensorTrigCounter.c **** * Parameters:  
 230:Generated_Source\PSoC5/PingSensorTrigCounter.c **** *  InterruptsMask: This parameter is an or'd collection of the status bits
 231:Generated_Source\PSoC5/PingSensorTrigCounter.c **** *                   which will be allowed to generate the counters interrupt.   
 232:Generated_Source\PSoC5/PingSensorTrigCounter.c **** *
 233:Generated_Source\PSoC5/PingSensorTrigCounter.c **** * Return: 
 234:Generated_Source\PSoC5/PingSensorTrigCounter.c **** *  void
 235:Generated_Source\PSoC5/PingSensorTrigCounter.c **** *
 236:Generated_Source\PSoC5/PingSensorTrigCounter.c **** *******************************************************************************/
 237:Generated_Source\PSoC5/PingSensorTrigCounter.c **** void PingSensorTrigCounter_SetInterruptMode(uint8 interruptsMask) 
 238:Generated_Source\PSoC5/PingSensorTrigCounter.c **** {
 300              		.loc 1 238 0
 301              		.cfi_startproc
 302              		@ args = 0, pretend = 0, frame = 8
 303              		@ frame_needed = 1, uses_anonymous_args = 0
 304              		@ link register save eliminated.
 305 0000 80B4     		push	{r7}
 306              		.cfi_def_cfa_offset 4
 307              		.cfi_offset 7, -4
 308 0002 83B0     		sub	sp, sp, #12
 309              		.cfi_def_cfa_offset 16
 310 0004 00AF     		add	r7, sp, #0
 311              		.cfi_def_cfa_register 7
 312 0006 0346     		mov	r3, r0
 313 0008 FB71     		strb	r3, [r7, #7]
 239:Generated_Source\PSoC5/PingSensorTrigCounter.c ****     PingSensorTrigCounter_STATUS_MASK = interruptsMask;
 314              		.loc 1 239 0
 315 000a 044A     		ldr	r2, .L15
 316 000c FB79     		ldrb	r3, [r7, #7]
 317 000e 1370     		strb	r3, [r2]
 240:Generated_Source\PSoC5/PingSensorTrigCounter.c **** }
 318              		.loc 1 240 0
 319 0010 00BF     		nop
 320 0012 0C37     		adds	r7, r7, #12
 321              		.cfi_def_cfa_offset 4
 322 0014 BD46     		mov	sp, r7
 323              		.cfi_def_cfa_register 13
 324              		@ sp needed
 325 0016 80BC     		pop	{r7}
 326              		.cfi_restore 7
 327              		.cfi_def_cfa_offset 0
 328 0018 7047     		bx	lr
 329              	.L16:
 330 001a 00BF     		.align	2
ARM GAS  C:\Users\tpbw4321\AppData\Local\Temp\cc6BUzHo.s 			page 11


 331              	.L15:
 332 001c 034F0040 		.word	1073762051
 333              		.cfi_endproc
 334              	.LFE4:
 335              		.size	PingSensorTrigCounter_SetInterruptMode, .-PingSensorTrigCounter_SetInterruptMode
 336              		.section	.text.PingSensorTrigCounter_ReadStatusRegister,"ax",%progbits
 337              		.align	2
 338              		.global	PingSensorTrigCounter_ReadStatusRegister
 339              		.thumb
 340              		.thumb_func
 341              		.type	PingSensorTrigCounter_ReadStatusRegister, %function
 342              	PingSensorTrigCounter_ReadStatusRegister:
 343              	.LFB5:
 241:Generated_Source\PSoC5/PingSensorTrigCounter.c **** 
 242:Generated_Source\PSoC5/PingSensorTrigCounter.c **** 
 243:Generated_Source\PSoC5/PingSensorTrigCounter.c **** /*******************************************************************************
 244:Generated_Source\PSoC5/PingSensorTrigCounter.c **** * Function Name: PingSensorTrigCounter_ReadStatusRegister
 245:Generated_Source\PSoC5/PingSensorTrigCounter.c **** ********************************************************************************
 246:Generated_Source\PSoC5/PingSensorTrigCounter.c **** * Summary:
 247:Generated_Source\PSoC5/PingSensorTrigCounter.c **** *   Reads the status register and returns it's state. This function should use
 248:Generated_Source\PSoC5/PingSensorTrigCounter.c **** *       defined types for the bit-field information as the bits in this
 249:Generated_Source\PSoC5/PingSensorTrigCounter.c **** *       register may be permuteable.
 250:Generated_Source\PSoC5/PingSensorTrigCounter.c **** *
 251:Generated_Source\PSoC5/PingSensorTrigCounter.c **** * Parameters:  
 252:Generated_Source\PSoC5/PingSensorTrigCounter.c **** *  void
 253:Generated_Source\PSoC5/PingSensorTrigCounter.c **** *
 254:Generated_Source\PSoC5/PingSensorTrigCounter.c **** * Return: 
 255:Generated_Source\PSoC5/PingSensorTrigCounter.c **** *  (uint8) The contents of the status register
 256:Generated_Source\PSoC5/PingSensorTrigCounter.c **** *
 257:Generated_Source\PSoC5/PingSensorTrigCounter.c **** * Side Effects:
 258:Generated_Source\PSoC5/PingSensorTrigCounter.c **** *   Status register bits may be clear on read. 
 259:Generated_Source\PSoC5/PingSensorTrigCounter.c **** *
 260:Generated_Source\PSoC5/PingSensorTrigCounter.c **** *******************************************************************************/
 261:Generated_Source\PSoC5/PingSensorTrigCounter.c **** uint8   PingSensorTrigCounter_ReadStatusRegister(void) 
 262:Generated_Source\PSoC5/PingSensorTrigCounter.c **** {
 344              		.loc 1 262 0
 345              		.cfi_startproc
 346              		@ args = 0, pretend = 0, frame = 0
 347              		@ frame_needed = 1, uses_anonymous_args = 0
 348              		@ link register save eliminated.
 349 0000 80B4     		push	{r7}
 350              		.cfi_def_cfa_offset 4
 351              		.cfi_offset 7, -4
 352 0002 00AF     		add	r7, sp, #0
 353              		.cfi_def_cfa_register 7
 263:Generated_Source\PSoC5/PingSensorTrigCounter.c ****     return PingSensorTrigCounter_STATUS;
 354              		.loc 1 263 0
 355 0004 034B     		ldr	r3, .L19
 356 0006 1B78     		ldrb	r3, [r3]
 357 0008 DBB2     		uxtb	r3, r3
 264:Generated_Source\PSoC5/PingSensorTrigCounter.c **** }
 358              		.loc 1 264 0
 359 000a 1846     		mov	r0, r3
 360 000c BD46     		mov	sp, r7
 361              		.cfi_def_cfa_register 13
 362              		@ sp needed
 363 000e 80BC     		pop	{r7}
ARM GAS  C:\Users\tpbw4321\AppData\Local\Temp\cc6BUzHo.s 			page 12


 364              		.cfi_restore 7
 365              		.cfi_def_cfa_offset 0
 366 0010 7047     		bx	lr
 367              	.L20:
 368 0012 00BF     		.align	2
 369              	.L19:
 370 0014 034F0040 		.word	1073762051
 371              		.cfi_endproc
 372              	.LFE5:
 373              		.size	PingSensorTrigCounter_ReadStatusRegister, .-PingSensorTrigCounter_ReadStatusRegister
 374              		.section	.text.PingSensorTrigCounter_ReadControlRegister,"ax",%progbits
 375              		.align	2
 376              		.global	PingSensorTrigCounter_ReadControlRegister
 377              		.thumb
 378              		.thumb_func
 379              		.type	PingSensorTrigCounter_ReadControlRegister, %function
 380              	PingSensorTrigCounter_ReadControlRegister:
 381              	.LFB6:
 265:Generated_Source\PSoC5/PingSensorTrigCounter.c **** 
 266:Generated_Source\PSoC5/PingSensorTrigCounter.c **** 
 267:Generated_Source\PSoC5/PingSensorTrigCounter.c **** #if(!PingSensorTrigCounter_ControlRegRemoved)
 268:Generated_Source\PSoC5/PingSensorTrigCounter.c **** /*******************************************************************************
 269:Generated_Source\PSoC5/PingSensorTrigCounter.c **** * Function Name: PingSensorTrigCounter_ReadControlRegister
 270:Generated_Source\PSoC5/PingSensorTrigCounter.c **** ********************************************************************************
 271:Generated_Source\PSoC5/PingSensorTrigCounter.c **** * Summary:
 272:Generated_Source\PSoC5/PingSensorTrigCounter.c **** *   Reads the control register and returns it's state. This function should use
 273:Generated_Source\PSoC5/PingSensorTrigCounter.c **** *       defined types for the bit-field information as the bits in this
 274:Generated_Source\PSoC5/PingSensorTrigCounter.c **** *       register may be permuteable.
 275:Generated_Source\PSoC5/PingSensorTrigCounter.c **** *
 276:Generated_Source\PSoC5/PingSensorTrigCounter.c **** * Parameters:  
 277:Generated_Source\PSoC5/PingSensorTrigCounter.c **** *  void
 278:Generated_Source\PSoC5/PingSensorTrigCounter.c **** *
 279:Generated_Source\PSoC5/PingSensorTrigCounter.c **** * Return: 
 280:Generated_Source\PSoC5/PingSensorTrigCounter.c **** *  (uint8) The contents of the control register
 281:Generated_Source\PSoC5/PingSensorTrigCounter.c **** *
 282:Generated_Source\PSoC5/PingSensorTrigCounter.c **** *******************************************************************************/
 283:Generated_Source\PSoC5/PingSensorTrigCounter.c **** uint8   PingSensorTrigCounter_ReadControlRegister(void) 
 284:Generated_Source\PSoC5/PingSensorTrigCounter.c **** {
 382              		.loc 1 284 0
 383              		.cfi_startproc
 384              		@ args = 0, pretend = 0, frame = 0
 385              		@ frame_needed = 1, uses_anonymous_args = 0
 386              		@ link register save eliminated.
 387 0000 80B4     		push	{r7}
 388              		.cfi_def_cfa_offset 4
 389              		.cfi_offset 7, -4
 390 0002 00AF     		add	r7, sp, #0
 391              		.cfi_def_cfa_register 7
 285:Generated_Source\PSoC5/PingSensorTrigCounter.c ****     return PingSensorTrigCounter_CONTROL;
 392              		.loc 1 285 0
 393 0004 034B     		ldr	r3, .L23
 394 0006 1B78     		ldrb	r3, [r3]
 395 0008 DBB2     		uxtb	r3, r3
 286:Generated_Source\PSoC5/PingSensorTrigCounter.c **** }
 396              		.loc 1 286 0
 397 000a 1846     		mov	r0, r3
 398 000c BD46     		mov	sp, r7
ARM GAS  C:\Users\tpbw4321\AppData\Local\Temp\cc6BUzHo.s 			page 13


 399              		.cfi_def_cfa_register 13
 400              		@ sp needed
 401 000e 80BC     		pop	{r7}
 402              		.cfi_restore 7
 403              		.cfi_def_cfa_offset 0
 404 0010 7047     		bx	lr
 405              	.L24:
 406 0012 00BF     		.align	2
 407              	.L23:
 408 0014 004F0040 		.word	1073762048
 409              		.cfi_endproc
 410              	.LFE6:
 411              		.size	PingSensorTrigCounter_ReadControlRegister, .-PingSensorTrigCounter_ReadControlRegister
 412              		.section	.text.PingSensorTrigCounter_WriteControlRegister,"ax",%progbits
 413              		.align	2
 414              		.global	PingSensorTrigCounter_WriteControlRegister
 415              		.thumb
 416              		.thumb_func
 417              		.type	PingSensorTrigCounter_WriteControlRegister, %function
 418              	PingSensorTrigCounter_WriteControlRegister:
 419              	.LFB7:
 287:Generated_Source\PSoC5/PingSensorTrigCounter.c **** 
 288:Generated_Source\PSoC5/PingSensorTrigCounter.c **** 
 289:Generated_Source\PSoC5/PingSensorTrigCounter.c **** /*******************************************************************************
 290:Generated_Source\PSoC5/PingSensorTrigCounter.c **** * Function Name: PingSensorTrigCounter_WriteControlRegister
 291:Generated_Source\PSoC5/PingSensorTrigCounter.c **** ********************************************************************************
 292:Generated_Source\PSoC5/PingSensorTrigCounter.c **** * Summary:
 293:Generated_Source\PSoC5/PingSensorTrigCounter.c **** *   Sets the bit-field of the control register.  This function should use
 294:Generated_Source\PSoC5/PingSensorTrigCounter.c **** *       defined types for the bit-field information as the bits in this
 295:Generated_Source\PSoC5/PingSensorTrigCounter.c **** *       register may be permuteable.
 296:Generated_Source\PSoC5/PingSensorTrigCounter.c **** *
 297:Generated_Source\PSoC5/PingSensorTrigCounter.c **** * Parameters:  
 298:Generated_Source\PSoC5/PingSensorTrigCounter.c **** *  void
 299:Generated_Source\PSoC5/PingSensorTrigCounter.c **** *
 300:Generated_Source\PSoC5/PingSensorTrigCounter.c **** * Return: 
 301:Generated_Source\PSoC5/PingSensorTrigCounter.c **** *  (uint8) The contents of the control register
 302:Generated_Source\PSoC5/PingSensorTrigCounter.c **** *
 303:Generated_Source\PSoC5/PingSensorTrigCounter.c **** *******************************************************************************/
 304:Generated_Source\PSoC5/PingSensorTrigCounter.c **** void    PingSensorTrigCounter_WriteControlRegister(uint8 control) 
 305:Generated_Source\PSoC5/PingSensorTrigCounter.c **** {
 420              		.loc 1 305 0
 421              		.cfi_startproc
 422              		@ args = 0, pretend = 0, frame = 8
 423              		@ frame_needed = 1, uses_anonymous_args = 0
 424              		@ link register save eliminated.
 425 0000 80B4     		push	{r7}
 426              		.cfi_def_cfa_offset 4
 427              		.cfi_offset 7, -4
 428 0002 83B0     		sub	sp, sp, #12
 429              		.cfi_def_cfa_offset 16
 430 0004 00AF     		add	r7, sp, #0
 431              		.cfi_def_cfa_register 7
 432 0006 0346     		mov	r3, r0
 433 0008 FB71     		strb	r3, [r7, #7]
 306:Generated_Source\PSoC5/PingSensorTrigCounter.c ****     PingSensorTrigCounter_CONTROL = control;
 434              		.loc 1 306 0
 435 000a 044A     		ldr	r2, .L26
ARM GAS  C:\Users\tpbw4321\AppData\Local\Temp\cc6BUzHo.s 			page 14


 436 000c FB79     		ldrb	r3, [r7, #7]
 437 000e 1370     		strb	r3, [r2]
 307:Generated_Source\PSoC5/PingSensorTrigCounter.c **** }
 438              		.loc 1 307 0
 439 0010 00BF     		nop
 440 0012 0C37     		adds	r7, r7, #12
 441              		.cfi_def_cfa_offset 4
 442 0014 BD46     		mov	sp, r7
 443              		.cfi_def_cfa_register 13
 444              		@ sp needed
 445 0016 80BC     		pop	{r7}
 446              		.cfi_restore 7
 447              		.cfi_def_cfa_offset 0
 448 0018 7047     		bx	lr
 449              	.L27:
 450 001a 00BF     		.align	2
 451              	.L26:
 452 001c 004F0040 		.word	1073762048
 453              		.cfi_endproc
 454              	.LFE7:
 455              		.size	PingSensorTrigCounter_WriteControlRegister, .-PingSensorTrigCounter_WriteControlRegister
 456              		.section	.text.PingSensorTrigCounter_WriteCounter,"ax",%progbits
 457              		.align	2
 458              		.global	PingSensorTrigCounter_WriteCounter
 459              		.thumb
 460              		.thumb_func
 461              		.type	PingSensorTrigCounter_WriteCounter, %function
 462              	PingSensorTrigCounter_WriteCounter:
 463              	.LFB8:
 308:Generated_Source\PSoC5/PingSensorTrigCounter.c **** 
 309:Generated_Source\PSoC5/PingSensorTrigCounter.c **** #endif  /* (!PingSensorTrigCounter_ControlRegRemoved) */
 310:Generated_Source\PSoC5/PingSensorTrigCounter.c **** 
 311:Generated_Source\PSoC5/PingSensorTrigCounter.c **** 
 312:Generated_Source\PSoC5/PingSensorTrigCounter.c **** #if (!(PingSensorTrigCounter_UsingFixedFunction && (CY_PSOC5A)))
 313:Generated_Source\PSoC5/PingSensorTrigCounter.c **** /*******************************************************************************
 314:Generated_Source\PSoC5/PingSensorTrigCounter.c **** * Function Name: PingSensorTrigCounter_WriteCounter
 315:Generated_Source\PSoC5/PingSensorTrigCounter.c **** ********************************************************************************
 316:Generated_Source\PSoC5/PingSensorTrigCounter.c **** * Summary:
 317:Generated_Source\PSoC5/PingSensorTrigCounter.c **** *   This funtion is used to set the counter to a specific value
 318:Generated_Source\PSoC5/PingSensorTrigCounter.c **** *
 319:Generated_Source\PSoC5/PingSensorTrigCounter.c **** * Parameters:  
 320:Generated_Source\PSoC5/PingSensorTrigCounter.c **** *  counter:  New counter value. 
 321:Generated_Source\PSoC5/PingSensorTrigCounter.c **** *
 322:Generated_Source\PSoC5/PingSensorTrigCounter.c **** * Return: 
 323:Generated_Source\PSoC5/PingSensorTrigCounter.c **** *  void 
 324:Generated_Source\PSoC5/PingSensorTrigCounter.c **** *
 325:Generated_Source\PSoC5/PingSensorTrigCounter.c **** *******************************************************************************/
 326:Generated_Source\PSoC5/PingSensorTrigCounter.c **** void PingSensorTrigCounter_WriteCounter(uint8 counter) \
 327:Generated_Source\PSoC5/PingSensorTrigCounter.c ****                                    
 328:Generated_Source\PSoC5/PingSensorTrigCounter.c **** {
 464              		.loc 1 328 0
 465              		.cfi_startproc
 466              		@ args = 0, pretend = 0, frame = 8
 467              		@ frame_needed = 1, uses_anonymous_args = 0
 468 0000 80B5     		push	{r7, lr}
 469              		.cfi_def_cfa_offset 8
 470              		.cfi_offset 7, -8
ARM GAS  C:\Users\tpbw4321\AppData\Local\Temp\cc6BUzHo.s 			page 15


 471              		.cfi_offset 14, -4
 472 0002 82B0     		sub	sp, sp, #8
 473              		.cfi_def_cfa_offset 16
 474 0004 00AF     		add	r7, sp, #0
 475              		.cfi_def_cfa_register 7
 476 0006 0346     		mov	r3, r0
 477 0008 FB71     		strb	r3, [r7, #7]
 329:Generated_Source\PSoC5/PingSensorTrigCounter.c ****     #if(PingSensorTrigCounter_UsingFixedFunction)
 330:Generated_Source\PSoC5/PingSensorTrigCounter.c ****         /* assert if block is already enabled */
 331:Generated_Source\PSoC5/PingSensorTrigCounter.c ****         CYASSERT (0u == (PingSensorTrigCounter_GLOBAL_ENABLE & PingSensorTrigCounter_BLOCK_EN_MASK)
 478              		.loc 1 331 0
 479 000a 114B     		ldr	r3, .L30
 480 000c 1B78     		ldrb	r3, [r3]
 481 000e DBB2     		uxtb	r3, r3
 482 0010 03F00103 		and	r3, r3, #1
 483 0014 002B     		cmp	r3, #0
 484 0016 02D0     		beq	.L29
 485              		.loc 1 331 0 is_stmt 0 discriminator 1
 486 0018 0020     		movs	r0, #0
 487 001a FFF7FEFF 		bl	CyHalt
 488              	.L29:
 332:Generated_Source\PSoC5/PingSensorTrigCounter.c ****         /* If block is disabled, enable it and then write the counter */
 333:Generated_Source\PSoC5/PingSensorTrigCounter.c ****         PingSensorTrigCounter_GLOBAL_ENABLE |= PingSensorTrigCounter_BLOCK_EN_MASK;
 489              		.loc 1 333 0 is_stmt 1
 490 001e 0C4A     		ldr	r2, .L30
 491 0020 0B4B     		ldr	r3, .L30
 492 0022 1B78     		ldrb	r3, [r3]
 493 0024 DBB2     		uxtb	r3, r3
 494 0026 43F00103 		orr	r3, r3, #1
 495 002a DBB2     		uxtb	r3, r3
 496 002c 1370     		strb	r3, [r2]
 334:Generated_Source\PSoC5/PingSensorTrigCounter.c ****         CY_SET_REG16(PingSensorTrigCounter_COUNTER_LSB_PTR, (uint16)counter);
 497              		.loc 1 334 0
 498 002e 094B     		ldr	r3, .L30+4
 499 0030 FA79     		ldrb	r2, [r7, #7]	@ zero_extendqisi2
 500 0032 92B2     		uxth	r2, r2
 501 0034 1A80     		strh	r2, [r3]	@ movhi
 335:Generated_Source\PSoC5/PingSensorTrigCounter.c ****         PingSensorTrigCounter_GLOBAL_ENABLE &= ((uint8)(~PingSensorTrigCounter_BLOCK_EN_MASK));
 502              		.loc 1 335 0
 503 0036 064A     		ldr	r2, .L30
 504 0038 054B     		ldr	r3, .L30
 505 003a 1B78     		ldrb	r3, [r3]
 506 003c DBB2     		uxtb	r3, r3
 507 003e 23F00103 		bic	r3, r3, #1
 508 0042 DBB2     		uxtb	r3, r3
 509 0044 1370     		strb	r3, [r2]
 336:Generated_Source\PSoC5/PingSensorTrigCounter.c ****     #else
 337:Generated_Source\PSoC5/PingSensorTrigCounter.c ****         CY_SET_REG8(PingSensorTrigCounter_COUNTER_LSB_PTR, counter);
 338:Generated_Source\PSoC5/PingSensorTrigCounter.c ****     #endif /* (PingSensorTrigCounter_UsingFixedFunction) */
 339:Generated_Source\PSoC5/PingSensorTrigCounter.c **** }
 510              		.loc 1 339 0
 511 0046 00BF     		nop
 512 0048 0837     		adds	r7, r7, #8
 513              		.cfi_def_cfa_offset 8
 514 004a BD46     		mov	sp, r7
 515              		.cfi_def_cfa_register 13
 516              		@ sp needed
ARM GAS  C:\Users\tpbw4321\AppData\Local\Temp\cc6BUzHo.s 			page 16


 517 004c 80BD     		pop	{r7, pc}
 518              	.L31:
 519 004e 00BF     		.align	2
 520              	.L30:
 521 0050 A3430040 		.word	1073759139
 522 0054 064F0040 		.word	1073762054
 523              		.cfi_endproc
 524              	.LFE8:
 525              		.size	PingSensorTrigCounter_WriteCounter, .-PingSensorTrigCounter_WriteCounter
 526              		.section	.text.PingSensorTrigCounter_ReadCounter,"ax",%progbits
 527              		.align	2
 528              		.global	PingSensorTrigCounter_ReadCounter
 529              		.thumb
 530              		.thumb_func
 531              		.type	PingSensorTrigCounter_ReadCounter, %function
 532              	PingSensorTrigCounter_ReadCounter:
 533              	.LFB9:
 340:Generated_Source\PSoC5/PingSensorTrigCounter.c **** #endif /* (!(PingSensorTrigCounter_UsingFixedFunction && (CY_PSOC5A))) */
 341:Generated_Source\PSoC5/PingSensorTrigCounter.c **** 
 342:Generated_Source\PSoC5/PingSensorTrigCounter.c **** 
 343:Generated_Source\PSoC5/PingSensorTrigCounter.c **** /*******************************************************************************
 344:Generated_Source\PSoC5/PingSensorTrigCounter.c **** * Function Name: PingSensorTrigCounter_ReadCounter
 345:Generated_Source\PSoC5/PingSensorTrigCounter.c **** ********************************************************************************
 346:Generated_Source\PSoC5/PingSensorTrigCounter.c **** * Summary:
 347:Generated_Source\PSoC5/PingSensorTrigCounter.c **** * Returns the current value of the counter.  It doesn't matter
 348:Generated_Source\PSoC5/PingSensorTrigCounter.c **** * if the counter is enabled or running.
 349:Generated_Source\PSoC5/PingSensorTrigCounter.c **** *
 350:Generated_Source\PSoC5/PingSensorTrigCounter.c **** * Parameters:  
 351:Generated_Source\PSoC5/PingSensorTrigCounter.c **** *  void:  
 352:Generated_Source\PSoC5/PingSensorTrigCounter.c **** *
 353:Generated_Source\PSoC5/PingSensorTrigCounter.c **** * Return: 
 354:Generated_Source\PSoC5/PingSensorTrigCounter.c **** *  (uint8) The present value of the counter.
 355:Generated_Source\PSoC5/PingSensorTrigCounter.c **** *
 356:Generated_Source\PSoC5/PingSensorTrigCounter.c **** *******************************************************************************/
 357:Generated_Source\PSoC5/PingSensorTrigCounter.c **** uint8 PingSensorTrigCounter_ReadCounter(void) 
 358:Generated_Source\PSoC5/PingSensorTrigCounter.c **** {
 534              		.loc 1 358 0
 535              		.cfi_startproc
 536              		@ args = 0, pretend = 0, frame = 0
 537              		@ frame_needed = 1, uses_anonymous_args = 0
 538              		@ link register save eliminated.
 539 0000 80B4     		push	{r7}
 540              		.cfi_def_cfa_offset 4
 541              		.cfi_offset 7, -4
 542 0002 00AF     		add	r7, sp, #0
 543              		.cfi_def_cfa_register 7
 359:Generated_Source\PSoC5/PingSensorTrigCounter.c ****     /* Force capture by reading Accumulator */
 360:Generated_Source\PSoC5/PingSensorTrigCounter.c ****     /* Must first do a software capture to be able to read the counter */
 361:Generated_Source\PSoC5/PingSensorTrigCounter.c ****     /* It is up to the user code to make sure there isn't already captured data in the FIFO */
 362:Generated_Source\PSoC5/PingSensorTrigCounter.c ****     #if(PingSensorTrigCounter_UsingFixedFunction)
 363:Generated_Source\PSoC5/PingSensorTrigCounter.c **** 		(void)CY_GET_REG16(PingSensorTrigCounter_COUNTER_LSB_PTR);
 544              		.loc 1 363 0
 545 0004 044B     		ldr	r3, .L34
 546 0006 1B88     		ldrh	r3, [r3]	@ movhi
 364:Generated_Source\PSoC5/PingSensorTrigCounter.c **** 	#else
 365:Generated_Source\PSoC5/PingSensorTrigCounter.c **** 		(void)CY_GET_REG8(PingSensorTrigCounter_COUNTER_LSB_PTR_8BIT);
 366:Generated_Source\PSoC5/PingSensorTrigCounter.c **** 	#endif/* (PingSensorTrigCounter_UsingFixedFunction) */
ARM GAS  C:\Users\tpbw4321\AppData\Local\Temp\cc6BUzHo.s 			page 17


 367:Generated_Source\PSoC5/PingSensorTrigCounter.c ****     
 368:Generated_Source\PSoC5/PingSensorTrigCounter.c ****     /* Read the data from the FIFO (or capture register for Fixed Function)*/
 369:Generated_Source\PSoC5/PingSensorTrigCounter.c ****     #if(PingSensorTrigCounter_UsingFixedFunction)
 370:Generated_Source\PSoC5/PingSensorTrigCounter.c ****         return ((uint8)CY_GET_REG16(PingSensorTrigCounter_STATICCOUNT_LSB_PTR));
 547              		.loc 1 370 0
 548 0008 044B     		ldr	r3, .L34+4
 549 000a 1B88     		ldrh	r3, [r3]	@ movhi
 550 000c 9BB2     		uxth	r3, r3
 551 000e DBB2     		uxtb	r3, r3
 371:Generated_Source\PSoC5/PingSensorTrigCounter.c ****     #else
 372:Generated_Source\PSoC5/PingSensorTrigCounter.c ****         return (CY_GET_REG8(PingSensorTrigCounter_STATICCOUNT_LSB_PTR));
 373:Generated_Source\PSoC5/PingSensorTrigCounter.c ****     #endif /* (PingSensorTrigCounter_UsingFixedFunction) */
 374:Generated_Source\PSoC5/PingSensorTrigCounter.c **** }
 552              		.loc 1 374 0
 553 0010 1846     		mov	r0, r3
 554 0012 BD46     		mov	sp, r7
 555              		.cfi_def_cfa_register 13
 556              		@ sp needed
 557 0014 80BC     		pop	{r7}
 558              		.cfi_restore 7
 559              		.cfi_def_cfa_offset 0
 560 0016 7047     		bx	lr
 561              	.L35:
 562              		.align	2
 563              	.L34:
 564 0018 064F0040 		.word	1073762054
 565 001c 084F0040 		.word	1073762056
 566              		.cfi_endproc
 567              	.LFE9:
 568              		.size	PingSensorTrigCounter_ReadCounter, .-PingSensorTrigCounter_ReadCounter
 569              		.section	.text.PingSensorTrigCounter_ReadCapture,"ax",%progbits
 570              		.align	2
 571              		.global	PingSensorTrigCounter_ReadCapture
 572              		.thumb
 573              		.thumb_func
 574              		.type	PingSensorTrigCounter_ReadCapture, %function
 575              	PingSensorTrigCounter_ReadCapture:
 576              	.LFB10:
 375:Generated_Source\PSoC5/PingSensorTrigCounter.c **** 
 376:Generated_Source\PSoC5/PingSensorTrigCounter.c **** 
 377:Generated_Source\PSoC5/PingSensorTrigCounter.c **** /*******************************************************************************
 378:Generated_Source\PSoC5/PingSensorTrigCounter.c **** * Function Name: PingSensorTrigCounter_ReadCapture
 379:Generated_Source\PSoC5/PingSensorTrigCounter.c **** ********************************************************************************
 380:Generated_Source\PSoC5/PingSensorTrigCounter.c **** * Summary:
 381:Generated_Source\PSoC5/PingSensorTrigCounter.c **** *   This function returns the last value captured.
 382:Generated_Source\PSoC5/PingSensorTrigCounter.c **** *
 383:Generated_Source\PSoC5/PingSensorTrigCounter.c **** * Parameters:  
 384:Generated_Source\PSoC5/PingSensorTrigCounter.c **** *  void
 385:Generated_Source\PSoC5/PingSensorTrigCounter.c **** *
 386:Generated_Source\PSoC5/PingSensorTrigCounter.c **** * Return: 
 387:Generated_Source\PSoC5/PingSensorTrigCounter.c **** *  (uint8) Present Capture value.
 388:Generated_Source\PSoC5/PingSensorTrigCounter.c **** *
 389:Generated_Source\PSoC5/PingSensorTrigCounter.c **** *******************************************************************************/
 390:Generated_Source\PSoC5/PingSensorTrigCounter.c **** uint8 PingSensorTrigCounter_ReadCapture(void) 
 391:Generated_Source\PSoC5/PingSensorTrigCounter.c **** {
 577              		.loc 1 391 0
 578              		.cfi_startproc
ARM GAS  C:\Users\tpbw4321\AppData\Local\Temp\cc6BUzHo.s 			page 18


 579              		@ args = 0, pretend = 0, frame = 0
 580              		@ frame_needed = 1, uses_anonymous_args = 0
 581              		@ link register save eliminated.
 582 0000 80B4     		push	{r7}
 583              		.cfi_def_cfa_offset 4
 584              		.cfi_offset 7, -4
 585 0002 00AF     		add	r7, sp, #0
 586              		.cfi_def_cfa_register 7
 392:Generated_Source\PSoC5/PingSensorTrigCounter.c ****     #if(PingSensorTrigCounter_UsingFixedFunction)
 393:Generated_Source\PSoC5/PingSensorTrigCounter.c ****         return ((uint8)CY_GET_REG16(PingSensorTrigCounter_STATICCOUNT_LSB_PTR));
 587              		.loc 1 393 0
 588 0004 034B     		ldr	r3, .L38
 589 0006 1B88     		ldrh	r3, [r3]	@ movhi
 590 0008 9BB2     		uxth	r3, r3
 591 000a DBB2     		uxtb	r3, r3
 394:Generated_Source\PSoC5/PingSensorTrigCounter.c ****     #else
 395:Generated_Source\PSoC5/PingSensorTrigCounter.c ****         return (CY_GET_REG8(PingSensorTrigCounter_STATICCOUNT_LSB_PTR));
 396:Generated_Source\PSoC5/PingSensorTrigCounter.c ****     #endif /* (PingSensorTrigCounter_UsingFixedFunction) */
 397:Generated_Source\PSoC5/PingSensorTrigCounter.c **** }
 592              		.loc 1 397 0
 593 000c 1846     		mov	r0, r3
 594 000e BD46     		mov	sp, r7
 595              		.cfi_def_cfa_register 13
 596              		@ sp needed
 597 0010 80BC     		pop	{r7}
 598              		.cfi_restore 7
 599              		.cfi_def_cfa_offset 0
 600 0012 7047     		bx	lr
 601              	.L39:
 602              		.align	2
 603              	.L38:
 604 0014 084F0040 		.word	1073762056
 605              		.cfi_endproc
 606              	.LFE10:
 607              		.size	PingSensorTrigCounter_ReadCapture, .-PingSensorTrigCounter_ReadCapture
 608              		.section	.text.PingSensorTrigCounter_WritePeriod,"ax",%progbits
 609              		.align	2
 610              		.global	PingSensorTrigCounter_WritePeriod
 611              		.thumb
 612              		.thumb_func
 613              		.type	PingSensorTrigCounter_WritePeriod, %function
 614              	PingSensorTrigCounter_WritePeriod:
 615              	.LFB11:
 398:Generated_Source\PSoC5/PingSensorTrigCounter.c **** 
 399:Generated_Source\PSoC5/PingSensorTrigCounter.c **** 
 400:Generated_Source\PSoC5/PingSensorTrigCounter.c **** /*******************************************************************************
 401:Generated_Source\PSoC5/PingSensorTrigCounter.c **** * Function Name: PingSensorTrigCounter_WritePeriod
 402:Generated_Source\PSoC5/PingSensorTrigCounter.c **** ********************************************************************************
 403:Generated_Source\PSoC5/PingSensorTrigCounter.c **** * Summary:
 404:Generated_Source\PSoC5/PingSensorTrigCounter.c **** * Changes the period of the counter.  The new period 
 405:Generated_Source\PSoC5/PingSensorTrigCounter.c **** * will be loaded the next time terminal count is detected.
 406:Generated_Source\PSoC5/PingSensorTrigCounter.c **** *
 407:Generated_Source\PSoC5/PingSensorTrigCounter.c **** * Parameters:  
 408:Generated_Source\PSoC5/PingSensorTrigCounter.c **** *  period: (uint8) A value of 0 will result in
 409:Generated_Source\PSoC5/PingSensorTrigCounter.c **** *         the counter remaining at zero.  
 410:Generated_Source\PSoC5/PingSensorTrigCounter.c **** *
 411:Generated_Source\PSoC5/PingSensorTrigCounter.c **** * Return: 
ARM GAS  C:\Users\tpbw4321\AppData\Local\Temp\cc6BUzHo.s 			page 19


 412:Generated_Source\PSoC5/PingSensorTrigCounter.c **** *  void
 413:Generated_Source\PSoC5/PingSensorTrigCounter.c **** *
 414:Generated_Source\PSoC5/PingSensorTrigCounter.c **** *******************************************************************************/
 415:Generated_Source\PSoC5/PingSensorTrigCounter.c **** void PingSensorTrigCounter_WritePeriod(uint8 period) 
 416:Generated_Source\PSoC5/PingSensorTrigCounter.c **** {
 616              		.loc 1 416 0
 617              		.cfi_startproc
 618              		@ args = 0, pretend = 0, frame = 8
 619              		@ frame_needed = 1, uses_anonymous_args = 0
 620              		@ link register save eliminated.
 621 0000 80B4     		push	{r7}
 622              		.cfi_def_cfa_offset 4
 623              		.cfi_offset 7, -4
 624 0002 83B0     		sub	sp, sp, #12
 625              		.cfi_def_cfa_offset 16
 626 0004 00AF     		add	r7, sp, #0
 627              		.cfi_def_cfa_register 7
 628 0006 0346     		mov	r3, r0
 629 0008 FB71     		strb	r3, [r7, #7]
 417:Generated_Source\PSoC5/PingSensorTrigCounter.c ****     #if(PingSensorTrigCounter_UsingFixedFunction)
 418:Generated_Source\PSoC5/PingSensorTrigCounter.c ****         CY_SET_REG16(PingSensorTrigCounter_PERIOD_LSB_PTR,(uint16)period);
 630              		.loc 1 418 0
 631 000a 044B     		ldr	r3, .L41
 632 000c FA79     		ldrb	r2, [r7, #7]	@ zero_extendqisi2
 633 000e 92B2     		uxth	r2, r2
 634 0010 1A80     		strh	r2, [r3]	@ movhi
 419:Generated_Source\PSoC5/PingSensorTrigCounter.c ****     #else
 420:Generated_Source\PSoC5/PingSensorTrigCounter.c ****         CY_SET_REG8(PingSensorTrigCounter_PERIOD_LSB_PTR, period);
 421:Generated_Source\PSoC5/PingSensorTrigCounter.c ****     #endif /* (PingSensorTrigCounter_UsingFixedFunction) */
 422:Generated_Source\PSoC5/PingSensorTrigCounter.c **** }
 635              		.loc 1 422 0
 636 0012 00BF     		nop
 637 0014 0C37     		adds	r7, r7, #12
 638              		.cfi_def_cfa_offset 4
 639 0016 BD46     		mov	sp, r7
 640              		.cfi_def_cfa_register 13
 641              		@ sp needed
 642 0018 80BC     		pop	{r7}
 643              		.cfi_restore 7
 644              		.cfi_def_cfa_offset 0
 645 001a 7047     		bx	lr
 646              	.L42:
 647              		.align	2
 648              	.L41:
 649 001c 044F0040 		.word	1073762052
 650              		.cfi_endproc
 651              	.LFE11:
 652              		.size	PingSensorTrigCounter_WritePeriod, .-PingSensorTrigCounter_WritePeriod
 653              		.section	.text.PingSensorTrigCounter_ReadPeriod,"ax",%progbits
 654              		.align	2
 655              		.global	PingSensorTrigCounter_ReadPeriod
 656              		.thumb
 657              		.thumb_func
 658              		.type	PingSensorTrigCounter_ReadPeriod, %function
 659              	PingSensorTrigCounter_ReadPeriod:
 660              	.LFB12:
 423:Generated_Source\PSoC5/PingSensorTrigCounter.c **** 
ARM GAS  C:\Users\tpbw4321\AppData\Local\Temp\cc6BUzHo.s 			page 20


 424:Generated_Source\PSoC5/PingSensorTrigCounter.c **** 
 425:Generated_Source\PSoC5/PingSensorTrigCounter.c **** /*******************************************************************************
 426:Generated_Source\PSoC5/PingSensorTrigCounter.c **** * Function Name: PingSensorTrigCounter_ReadPeriod
 427:Generated_Source\PSoC5/PingSensorTrigCounter.c **** ********************************************************************************
 428:Generated_Source\PSoC5/PingSensorTrigCounter.c **** * Summary:
 429:Generated_Source\PSoC5/PingSensorTrigCounter.c **** * Reads the current period value without affecting counter operation.
 430:Generated_Source\PSoC5/PingSensorTrigCounter.c **** *
 431:Generated_Source\PSoC5/PingSensorTrigCounter.c **** * Parameters:  
 432:Generated_Source\PSoC5/PingSensorTrigCounter.c **** *  void:  
 433:Generated_Source\PSoC5/PingSensorTrigCounter.c **** *
 434:Generated_Source\PSoC5/PingSensorTrigCounter.c **** * Return: 
 435:Generated_Source\PSoC5/PingSensorTrigCounter.c **** *  (uint8) Present period value.
 436:Generated_Source\PSoC5/PingSensorTrigCounter.c **** *
 437:Generated_Source\PSoC5/PingSensorTrigCounter.c **** *******************************************************************************/
 438:Generated_Source\PSoC5/PingSensorTrigCounter.c **** uint8 PingSensorTrigCounter_ReadPeriod(void) 
 439:Generated_Source\PSoC5/PingSensorTrigCounter.c **** {
 661              		.loc 1 439 0
 662              		.cfi_startproc
 663              		@ args = 0, pretend = 0, frame = 0
 664              		@ frame_needed = 1, uses_anonymous_args = 0
 665              		@ link register save eliminated.
 666 0000 80B4     		push	{r7}
 667              		.cfi_def_cfa_offset 4
 668              		.cfi_offset 7, -4
 669 0002 00AF     		add	r7, sp, #0
 670              		.cfi_def_cfa_register 7
 440:Generated_Source\PSoC5/PingSensorTrigCounter.c ****     #if(PingSensorTrigCounter_UsingFixedFunction)
 441:Generated_Source\PSoC5/PingSensorTrigCounter.c ****         return ((uint8)CY_GET_REG16(PingSensorTrigCounter_PERIOD_LSB_PTR));
 671              		.loc 1 441 0
 672 0004 034B     		ldr	r3, .L45
 673 0006 1B88     		ldrh	r3, [r3]	@ movhi
 674 0008 9BB2     		uxth	r3, r3
 675 000a DBB2     		uxtb	r3, r3
 442:Generated_Source\PSoC5/PingSensorTrigCounter.c ****     #else
 443:Generated_Source\PSoC5/PingSensorTrigCounter.c ****         return (CY_GET_REG8(PingSensorTrigCounter_PERIOD_LSB_PTR));
 444:Generated_Source\PSoC5/PingSensorTrigCounter.c ****     #endif /* (PingSensorTrigCounter_UsingFixedFunction) */
 445:Generated_Source\PSoC5/PingSensorTrigCounter.c **** }
 676              		.loc 1 445 0
 677 000c 1846     		mov	r0, r3
 678 000e BD46     		mov	sp, r7
 679              		.cfi_def_cfa_register 13
 680              		@ sp needed
 681 0010 80BC     		pop	{r7}
 682              		.cfi_restore 7
 683              		.cfi_def_cfa_offset 0
 684 0012 7047     		bx	lr
 685              	.L46:
 686              		.align	2
 687              	.L45:
 688 0014 044F0040 		.word	1073762052
 689              		.cfi_endproc
 690              	.LFE12:
 691              		.size	PingSensorTrigCounter_ReadPeriod, .-PingSensorTrigCounter_ReadPeriod
 692              		.text
 693              	.Letext0:
 694              		.file 2 "Generated_Source\\PSoC5\\cytypes.h"
 695              		.section	.debug_info,"",%progbits
ARM GAS  C:\Users\tpbw4321\AppData\Local\Temp\cc6BUzHo.s 			page 21


 696              	.Ldebug_info0:
 697 0000 1E020000 		.4byte	0x21e
 698 0004 0400     		.2byte	0x4
 699 0006 00000000 		.4byte	.Ldebug_abbrev0
 700 000a 04       		.byte	0x4
 701 000b 01       		.uleb128 0x1
 702 000c 31000000 		.4byte	.LASF35
 703 0010 0C       		.byte	0xc
 704 0011 25010000 		.4byte	.LASF36
 705 0015 A8010000 		.4byte	.LASF37
 706 0019 00000000 		.4byte	.Ldebug_ranges0+0
 707 001d 00000000 		.4byte	0
 708 0021 00000000 		.4byte	.Ldebug_line0
 709 0025 02       		.uleb128 0x2
 710 0026 01       		.byte	0x1
 711 0027 06       		.byte	0x6
 712 0028 FB030000 		.4byte	.LASF0
 713 002c 02       		.uleb128 0x2
 714 002d 01       		.byte	0x1
 715 002e 08       		.byte	0x8
 716 002f 64020000 		.4byte	.LASF1
 717 0033 02       		.uleb128 0x2
 718 0034 02       		.byte	0x2
 719 0035 05       		.byte	0x5
 720 0036 99030000 		.4byte	.LASF2
 721 003a 02       		.uleb128 0x2
 722 003b 02       		.byte	0x2
 723 003c 07       		.byte	0x7
 724 003d 12010000 		.4byte	.LASF3
 725 0041 02       		.uleb128 0x2
 726 0042 04       		.byte	0x4
 727 0043 05       		.byte	0x5
 728 0044 E6030000 		.4byte	.LASF4
 729 0048 02       		.uleb128 0x2
 730 0049 04       		.byte	0x4
 731 004a 07       		.byte	0x7
 732 004b 77020000 		.4byte	.LASF5
 733 004f 02       		.uleb128 0x2
 734 0050 08       		.byte	0x8
 735 0051 05       		.byte	0x5
 736 0052 63030000 		.4byte	.LASF6
 737 0056 02       		.uleb128 0x2
 738 0057 08       		.byte	0x8
 739 0058 07       		.byte	0x7
 740 0059 43030000 		.4byte	.LASF7
 741 005d 03       		.uleb128 0x3
 742 005e 04       		.byte	0x4
 743 005f 05       		.byte	0x5
 744 0060 696E7400 		.ascii	"int\000"
 745 0064 02       		.uleb128 0x2
 746 0065 04       		.byte	0x4
 747 0066 07       		.byte	0x7
 748 0067 54010000 		.4byte	.LASF8
 749 006b 04       		.uleb128 0x4
 750 006c 89020000 		.4byte	.LASF9
 751 0070 02       		.byte	0x2
 752 0071 9201     		.2byte	0x192
ARM GAS  C:\Users\tpbw4321\AppData\Local\Temp\cc6BUzHo.s 			page 22


 753 0073 2C000000 		.4byte	0x2c
 754 0077 04       		.uleb128 0x4
 755 0078 FE020000 		.4byte	.LASF10
 756 007c 02       		.byte	0x2
 757 007d 9301     		.2byte	0x193
 758 007f 3A000000 		.4byte	0x3a
 759 0083 02       		.uleb128 0x2
 760 0084 04       		.byte	0x4
 761 0085 04       		.byte	0x4
 762 0086 2D020000 		.4byte	.LASF11
 763 008a 02       		.uleb128 0x2
 764 008b 08       		.byte	0x8
 765 008c 04       		.byte	0x4
 766 008d D9020000 		.4byte	.LASF12
 767 0091 02       		.uleb128 0x2
 768 0092 01       		.byte	0x1
 769 0093 08       		.byte	0x8
 770 0094 71030000 		.4byte	.LASF13
 771 0098 04       		.uleb128 0x4
 772 0099 72020000 		.4byte	.LASF14
 773 009d 02       		.byte	0x2
 774 009e 3C02     		.2byte	0x23c
 775 00a0 A4000000 		.4byte	0xa4
 776 00a4 05       		.uleb128 0x5
 777 00a5 6B000000 		.4byte	0x6b
 778 00a9 04       		.uleb128 0x4
 779 00aa 00000000 		.4byte	.LASF15
 780 00ae 02       		.byte	0x2
 781 00af 3D02     		.2byte	0x23d
 782 00b1 B5000000 		.4byte	0xb5
 783 00b5 05       		.uleb128 0x5
 784 00b6 77000000 		.4byte	0x77
 785 00ba 02       		.uleb128 0x2
 786 00bb 08       		.byte	0x8
 787 00bc 04       		.byte	0x4
 788 00bd EF030000 		.4byte	.LASF16
 789 00c1 02       		.uleb128 0x2
 790 00c2 04       		.byte	0x4
 791 00c3 07       		.byte	0x7
 792 00c4 5A030000 		.4byte	.LASF17
 793 00c8 06       		.uleb128 0x6
 794 00c9 E1000000 		.4byte	.LASF18
 795 00cd 01       		.byte	0x1
 796 00ce 25       		.byte	0x25
 797 00cf 00000000 		.4byte	.LFB0
 798 00d3 AC000000 		.4byte	.LFE0-.LFB0
 799 00d7 01       		.uleb128 0x1
 800 00d8 9C       		.byte	0x9c
 801 00d9 07       		.uleb128 0x7
 802 00da 8B010000 		.4byte	.LASF19
 803 00de 01       		.byte	0x1
 804 00df 8F       		.byte	0x8f
 805 00e0 00000000 		.4byte	.LFB1
 806 00e4 48000000 		.4byte	.LFE1-.LFB1
 807 00e8 01       		.uleb128 0x1
 808 00e9 9C       		.byte	0x9c
 809 00ea 06       		.uleb128 0x6
ARM GAS  C:\Users\tpbw4321\AppData\Local\Temp\cc6BUzHo.s 			page 23


 810 00eb 05030000 		.4byte	.LASF20
 811 00ef 01       		.byte	0x1
 812 00f0 B2       		.byte	0xb2
 813 00f1 00000000 		.4byte	.LFB2
 814 00f5 24000000 		.4byte	.LFE2-.LFB2
 815 00f9 01       		.uleb128 0x1
 816 00fa 9C       		.byte	0x9c
 817 00fb 07       		.uleb128 0x7
 818 00fc BE020000 		.4byte	.LASF21
 819 0100 01       		.byte	0x1
 820 0101 D0       		.byte	0xd0
 821 0102 00000000 		.4byte	.LFB3
 822 0106 48000000 		.4byte	.LFE3-.LFB3
 823 010a 01       		.uleb128 0x1
 824 010b 9C       		.byte	0x9c
 825 010c 08       		.uleb128 0x8
 826 010d 97020000 		.4byte	.LASF24
 827 0111 01       		.byte	0x1
 828 0112 ED       		.byte	0xed
 829 0113 00000000 		.4byte	.LFB4
 830 0117 20000000 		.4byte	.LFE4-.LFB4
 831 011b 01       		.uleb128 0x1
 832 011c 9C       		.byte	0x9c
 833 011d 30010000 		.4byte	0x130
 834 0121 09       		.uleb128 0x9
 835 0122 FC000000 		.4byte	.LASF26
 836 0126 01       		.byte	0x1
 837 0127 ED       		.byte	0xed
 838 0128 6B000000 		.4byte	0x6b
 839 012c 02       		.uleb128 0x2
 840 012d 91       		.byte	0x91
 841 012e 77       		.sleb128 -9
 842 012f 00       		.byte	0
 843 0130 0A       		.uleb128 0xa
 844 0131 3B020000 		.4byte	.LASF22
 845 0135 01       		.byte	0x1
 846 0136 0501     		.2byte	0x105
 847 0138 6B000000 		.4byte	0x6b
 848 013c 00000000 		.4byte	.LFB5
 849 0140 18000000 		.4byte	.LFE5-.LFB5
 850 0144 01       		.uleb128 0x1
 851 0145 9C       		.byte	0x9c
 852 0146 0A       		.uleb128 0xa
 853 0147 61010000 		.4byte	.LASF23
 854 014b 01       		.byte	0x1
 855 014c 1B01     		.2byte	0x11b
 856 014e 6B000000 		.4byte	0x6b
 857 0152 00000000 		.4byte	.LFB6
 858 0156 18000000 		.4byte	.LFE6-.LFB6
 859 015a 01       		.uleb128 0x1
 860 015b 9C       		.byte	0x9c
 861 015c 0B       		.uleb128 0xb
 862 015d 06000000 		.4byte	.LASF25
 863 0161 01       		.byte	0x1
 864 0162 3001     		.2byte	0x130
 865 0164 00000000 		.4byte	.LFB7
 866 0168 20000000 		.4byte	.LFE7-.LFB7
ARM GAS  C:\Users\tpbw4321\AppData\Local\Temp\cc6BUzHo.s 			page 24


 867 016c 01       		.uleb128 0x1
 868 016d 9C       		.byte	0x9c
 869 016e 82010000 		.4byte	0x182
 870 0172 0C       		.uleb128 0xc
 871 0173 8F020000 		.4byte	.LASF27
 872 0177 01       		.byte	0x1
 873 0178 3001     		.2byte	0x130
 874 017a 6B000000 		.4byte	0x6b
 875 017e 02       		.uleb128 0x2
 876 017f 91       		.byte	0x91
 877 0180 77       		.sleb128 -9
 878 0181 00       		.byte	0
 879 0182 0D       		.uleb128 0xd
 880 0183 76030000 		.4byte	.LASF28
 881 0187 01       		.byte	0x1
 882 0188 4601     		.2byte	0x146
 883 018a 00000000 		.4byte	.LFB8
 884 018e 58000000 		.4byte	.LFE8-.LFB8
 885 0192 01       		.uleb128 0x1
 886 0193 9C       		.byte	0x9c
 887 0194 A8010000 		.4byte	0x1a8
 888 0198 0C       		.uleb128 0xc
 889 0199 33020000 		.4byte	.LASF29
 890 019d 01       		.byte	0x1
 891 019e 4601     		.2byte	0x146
 892 01a0 6B000000 		.4byte	0x6b
 893 01a4 02       		.uleb128 0x2
 894 01a5 91       		.byte	0x91
 895 01a6 77       		.sleb128 -9
 896 01a7 00       		.byte	0
 897 01a8 0A       		.uleb128 0xa
 898 01a9 C4030000 		.4byte	.LASF30
 899 01ad 01       		.byte	0x1
 900 01ae 6501     		.2byte	0x165
 901 01b0 6B000000 		.4byte	0x6b
 902 01b4 00000000 		.4byte	.LFB9
 903 01b8 20000000 		.4byte	.LFE9-.LFB9
 904 01bc 01       		.uleb128 0x1
 905 01bd 9C       		.byte	0x9c
 906 01be 0A       		.uleb128 0xa
 907 01bf 21030000 		.4byte	.LASF31
 908 01c3 01       		.byte	0x1
 909 01c4 8601     		.2byte	0x186
 910 01c6 6B000000 		.4byte	0x6b
 911 01ca 00000000 		.4byte	.LFB10
 912 01ce 18000000 		.4byte	.LFE10-.LFB10
 913 01d2 01       		.uleb128 0x1
 914 01d3 9C       		.byte	0x9c
 915 01d4 0B       		.uleb128 0xb
 916 01d5 BF000000 		.4byte	.LASF32
 917 01d9 01       		.byte	0x1
 918 01da 9F01     		.2byte	0x19f
 919 01dc 00000000 		.4byte	.LFB11
 920 01e0 20000000 		.4byte	.LFE11-.LFB11
 921 01e4 01       		.uleb128 0x1
 922 01e5 9C       		.byte	0x9c
 923 01e6 FA010000 		.4byte	0x1fa
ARM GAS  C:\Users\tpbw4321\AppData\Local\Temp\cc6BUzHo.s 			page 25


 924 01ea 0C       		.uleb128 0xc
 925 01eb 0B010000 		.4byte	.LASF33
 926 01ef 01       		.byte	0x1
 927 01f0 9F01     		.2byte	0x19f
 928 01f2 6B000000 		.4byte	0x6b
 929 01f6 02       		.uleb128 0x2
 930 01f7 91       		.byte	0x91
 931 01f8 77       		.sleb128 -9
 932 01f9 00       		.byte	0
 933 01fa 0A       		.uleb128 0xa
 934 01fb A3030000 		.4byte	.LASF34
 935 01ff 01       		.byte	0x1
 936 0200 B601     		.2byte	0x1b6
 937 0202 6B000000 		.4byte	0x6b
 938 0206 00000000 		.4byte	.LFB12
 939 020a 18000000 		.4byte	.LFE12-.LFB12
 940 020e 01       		.uleb128 0x1
 941 020f 9C       		.byte	0x9c
 942 0210 0E       		.uleb128 0xe
 943 0211 E0020000 		.4byte	.LASF38
 944 0215 01       		.byte	0x1
 945 0216 15       		.byte	0x15
 946 0217 6B000000 		.4byte	0x6b
 947 021b 05       		.uleb128 0x5
 948 021c 03       		.byte	0x3
 949 021d 00000000 		.4byte	PingSensorTrigCounter_initVar
 950 0221 00       		.byte	0
 951              		.section	.debug_abbrev,"",%progbits
 952              	.Ldebug_abbrev0:
 953 0000 01       		.uleb128 0x1
 954 0001 11       		.uleb128 0x11
 955 0002 01       		.byte	0x1
 956 0003 25       		.uleb128 0x25
 957 0004 0E       		.uleb128 0xe
 958 0005 13       		.uleb128 0x13
 959 0006 0B       		.uleb128 0xb
 960 0007 03       		.uleb128 0x3
 961 0008 0E       		.uleb128 0xe
 962 0009 1B       		.uleb128 0x1b
 963 000a 0E       		.uleb128 0xe
 964 000b 55       		.uleb128 0x55
 965 000c 17       		.uleb128 0x17
 966 000d 11       		.uleb128 0x11
 967 000e 01       		.uleb128 0x1
 968 000f 10       		.uleb128 0x10
 969 0010 17       		.uleb128 0x17
 970 0011 00       		.byte	0
 971 0012 00       		.byte	0
 972 0013 02       		.uleb128 0x2
 973 0014 24       		.uleb128 0x24
 974 0015 00       		.byte	0
 975 0016 0B       		.uleb128 0xb
 976 0017 0B       		.uleb128 0xb
 977 0018 3E       		.uleb128 0x3e
 978 0019 0B       		.uleb128 0xb
 979 001a 03       		.uleb128 0x3
 980 001b 0E       		.uleb128 0xe
ARM GAS  C:\Users\tpbw4321\AppData\Local\Temp\cc6BUzHo.s 			page 26


 981 001c 00       		.byte	0
 982 001d 00       		.byte	0
 983 001e 03       		.uleb128 0x3
 984 001f 24       		.uleb128 0x24
 985 0020 00       		.byte	0
 986 0021 0B       		.uleb128 0xb
 987 0022 0B       		.uleb128 0xb
 988 0023 3E       		.uleb128 0x3e
 989 0024 0B       		.uleb128 0xb
 990 0025 03       		.uleb128 0x3
 991 0026 08       		.uleb128 0x8
 992 0027 00       		.byte	0
 993 0028 00       		.byte	0
 994 0029 04       		.uleb128 0x4
 995 002a 16       		.uleb128 0x16
 996 002b 00       		.byte	0
 997 002c 03       		.uleb128 0x3
 998 002d 0E       		.uleb128 0xe
 999 002e 3A       		.uleb128 0x3a
 1000 002f 0B       		.uleb128 0xb
 1001 0030 3B       		.uleb128 0x3b
 1002 0031 05       		.uleb128 0x5
 1003 0032 49       		.uleb128 0x49
 1004 0033 13       		.uleb128 0x13
 1005 0034 00       		.byte	0
 1006 0035 00       		.byte	0
 1007 0036 05       		.uleb128 0x5
 1008 0037 35       		.uleb128 0x35
 1009 0038 00       		.byte	0
 1010 0039 49       		.uleb128 0x49
 1011 003a 13       		.uleb128 0x13
 1012 003b 00       		.byte	0
 1013 003c 00       		.byte	0
 1014 003d 06       		.uleb128 0x6
 1015 003e 2E       		.uleb128 0x2e
 1016 003f 00       		.byte	0
 1017 0040 3F       		.uleb128 0x3f
 1018 0041 19       		.uleb128 0x19
 1019 0042 03       		.uleb128 0x3
 1020 0043 0E       		.uleb128 0xe
 1021 0044 3A       		.uleb128 0x3a
 1022 0045 0B       		.uleb128 0xb
 1023 0046 3B       		.uleb128 0x3b
 1024 0047 0B       		.uleb128 0xb
 1025 0048 27       		.uleb128 0x27
 1026 0049 19       		.uleb128 0x19
 1027 004a 11       		.uleb128 0x11
 1028 004b 01       		.uleb128 0x1
 1029 004c 12       		.uleb128 0x12
 1030 004d 06       		.uleb128 0x6
 1031 004e 40       		.uleb128 0x40
 1032 004f 18       		.uleb128 0x18
 1033 0050 9642     		.uleb128 0x2116
 1034 0052 19       		.uleb128 0x19
 1035 0053 00       		.byte	0
 1036 0054 00       		.byte	0
 1037 0055 07       		.uleb128 0x7
ARM GAS  C:\Users\tpbw4321\AppData\Local\Temp\cc6BUzHo.s 			page 27


 1038 0056 2E       		.uleb128 0x2e
 1039 0057 00       		.byte	0
 1040 0058 3F       		.uleb128 0x3f
 1041 0059 19       		.uleb128 0x19
 1042 005a 03       		.uleb128 0x3
 1043 005b 0E       		.uleb128 0xe
 1044 005c 3A       		.uleb128 0x3a
 1045 005d 0B       		.uleb128 0xb
 1046 005e 3B       		.uleb128 0x3b
 1047 005f 0B       		.uleb128 0xb
 1048 0060 27       		.uleb128 0x27
 1049 0061 19       		.uleb128 0x19
 1050 0062 11       		.uleb128 0x11
 1051 0063 01       		.uleb128 0x1
 1052 0064 12       		.uleb128 0x12
 1053 0065 06       		.uleb128 0x6
 1054 0066 40       		.uleb128 0x40
 1055 0067 18       		.uleb128 0x18
 1056 0068 9742     		.uleb128 0x2117
 1057 006a 19       		.uleb128 0x19
 1058 006b 00       		.byte	0
 1059 006c 00       		.byte	0
 1060 006d 08       		.uleb128 0x8
 1061 006e 2E       		.uleb128 0x2e
 1062 006f 01       		.byte	0x1
 1063 0070 3F       		.uleb128 0x3f
 1064 0071 19       		.uleb128 0x19
 1065 0072 03       		.uleb128 0x3
 1066 0073 0E       		.uleb128 0xe
 1067 0074 3A       		.uleb128 0x3a
 1068 0075 0B       		.uleb128 0xb
 1069 0076 3B       		.uleb128 0x3b
 1070 0077 0B       		.uleb128 0xb
 1071 0078 27       		.uleb128 0x27
 1072 0079 19       		.uleb128 0x19
 1073 007a 11       		.uleb128 0x11
 1074 007b 01       		.uleb128 0x1
 1075 007c 12       		.uleb128 0x12
 1076 007d 06       		.uleb128 0x6
 1077 007e 40       		.uleb128 0x40
 1078 007f 18       		.uleb128 0x18
 1079 0080 9742     		.uleb128 0x2117
 1080 0082 19       		.uleb128 0x19
 1081 0083 01       		.uleb128 0x1
 1082 0084 13       		.uleb128 0x13
 1083 0085 00       		.byte	0
 1084 0086 00       		.byte	0
 1085 0087 09       		.uleb128 0x9
 1086 0088 05       		.uleb128 0x5
 1087 0089 00       		.byte	0
 1088 008a 03       		.uleb128 0x3
 1089 008b 0E       		.uleb128 0xe
 1090 008c 3A       		.uleb128 0x3a
 1091 008d 0B       		.uleb128 0xb
 1092 008e 3B       		.uleb128 0x3b
 1093 008f 0B       		.uleb128 0xb
 1094 0090 49       		.uleb128 0x49
ARM GAS  C:\Users\tpbw4321\AppData\Local\Temp\cc6BUzHo.s 			page 28


 1095 0091 13       		.uleb128 0x13
 1096 0092 02       		.uleb128 0x2
 1097 0093 18       		.uleb128 0x18
 1098 0094 00       		.byte	0
 1099 0095 00       		.byte	0
 1100 0096 0A       		.uleb128 0xa
 1101 0097 2E       		.uleb128 0x2e
 1102 0098 00       		.byte	0
 1103 0099 3F       		.uleb128 0x3f
 1104 009a 19       		.uleb128 0x19
 1105 009b 03       		.uleb128 0x3
 1106 009c 0E       		.uleb128 0xe
 1107 009d 3A       		.uleb128 0x3a
 1108 009e 0B       		.uleb128 0xb
 1109 009f 3B       		.uleb128 0x3b
 1110 00a0 05       		.uleb128 0x5
 1111 00a1 27       		.uleb128 0x27
 1112 00a2 19       		.uleb128 0x19
 1113 00a3 49       		.uleb128 0x49
 1114 00a4 13       		.uleb128 0x13
 1115 00a5 11       		.uleb128 0x11
 1116 00a6 01       		.uleb128 0x1
 1117 00a7 12       		.uleb128 0x12
 1118 00a8 06       		.uleb128 0x6
 1119 00a9 40       		.uleb128 0x40
 1120 00aa 18       		.uleb128 0x18
 1121 00ab 9742     		.uleb128 0x2117
 1122 00ad 19       		.uleb128 0x19
 1123 00ae 00       		.byte	0
 1124 00af 00       		.byte	0
 1125 00b0 0B       		.uleb128 0xb
 1126 00b1 2E       		.uleb128 0x2e
 1127 00b2 01       		.byte	0x1
 1128 00b3 3F       		.uleb128 0x3f
 1129 00b4 19       		.uleb128 0x19
 1130 00b5 03       		.uleb128 0x3
 1131 00b6 0E       		.uleb128 0xe
 1132 00b7 3A       		.uleb128 0x3a
 1133 00b8 0B       		.uleb128 0xb
 1134 00b9 3B       		.uleb128 0x3b
 1135 00ba 05       		.uleb128 0x5
 1136 00bb 27       		.uleb128 0x27
 1137 00bc 19       		.uleb128 0x19
 1138 00bd 11       		.uleb128 0x11
 1139 00be 01       		.uleb128 0x1
 1140 00bf 12       		.uleb128 0x12
 1141 00c0 06       		.uleb128 0x6
 1142 00c1 40       		.uleb128 0x40
 1143 00c2 18       		.uleb128 0x18
 1144 00c3 9742     		.uleb128 0x2117
 1145 00c5 19       		.uleb128 0x19
 1146 00c6 01       		.uleb128 0x1
 1147 00c7 13       		.uleb128 0x13
 1148 00c8 00       		.byte	0
 1149 00c9 00       		.byte	0
 1150 00ca 0C       		.uleb128 0xc
 1151 00cb 05       		.uleb128 0x5
ARM GAS  C:\Users\tpbw4321\AppData\Local\Temp\cc6BUzHo.s 			page 29


 1152 00cc 00       		.byte	0
 1153 00cd 03       		.uleb128 0x3
 1154 00ce 0E       		.uleb128 0xe
 1155 00cf 3A       		.uleb128 0x3a
 1156 00d0 0B       		.uleb128 0xb
 1157 00d1 3B       		.uleb128 0x3b
 1158 00d2 05       		.uleb128 0x5
 1159 00d3 49       		.uleb128 0x49
 1160 00d4 13       		.uleb128 0x13
 1161 00d5 02       		.uleb128 0x2
 1162 00d6 18       		.uleb128 0x18
 1163 00d7 00       		.byte	0
 1164 00d8 00       		.byte	0
 1165 00d9 0D       		.uleb128 0xd
 1166 00da 2E       		.uleb128 0x2e
 1167 00db 01       		.byte	0x1
 1168 00dc 3F       		.uleb128 0x3f
 1169 00dd 19       		.uleb128 0x19
 1170 00de 03       		.uleb128 0x3
 1171 00df 0E       		.uleb128 0xe
 1172 00e0 3A       		.uleb128 0x3a
 1173 00e1 0B       		.uleb128 0xb
 1174 00e2 3B       		.uleb128 0x3b
 1175 00e3 05       		.uleb128 0x5
 1176 00e4 27       		.uleb128 0x27
 1177 00e5 19       		.uleb128 0x19
 1178 00e6 11       		.uleb128 0x11
 1179 00e7 01       		.uleb128 0x1
 1180 00e8 12       		.uleb128 0x12
 1181 00e9 06       		.uleb128 0x6
 1182 00ea 40       		.uleb128 0x40
 1183 00eb 18       		.uleb128 0x18
 1184 00ec 9642     		.uleb128 0x2116
 1185 00ee 19       		.uleb128 0x19
 1186 00ef 01       		.uleb128 0x1
 1187 00f0 13       		.uleb128 0x13
 1188 00f1 00       		.byte	0
 1189 00f2 00       		.byte	0
 1190 00f3 0E       		.uleb128 0xe
 1191 00f4 34       		.uleb128 0x34
 1192 00f5 00       		.byte	0
 1193 00f6 03       		.uleb128 0x3
 1194 00f7 0E       		.uleb128 0xe
 1195 00f8 3A       		.uleb128 0x3a
 1196 00f9 0B       		.uleb128 0xb
 1197 00fa 3B       		.uleb128 0x3b
 1198 00fb 0B       		.uleb128 0xb
 1199 00fc 49       		.uleb128 0x49
 1200 00fd 13       		.uleb128 0x13
 1201 00fe 3F       		.uleb128 0x3f
 1202 00ff 19       		.uleb128 0x19
 1203 0100 02       		.uleb128 0x2
 1204 0101 18       		.uleb128 0x18
 1205 0102 00       		.byte	0
 1206 0103 00       		.byte	0
 1207 0104 00       		.byte	0
 1208              		.section	.debug_aranges,"",%progbits
ARM GAS  C:\Users\tpbw4321\AppData\Local\Temp\cc6BUzHo.s 			page 30


 1209 0000 7C000000 		.4byte	0x7c
 1210 0004 0200     		.2byte	0x2
 1211 0006 00000000 		.4byte	.Ldebug_info0
 1212 000a 04       		.byte	0x4
 1213 000b 00       		.byte	0
 1214 000c 0000     		.2byte	0
 1215 000e 0000     		.2byte	0
 1216 0010 00000000 		.4byte	.LFB0
 1217 0014 AC000000 		.4byte	.LFE0-.LFB0
 1218 0018 00000000 		.4byte	.LFB1
 1219 001c 48000000 		.4byte	.LFE1-.LFB1
 1220 0020 00000000 		.4byte	.LFB2
 1221 0024 24000000 		.4byte	.LFE2-.LFB2
 1222 0028 00000000 		.4byte	.LFB3
 1223 002c 48000000 		.4byte	.LFE3-.LFB3
 1224 0030 00000000 		.4byte	.LFB4
 1225 0034 20000000 		.4byte	.LFE4-.LFB4
 1226 0038 00000000 		.4byte	.LFB5
 1227 003c 18000000 		.4byte	.LFE5-.LFB5
 1228 0040 00000000 		.4byte	.LFB6
 1229 0044 18000000 		.4byte	.LFE6-.LFB6
 1230 0048 00000000 		.4byte	.LFB7
 1231 004c 20000000 		.4byte	.LFE7-.LFB7
 1232 0050 00000000 		.4byte	.LFB8
 1233 0054 58000000 		.4byte	.LFE8-.LFB8
 1234 0058 00000000 		.4byte	.LFB9
 1235 005c 20000000 		.4byte	.LFE9-.LFB9
 1236 0060 00000000 		.4byte	.LFB10
 1237 0064 18000000 		.4byte	.LFE10-.LFB10
 1238 0068 00000000 		.4byte	.LFB11
 1239 006c 20000000 		.4byte	.LFE11-.LFB11
 1240 0070 00000000 		.4byte	.LFB12
 1241 0074 18000000 		.4byte	.LFE12-.LFB12
 1242 0078 00000000 		.4byte	0
 1243 007c 00000000 		.4byte	0
 1244              		.section	.debug_ranges,"",%progbits
 1245              	.Ldebug_ranges0:
 1246 0000 00000000 		.4byte	.LFB0
 1247 0004 AC000000 		.4byte	.LFE0
 1248 0008 00000000 		.4byte	.LFB1
 1249 000c 48000000 		.4byte	.LFE1
 1250 0010 00000000 		.4byte	.LFB2
 1251 0014 24000000 		.4byte	.LFE2
 1252 0018 00000000 		.4byte	.LFB3
 1253 001c 48000000 		.4byte	.LFE3
 1254 0020 00000000 		.4byte	.LFB4
 1255 0024 20000000 		.4byte	.LFE4
 1256 0028 00000000 		.4byte	.LFB5
 1257 002c 18000000 		.4byte	.LFE5
 1258 0030 00000000 		.4byte	.LFB6
 1259 0034 18000000 		.4byte	.LFE6
 1260 0038 00000000 		.4byte	.LFB7
 1261 003c 20000000 		.4byte	.LFE7
 1262 0040 00000000 		.4byte	.LFB8
 1263 0044 58000000 		.4byte	.LFE8
 1264 0048 00000000 		.4byte	.LFB9
 1265 004c 20000000 		.4byte	.LFE9
ARM GAS  C:\Users\tpbw4321\AppData\Local\Temp\cc6BUzHo.s 			page 31


 1266 0050 00000000 		.4byte	.LFB10
 1267 0054 18000000 		.4byte	.LFE10
 1268 0058 00000000 		.4byte	.LFB11
 1269 005c 20000000 		.4byte	.LFE11
 1270 0060 00000000 		.4byte	.LFB12
 1271 0064 18000000 		.4byte	.LFE12
 1272 0068 00000000 		.4byte	0
 1273 006c 00000000 		.4byte	0
 1274              		.section	.debug_line,"",%progbits
 1275              	.Ldebug_line0:
 1276 0000 63010000 		.section	.debug_str,"MS",%progbits,1
 1276      02005200 
 1276      00000201 
 1276      FB0E0D00 
 1276      01010101 
 1277              	.LASF15:
 1278 0000 72656731 		.ascii	"reg16\000"
 1278      3600
 1279              	.LASF25:
 1280 0006 50696E67 		.ascii	"PingSensorTrigCounter_WriteControlRegister\000"
 1280      53656E73 
 1280      6F725472 
 1280      6967436F 
 1280      756E7465 
 1281              	.LASF35:
 1282 0031 474E5520 		.ascii	"GNU C11 5.4.1 20160609 (release) [ARM/embedded-5-br"
 1282      43313120 
 1282      352E342E 
 1282      31203230 
 1282      31363036 
 1283 0064 616E6368 		.ascii	"anch revision 237715] -mcpu=cortex-m3 -mthumb -g -O"
 1283      20726576 
 1283      6973696F 
 1283      6E203233 
 1283      37373135 
 1284 0097 30202D66 		.ascii	"0 -ffunction-sections -ffat-lto-objects\000"
 1284      66756E63 
 1284      74696F6E 
 1284      2D736563 
 1284      74696F6E 
 1285              	.LASF32:
 1286 00bf 50696E67 		.ascii	"PingSensorTrigCounter_WritePeriod\000"
 1286      53656E73 
 1286      6F725472 
 1286      6967436F 
 1286      756E7465 
 1287              	.LASF18:
 1288 00e1 50696E67 		.ascii	"PingSensorTrigCounter_Init\000"
 1288      53656E73 
 1288      6F725472 
 1288      6967436F 
 1288      756E7465 
 1289              	.LASF26:
 1290 00fc 696E7465 		.ascii	"interruptsMask\000"
 1290      72727570 
 1290      74734D61 
 1290      736B00
ARM GAS  C:\Users\tpbw4321\AppData\Local\Temp\cc6BUzHo.s 			page 32


 1291              	.LASF33:
 1292 010b 70657269 		.ascii	"period\000"
 1292      6F6400
 1293              	.LASF3:
 1294 0112 73686F72 		.ascii	"short unsigned int\000"
 1294      7420756E 
 1294      7369676E 
 1294      65642069 
 1294      6E7400
 1295              	.LASF36:
 1296 0125 47656E65 		.ascii	"Generated_Source\\PSoC5\\PingSensorTrigCounter.c\000"
 1296      72617465 
 1296      645F536F 
 1296      75726365 
 1296      5C50536F 
 1297              	.LASF8:
 1298 0154 756E7369 		.ascii	"unsigned int\000"
 1298      676E6564 
 1298      20696E74 
 1298      00
 1299              	.LASF23:
 1300 0161 50696E67 		.ascii	"PingSensorTrigCounter_ReadControlRegister\000"
 1300      53656E73 
 1300      6F725472 
 1300      6967436F 
 1300      756E7465 
 1301              	.LASF19:
 1302 018b 50696E67 		.ascii	"PingSensorTrigCounter_Enable\000"
 1302      53656E73 
 1302      6F725472 
 1302      6967436F 
 1302      756E7465 
 1303              	.LASF37:
 1304 01a8 433A5C55 		.ascii	"C:\\Users\\tpbw4321\\AppData\\Roaming\\SPB_Data\\Hy"
 1304      73657273 
 1304      5C747062 
 1304      77343332 
 1304      315C4170 
 1305 01d5 64726F70 		.ascii	"droponicsAutomation\\Designs\\Software\\Embedded\\P"
 1305      6F6E6963 
 1305      73417574 
 1305      6F6D6174 
 1305      696F6E5C 
 1306 0204 536F435C 		.ascii	"SoC\\HydroponicAutomationSensorPerf.cydsn\000"
 1306      48796472 
 1306      6F706F6E 
 1306      69634175 
 1306      746F6D61 
 1307              	.LASF11:
 1308 022d 666C6F61 		.ascii	"float\000"
 1308      7400
 1309              	.LASF29:
 1310 0233 636F756E 		.ascii	"counter\000"
 1310      74657200 
 1311              	.LASF22:
 1312 023b 50696E67 		.ascii	"PingSensorTrigCounter_ReadStatusRegister\000"
 1312      53656E73 
ARM GAS  C:\Users\tpbw4321\AppData\Local\Temp\cc6BUzHo.s 			page 33


 1312      6F725472 
 1312      6967436F 
 1312      756E7465 
 1313              	.LASF1:
 1314 0264 756E7369 		.ascii	"unsigned char\000"
 1314      676E6564 
 1314      20636861 
 1314      7200
 1315              	.LASF14:
 1316 0272 72656738 		.ascii	"reg8\000"
 1316      00
 1317              	.LASF5:
 1318 0277 6C6F6E67 		.ascii	"long unsigned int\000"
 1318      20756E73 
 1318      69676E65 
 1318      6420696E 
 1318      7400
 1319              	.LASF9:
 1320 0289 75696E74 		.ascii	"uint8\000"
 1320      3800
 1321              	.LASF27:
 1322 028f 636F6E74 		.ascii	"control\000"
 1322      726F6C00 
 1323              	.LASF24:
 1324 0297 50696E67 		.ascii	"PingSensorTrigCounter_SetInterruptMode\000"
 1324      53656E73 
 1324      6F725472 
 1324      6967436F 
 1324      756E7465 
 1325              	.LASF21:
 1326 02be 50696E67 		.ascii	"PingSensorTrigCounter_Stop\000"
 1326      53656E73 
 1326      6F725472 
 1326      6967436F 
 1326      756E7465 
 1327              	.LASF12:
 1328 02d9 646F7562 		.ascii	"double\000"
 1328      6C6500
 1329              	.LASF38:
 1330 02e0 50696E67 		.ascii	"PingSensorTrigCounter_initVar\000"
 1330      53656E73 
 1330      6F725472 
 1330      6967436F 
 1330      756E7465 
 1331              	.LASF10:
 1332 02fe 75696E74 		.ascii	"uint16\000"
 1332      313600
 1333              	.LASF20:
 1334 0305 50696E67 		.ascii	"PingSensorTrigCounter_Start\000"
 1334      53656E73 
 1334      6F725472 
 1334      6967436F 
 1334      756E7465 
 1335              	.LASF31:
 1336 0321 50696E67 		.ascii	"PingSensorTrigCounter_ReadCapture\000"
 1336      53656E73 
 1336      6F725472 
ARM GAS  C:\Users\tpbw4321\AppData\Local\Temp\cc6BUzHo.s 			page 34


 1336      6967436F 
 1336      756E7465 
 1337              	.LASF7:
 1338 0343 6C6F6E67 		.ascii	"long long unsigned int\000"
 1338      206C6F6E 
 1338      6720756E 
 1338      7369676E 
 1338      65642069 
 1339              	.LASF17:
 1340 035a 73697A65 		.ascii	"sizetype\000"
 1340      74797065 
 1340      00
 1341              	.LASF6:
 1342 0363 6C6F6E67 		.ascii	"long long int\000"
 1342      206C6F6E 
 1342      6720696E 
 1342      7400
 1343              	.LASF13:
 1344 0371 63686172 		.ascii	"char\000"
 1344      00
 1345              	.LASF28:
 1346 0376 50696E67 		.ascii	"PingSensorTrigCounter_WriteCounter\000"
 1346      53656E73 
 1346      6F725472 
 1346      6967436F 
 1346      756E7465 
 1347              	.LASF2:
 1348 0399 73686F72 		.ascii	"short int\000"
 1348      7420696E 
 1348      7400
 1349              	.LASF34:
 1350 03a3 50696E67 		.ascii	"PingSensorTrigCounter_ReadPeriod\000"
 1350      53656E73 
 1350      6F725472 
 1350      6967436F 
 1350      756E7465 
 1351              	.LASF30:
 1352 03c4 50696E67 		.ascii	"PingSensorTrigCounter_ReadCounter\000"
 1352      53656E73 
 1352      6F725472 
 1352      6967436F 
 1352      756E7465 
 1353              	.LASF4:
 1354 03e6 6C6F6E67 		.ascii	"long int\000"
 1354      20696E74 
 1354      00
 1355              	.LASF16:
 1356 03ef 6C6F6E67 		.ascii	"long double\000"
 1356      20646F75 
 1356      626C6500 
 1357              	.LASF0:
 1358 03fb 7369676E 		.ascii	"signed char\000"
 1358      65642063 
 1358      68617200 
 1359              		.ident	"GCC: (GNU Tools for ARM Embedded Processors) 5.4.1 20160609 (release) [ARM/embedded-5-bran
