ARM GAS  C:\Users\tpbw4321\AppData\Local\Temp\cc6BUzHo.s 			page 1


   1              		.syntax unified
   2              		.cpu cortex-m3
   3              		.fpu softvfp
   4              		.eabi_attribute 20, 1
   5              		.eabi_attribute 21, 1
   6              		.eabi_attribute 23, 3
   7              		.eabi_attribute 24, 1
   8              		.eabi_attribute 25, 1
   9              		.eabi_attribute 26, 1
  10              		.eabi_attribute 30, 6
  11              		.eabi_attribute 34, 1
  12              		.eabi_attribute 18, 4
  13              		.thumb
  14              		.syntax unified
  15              		.file	"PingSensorTrigCounter.c"
  16              		.text
  17              	.Ltext0:
  18              		.cfi_sections	.debug_frame
  19              		.global	PingSensorTrigCounter_initVar
  20              		.bss
  21              		.type	PingSensorTrigCounter_initVar, %object
  22              		.size	PingSensorTrigCounter_initVar, 1
  23              	PingSensorTrigCounter_initVar:
  24 0000 00       		.space	1
  25              		.section	.text.PingSensorTrigCounter_Init,"ax",%progbits
  26              		.align	2
  27              		.global	PingSensorTrigCounter_Init
  28              		.thumb
  29              		.thumb_func
  30              		.type	PingSensorTrigCounter_Init, %function
  31              	PingSensorTrigCounter_Init:
  32              	.LFB0:
  33              		.file 1 "Generated_Source\\PSoC5\\PingSensorTrigCounter.c"
   1:Generated_Source\PSoC5/PingSensorTrigCounter.c **** /*******************************************************************************
   2:Generated_Source\PSoC5/PingSensorTrigCounter.c **** * File Name: PingSensorTrigCounter.c  
   3:Generated_Source\PSoC5/PingSensorTrigCounter.c **** * Version 3.0
   4:Generated_Source\PSoC5/PingSensorTrigCounter.c **** *
   5:Generated_Source\PSoC5/PingSensorTrigCounter.c **** *  Description:
   6:Generated_Source\PSoC5/PingSensorTrigCounter.c **** *     The Counter component consists of a 8, 16, 24 or 32-bit counter with
   7:Generated_Source\PSoC5/PingSensorTrigCounter.c **** *     a selectable period between 2 and 2^Width - 1.  
   8:Generated_Source\PSoC5/PingSensorTrigCounter.c **** *
   9:Generated_Source\PSoC5/PingSensorTrigCounter.c **** *   Note:
  10:Generated_Source\PSoC5/PingSensorTrigCounter.c **** *     None
  11:Generated_Source\PSoC5/PingSensorTrigCounter.c **** *
  12:Generated_Source\PSoC5/PingSensorTrigCounter.c **** ********************************************************************************
  13:Generated_Source\PSoC5/PingSensorTrigCounter.c **** * Copyright 2008-2012, Cypress Semiconductor Corporation.  All rights reserved.
  14:Generated_Source\PSoC5/PingSensorTrigCounter.c **** * You may use this file only in accordance with the license, terms, conditions, 
  15:Generated_Source\PSoC5/PingSensorTrigCounter.c **** * disclaimers, and limitations in the end user license agreement accompanying 
  16:Generated_Source\PSoC5/PingSensorTrigCounter.c **** * the software package with which this file was provided.
  17:Generated_Source\PSoC5/PingSensorTrigCounter.c **** *******************************************************************************/
  18:Generated_Source\PSoC5/PingSensorTrigCounter.c **** 
  19:Generated_Source\PSoC5/PingSensorTrigCounter.c **** #include "PingSensorTrigCounter.h"
  20:Generated_Source\PSoC5/PingSensorTrigCounter.c **** 
  21:Generated_Source\PSoC5/PingSensorTrigCounter.c **** uint8 PingSensorTrigCounter_initVar = 0u;
  22:Generated_Source\PSoC5/PingSensorTrigCounter.c **** 
  23:Generated_Source\PSoC5/PingSensorTrigCounter.c **** 
  24:Generated_Source\PSoC5/PingSensorTrigCounter.c **** /*******************************************************************************
ARM GAS  C:\Users\tpbw4321\AppData\Local\Temp\cc6BUzHo.s 			page 2


  25:Generated_Source\PSoC5/PingSensorTrigCounter.c **** * Function Name: PingSensorTrigCounter_Init
  26:Generated_Source\PSoC5/PingSensorTrigCounter.c **** ********************************************************************************
  27:Generated_Source\PSoC5/PingSensorTrigCounter.c **** * Summary:
  28:Generated_Source\PSoC5/PingSensorTrigCounter.c **** *     Initialize to the schematic state
  29:Generated_Source\PSoC5/PingSensorTrigCounter.c **** * 
  30:Generated_Source\PSoC5/PingSensorTrigCounter.c **** * Parameters:  
  31:Generated_Source\PSoC5/PingSensorTrigCounter.c **** *  void  
  32:Generated_Source\PSoC5/PingSensorTrigCounter.c **** *
  33:Generated_Source\PSoC5/PingSensorTrigCounter.c **** * Return: 
  34:Generated_Source\PSoC5/PingSensorTrigCounter.c **** *  void
  35:Generated_Source\PSoC5/PingSensorTrigCounter.c **** *
  36:Generated_Source\PSoC5/PingSensorTrigCounter.c **** *******************************************************************************/
  37:Generated_Source\PSoC5/PingSensorTrigCounter.c **** void PingSensorTrigCounter_Init(void) 
  38:Generated_Source\PSoC5/PingSensorTrigCounter.c **** {
  34              		.loc 1 38 0
  35              		.cfi_startproc
  36              		@ args = 0, pretend = 0, frame = 0
  37              		@ frame_needed = 1, uses_anonymous_args = 0
  38 0000 80B5     		push	{r7, lr}
  39              		.cfi_def_cfa_offset 8
  40              		.cfi_offset 7, -8
  41              		.cfi_offset 14, -4
  42 0002 00AF     		add	r7, sp, #0
  43              		.cfi_def_cfa_register 7
  39:Generated_Source\PSoC5/PingSensorTrigCounter.c ****         #if (!PingSensorTrigCounter_UsingFixedFunction && !PingSensorTrigCounter_ControlRegRemoved)
  40:Generated_Source\PSoC5/PingSensorTrigCounter.c ****             uint8 ctrl;
  41:Generated_Source\PSoC5/PingSensorTrigCounter.c ****         #endif /* (!PingSensorTrigCounter_UsingFixedFunction && !PingSensorTrigCounter_ControlRegRe
  42:Generated_Source\PSoC5/PingSensorTrigCounter.c ****         
  43:Generated_Source\PSoC5/PingSensorTrigCounter.c ****         #if(!PingSensorTrigCounter_UsingFixedFunction) 
  44:Generated_Source\PSoC5/PingSensorTrigCounter.c ****             /* Interrupt State Backup for Critical Region*/
  45:Generated_Source\PSoC5/PingSensorTrigCounter.c ****             uint8 PingSensorTrigCounter_interruptState;
  46:Generated_Source\PSoC5/PingSensorTrigCounter.c ****         #endif /* (!PingSensorTrigCounter_UsingFixedFunction) */
  47:Generated_Source\PSoC5/PingSensorTrigCounter.c ****         
  48:Generated_Source\PSoC5/PingSensorTrigCounter.c ****         #if (PingSensorTrigCounter_UsingFixedFunction)
  49:Generated_Source\PSoC5/PingSensorTrigCounter.c ****             /* Clear all bits but the enable bit (if it's already set for Timer operation */
  50:Generated_Source\PSoC5/PingSensorTrigCounter.c ****             PingSensorTrigCounter_CONTROL &= PingSensorTrigCounter_CTRL_ENABLE;
  44              		.loc 1 50 0
  45 0004 254A     		ldr	r2, .L2
  46 0006 254B     		ldr	r3, .L2
  47 0008 1B78     		ldrb	r3, [r3]
  48 000a DBB2     		uxtb	r3, r3
  49 000c 03F00103 		and	r3, r3, #1
  50 0010 DBB2     		uxtb	r3, r3
  51 0012 1370     		strb	r3, [r2]
  51:Generated_Source\PSoC5/PingSensorTrigCounter.c ****             
  52:Generated_Source\PSoC5/PingSensorTrigCounter.c ****             /* Clear the mode bits for continuous run mode */
  53:Generated_Source\PSoC5/PingSensorTrigCounter.c ****             #if (CY_PSOC5A)
  54:Generated_Source\PSoC5/PingSensorTrigCounter.c ****                 PingSensorTrigCounter_CONTROL2 &= ((uint8)(~PingSensorTrigCounter_CTRL_MODE_MASK));
  55:Generated_Source\PSoC5/PingSensorTrigCounter.c ****             #endif /* (CY_PSOC5A) */
  56:Generated_Source\PSoC5/PingSensorTrigCounter.c ****             #if (CY_PSOC3 || CY_PSOC5LP)
  57:Generated_Source\PSoC5/PingSensorTrigCounter.c ****                 PingSensorTrigCounter_CONTROL3 &= ((uint8)(~PingSensorTrigCounter_CTRL_MODE_MASK));
  52              		.loc 1 57 0
  53 0014 224A     		ldr	r2, .L2+4
  54 0016 224B     		ldr	r3, .L2+4
  55 0018 1B78     		ldrb	r3, [r3]
  56 001a DBB2     		uxtb	r3, r3
  57 001c 23F00303 		bic	r3, r3, #3
ARM GAS  C:\Users\tpbw4321\AppData\Local\Temp\cc6BUzHo.s 			page 3


  58 0020 DBB2     		uxtb	r3, r3
  59 0022 1370     		strb	r3, [r2]
  58:Generated_Source\PSoC5/PingSensorTrigCounter.c ****             #endif /* (CY_PSOC3 || CY_PSOC5LP) */
  59:Generated_Source\PSoC5/PingSensorTrigCounter.c ****             /* Check if One Shot mode is enabled i.e. RunMode !=0*/
  60:Generated_Source\PSoC5/PingSensorTrigCounter.c ****             #if (PingSensorTrigCounter_RunModeUsed != 0x0u)
  61:Generated_Source\PSoC5/PingSensorTrigCounter.c ****                 /* Set 3rd bit of Control register to enable one shot mode */
  62:Generated_Source\PSoC5/PingSensorTrigCounter.c ****                 PingSensorTrigCounter_CONTROL |= PingSensorTrigCounter_ONESHOT;
  60              		.loc 1 62 0
  61 0024 1D4A     		ldr	r2, .L2
  62 0026 1D4B     		ldr	r3, .L2
  63 0028 1B78     		ldrb	r3, [r3]
  64 002a DBB2     		uxtb	r3, r3
  65 002c 43F00403 		orr	r3, r3, #4
  66 0030 DBB2     		uxtb	r3, r3
  67 0032 1370     		strb	r3, [r2]
  63:Generated_Source\PSoC5/PingSensorTrigCounter.c ****             #endif /* (PingSensorTrigCounter_RunModeUsed != 0x0u) */
  64:Generated_Source\PSoC5/PingSensorTrigCounter.c ****             
  65:Generated_Source\PSoC5/PingSensorTrigCounter.c ****             /* Set the IRQ to use the status register interrupts */
  66:Generated_Source\PSoC5/PingSensorTrigCounter.c ****             PingSensorTrigCounter_CONTROL2 |= PingSensorTrigCounter_CTRL2_IRQ_SEL;
  68              		.loc 1 66 0
  69 0034 1B4A     		ldr	r2, .L2+8
  70 0036 1B4B     		ldr	r3, .L2+8
  71 0038 1B78     		ldrb	r3, [r3]
  72 003a DBB2     		uxtb	r3, r3
  73 003c 43F00103 		orr	r3, r3, #1
  74 0040 DBB2     		uxtb	r3, r3
  75 0042 1370     		strb	r3, [r2]
  67:Generated_Source\PSoC5/PingSensorTrigCounter.c ****             
  68:Generated_Source\PSoC5/PingSensorTrigCounter.c ****             /* Clear and Set SYNCTC and SYNCCMP bits of RT1 register */
  69:Generated_Source\PSoC5/PingSensorTrigCounter.c ****             PingSensorTrigCounter_RT1 &= ((uint8)(~PingSensorTrigCounter_RT1_MASK));
  76              		.loc 1 69 0
  77 0044 184A     		ldr	r2, .L2+12
  78 0046 184B     		ldr	r3, .L2+12
  79 0048 1B78     		ldrb	r3, [r3]
  80 004a DBB2     		uxtb	r3, r3
  81 004c 23F03003 		bic	r3, r3, #48
  82 0050 DBB2     		uxtb	r3, r3
  83 0052 1370     		strb	r3, [r2]
  70:Generated_Source\PSoC5/PingSensorTrigCounter.c ****             PingSensorTrigCounter_RT1 |= PingSensorTrigCounter_SYNC;     
  84              		.loc 1 70 0
  85 0054 144A     		ldr	r2, .L2+12
  86 0056 144B     		ldr	r3, .L2+12
  87 0058 1B78     		ldrb	r3, [r3]
  88 005a DBB2     		uxtb	r3, r3
  89 005c 43F03003 		orr	r3, r3, #48
  90 0060 DBB2     		uxtb	r3, r3
  91 0062 1370     		strb	r3, [r2]
  71:Generated_Source\PSoC5/PingSensorTrigCounter.c ****                     
  72:Generated_Source\PSoC5/PingSensorTrigCounter.c ****             /*Enable DSI Sync all all inputs of the Timer*/
  73:Generated_Source\PSoC5/PingSensorTrigCounter.c ****             PingSensorTrigCounter_RT1 &= ((uint8)(~PingSensorTrigCounter_SYNCDSI_MASK));
  92              		.loc 1 73 0
  93 0064 104A     		ldr	r2, .L2+12
  94 0066 104B     		ldr	r3, .L2+12
  95 0068 1B78     		ldrb	r3, [r3]
  96 006a DBB2     		uxtb	r3, r3
  97 006c 23F00F03 		bic	r3, r3, #15
  98 0070 DBB2     		uxtb	r3, r3
ARM GAS  C:\Users\tpbw4321\AppData\Local\Temp\cc6BUzHo.s 			page 4


  99 0072 1370     		strb	r3, [r2]
  74:Generated_Source\PSoC5/PingSensorTrigCounter.c ****             PingSensorTrigCounter_RT1 |= PingSensorTrigCounter_SYNCDSI_EN;
 100              		.loc 1 74 0
 101 0074 0C4A     		ldr	r2, .L2+12
 102 0076 0C4B     		ldr	r3, .L2+12
 103 0078 1B78     		ldrb	r3, [r3]
 104 007a DBB2     		uxtb	r3, r3
 105 007c 43F00F03 		orr	r3, r3, #15
 106 0080 DBB2     		uxtb	r3, r3
 107 0082 1370     		strb	r3, [r2]
  75:Generated_Source\PSoC5/PingSensorTrigCounter.c **** 
  76:Generated_Source\PSoC5/PingSensorTrigCounter.c ****         #else
  77:Generated_Source\PSoC5/PingSensorTrigCounter.c ****             #if(!PingSensorTrigCounter_ControlRegRemoved)
  78:Generated_Source\PSoC5/PingSensorTrigCounter.c ****             /* Set the default compare mode defined in the parameter */
  79:Generated_Source\PSoC5/PingSensorTrigCounter.c ****             ctrl = PingSensorTrigCounter_CONTROL & ((uint8)(~PingSensorTrigCounter_CTRL_CMPMODE_MAS
  80:Generated_Source\PSoC5/PingSensorTrigCounter.c ****             PingSensorTrigCounter_CONTROL = ctrl | PingSensorTrigCounter_DEFAULT_COMPARE_MODE;
  81:Generated_Source\PSoC5/PingSensorTrigCounter.c ****             
  82:Generated_Source\PSoC5/PingSensorTrigCounter.c ****             /* Set the default capture mode defined in the parameter */
  83:Generated_Source\PSoC5/PingSensorTrigCounter.c ****             ctrl = PingSensorTrigCounter_CONTROL & ((uint8)(~PingSensorTrigCounter_CTRL_CAPMODE_MAS
  84:Generated_Source\PSoC5/PingSensorTrigCounter.c ****             
  85:Generated_Source\PSoC5/PingSensorTrigCounter.c ****             #if( 0 != PingSensorTrigCounter_CAPTURE_MODE_CONF)
  86:Generated_Source\PSoC5/PingSensorTrigCounter.c ****                 PingSensorTrigCounter_CONTROL = ctrl | PingSensorTrigCounter_DEFAULT_CAPTURE_MODE;
  87:Generated_Source\PSoC5/PingSensorTrigCounter.c ****             #else
  88:Generated_Source\PSoC5/PingSensorTrigCounter.c ****                 PingSensorTrigCounter_CONTROL = ctrl;
  89:Generated_Source\PSoC5/PingSensorTrigCounter.c ****             #endif /* 0 != PingSensorTrigCounter_CAPTURE_MODE */ 
  90:Generated_Source\PSoC5/PingSensorTrigCounter.c ****             
  91:Generated_Source\PSoC5/PingSensorTrigCounter.c ****             #endif /* (!PingSensorTrigCounter_ControlRegRemoved) */
  92:Generated_Source\PSoC5/PingSensorTrigCounter.c ****         #endif /* (PingSensorTrigCounter_UsingFixedFunction) */
  93:Generated_Source\PSoC5/PingSensorTrigCounter.c ****         
  94:Generated_Source\PSoC5/PingSensorTrigCounter.c ****         /* Clear all data in the FIFO's */
  95:Generated_Source\PSoC5/PingSensorTrigCounter.c ****         #if (!PingSensorTrigCounter_UsingFixedFunction)
  96:Generated_Source\PSoC5/PingSensorTrigCounter.c ****             PingSensorTrigCounter_ClearFIFO();
  97:Generated_Source\PSoC5/PingSensorTrigCounter.c ****         #endif /* (!PingSensorTrigCounter_UsingFixedFunction) */
  98:Generated_Source\PSoC5/PingSensorTrigCounter.c ****         
  99:Generated_Source\PSoC5/PingSensorTrigCounter.c ****         /* Set Initial values from Configuration */
 100:Generated_Source\PSoC5/PingSensorTrigCounter.c ****         PingSensorTrigCounter_WritePeriod(PingSensorTrigCounter_INIT_PERIOD_VALUE);
 108              		.loc 1 100 0
 109 0084 0520     		movs	r0, #5
 110 0086 FFF7FEFF 		bl	PingSensorTrigCounter_WritePeriod
 101:Generated_Source\PSoC5/PingSensorTrigCounter.c ****         #if (!(PingSensorTrigCounter_UsingFixedFunction && (CY_PSOC5A)))
 102:Generated_Source\PSoC5/PingSensorTrigCounter.c ****             PingSensorTrigCounter_WriteCounter(PingSensorTrigCounter_INIT_COUNTER_VALUE);
 111              		.loc 1 102 0
 112 008a 0520     		movs	r0, #5
 113 008c FFF7FEFF 		bl	PingSensorTrigCounter_WriteCounter
 103:Generated_Source\PSoC5/PingSensorTrigCounter.c ****         #endif /* (!(PingSensorTrigCounter_UsingFixedFunction && (CY_PSOC5A))) */
 104:Generated_Source\PSoC5/PingSensorTrigCounter.c ****         PingSensorTrigCounter_SetInterruptMode(PingSensorTrigCounter_INIT_INTERRUPTS_MASK);
 114              		.loc 1 104 0
 115 0090 0020     		movs	r0, #0
 116 0092 FFF7FEFF 		bl	PingSensorTrigCounter_SetInterruptMode
 105:Generated_Source\PSoC5/PingSensorTrigCounter.c ****         
 106:Generated_Source\PSoC5/PingSensorTrigCounter.c ****         #if (!PingSensorTrigCounter_UsingFixedFunction)
 107:Generated_Source\PSoC5/PingSensorTrigCounter.c ****             /* Read the status register to clear the unwanted interrupts */
 108:Generated_Source\PSoC5/PingSensorTrigCounter.c ****             (void)PingSensorTrigCounter_ReadStatusRegister();
 109:Generated_Source\PSoC5/PingSensorTrigCounter.c ****             /* Set the compare value (only available to non-fixed function implementation */
 110:Generated_Source\PSoC5/PingSensorTrigCounter.c ****             PingSensorTrigCounter_WriteCompare(PingSensorTrigCounter_INIT_COMPARE_VALUE);
 111:Generated_Source\PSoC5/PingSensorTrigCounter.c ****             /* Use the interrupt output of the status register for IRQ output */
 112:Generated_Source\PSoC5/PingSensorTrigCounter.c ****             
ARM GAS  C:\Users\tpbw4321\AppData\Local\Temp\cc6BUzHo.s 			page 5


 113:Generated_Source\PSoC5/PingSensorTrigCounter.c ****             /* CyEnterCriticalRegion and CyExitCriticalRegion are used to mark following region cri
 114:Generated_Source\PSoC5/PingSensorTrigCounter.c ****             /* Enter Critical Region*/
 115:Generated_Source\PSoC5/PingSensorTrigCounter.c ****             PingSensorTrigCounter_interruptState = CyEnterCriticalSection();
 116:Generated_Source\PSoC5/PingSensorTrigCounter.c ****             
 117:Generated_Source\PSoC5/PingSensorTrigCounter.c ****             PingSensorTrigCounter_STATUS_AUX_CTRL |= PingSensorTrigCounter_STATUS_ACTL_INT_EN_MASK;
 118:Generated_Source\PSoC5/PingSensorTrigCounter.c ****             
 119:Generated_Source\PSoC5/PingSensorTrigCounter.c ****             /* Exit Critical Region*/
 120:Generated_Source\PSoC5/PingSensorTrigCounter.c ****             CyExitCriticalSection(PingSensorTrigCounter_interruptState);
 121:Generated_Source\PSoC5/PingSensorTrigCounter.c ****             
 122:Generated_Source\PSoC5/PingSensorTrigCounter.c ****         #endif /* (!PingSensorTrigCounter_UsingFixedFunction) */
 123:Generated_Source\PSoC5/PingSensorTrigCounter.c **** }
 117              		.loc 1 123 0
 118 0096 00BF     		nop
 119 0098 80BD     		pop	{r7, pc}
 120              	.L3:
 121 009a 00BF     		.align	2
 122              	.L2:
 123 009c 004F0040 		.word	1073762048
 124 00a0 024F0040 		.word	1073762050
 125 00a4 014F0040 		.word	1073762049
 126 00a8 0B4F0040 		.word	1073762059
 127              		.cfi_endproc
 128              	.LFE0:
 129              		.size	PingSensorTrigCounter_Init, .-PingSensorTrigCounter_Init
 130              		.section	.text.PingSensorTrigCounter_Enable,"ax",%progbits
 131              		.align	2
 132              		.global	PingSensorTrigCounter_Enable
 133              		.thumb
 134              		.thumb_func
 135              		.type	PingSensorTrigCounter_Enable, %function
 136              	PingSensorTrigCounter_Enable:
 137              	.LFB1:
 124:Generated_Source\PSoC5/PingSensorTrigCounter.c **** 
 125:Generated_Source\PSoC5/PingSensorTrigCounter.c **** 
 126:Generated_Source\PSoC5/PingSensorTrigCounter.c **** /*******************************************************************************
 127:Generated_Source\PSoC5/PingSensorTrigCounter.c **** * Function Name: PingSensorTrigCounter_Enable
 128:Generated_Source\PSoC5/PingSensorTrigCounter.c **** ********************************************************************************
 129:Generated_Source\PSoC5/PingSensorTrigCounter.c **** * Summary:
 130:Generated_Source\PSoC5/PingSensorTrigCounter.c **** *     Enable the Counter
 131:Generated_Source\PSoC5/PingSensorTrigCounter.c **** * 
 132:Generated_Source\PSoC5/PingSensorTrigCounter.c **** * Parameters:  
 133:Generated_Source\PSoC5/PingSensorTrigCounter.c **** *  void  
 134:Generated_Source\PSoC5/PingSensorTrigCounter.c **** *
 135:Generated_Source\PSoC5/PingSensorTrigCounter.c **** * Return: 
 136:Generated_Source\PSoC5/PingSensorTrigCounter.c **** *  void
 137:Generated_Source\PSoC5/PingSensorTrigCounter.c **** *
 138:Generated_Source\PSoC5/PingSensorTrigCounter.c **** * Side Effects: 
 139:Generated_Source\PSoC5/PingSensorTrigCounter.c **** *   If the Enable mode is set to Hardware only then this function has no effect 
 140:Generated_Source\PSoC5/PingSensorTrigCounter.c **** *   on the operation of the counter.
 141:Generated_Source\PSoC5/PingSensorTrigCounter.c **** *
 142:Generated_Source\PSoC5/PingSensorTrigCounter.c **** *******************************************************************************/
 143:Generated_Source\PSoC5/PingSensorTrigCounter.c **** void PingSensorTrigCounter_Enable(void) 
 144:Generated_Source\PSoC5/PingSensorTrigCounter.c **** {
 138              		.loc 1 144 0
 139              		.cfi_startproc
 140              		@ args = 0, pretend = 0, frame = 0
 141              		@ frame_needed = 1, uses_anonymous_args = 0
ARM GAS  C:\Users\tpbw4321\AppData\Local\Temp\cc6BUzHo.s 			page 6


 142              		@ link register save eliminated.
 143 0000 80B4     		push	{r7}
 144              		.cfi_def_cfa_offset 4
 145              		.cfi_offset 7, -4
 146 0002 00AF     		add	r7, sp, #0
 147              		.cfi_def_cfa_register 7
 145:Generated_Source\PSoC5/PingSensorTrigCounter.c ****     /* Globally Enable the Fixed Function Block chosen */
 146:Generated_Source\PSoC5/PingSensorTrigCounter.c ****     #if (PingSensorTrigCounter_UsingFixedFunction)
 147:Generated_Source\PSoC5/PingSensorTrigCounter.c ****         PingSensorTrigCounter_GLOBAL_ENABLE |= PingSensorTrigCounter_BLOCK_EN_MASK;
 148              		.loc 1 147 0
 149 0004 0D4A     		ldr	r2, .L5
 150 0006 0D4B     		ldr	r3, .L5
 151 0008 1B78     		ldrb	r3, [r3]
 152 000a DBB2     		uxtb	r3, r3
 153 000c 43F00103 		orr	r3, r3, #1
 154 0010 DBB2     		uxtb	r3, r3
 155 0012 1370     		strb	r3, [r2]
 148:Generated_Source\PSoC5/PingSensorTrigCounter.c ****         PingSensorTrigCounter_GLOBAL_STBY_ENABLE |= PingSensorTrigCounter_BLOCK_STBY_EN_MASK;
 156              		.loc 1 148 0
 157 0014 0A4A     		ldr	r2, .L5+4
 158 0016 0A4B     		ldr	r3, .L5+4
 159 0018 1B78     		ldrb	r3, [r3]
 160 001a DBB2     		uxtb	r3, r3
 161 001c 43F00103 		orr	r3, r3, #1
 162 0020 DBB2     		uxtb	r3, r3
 163 0022 1370     		strb	r3, [r2]
 149:Generated_Source\PSoC5/PingSensorTrigCounter.c ****     #endif /* (PingSensorTrigCounter_UsingFixedFunction) */  
 150:Generated_Source\PSoC5/PingSensorTrigCounter.c ****         
 151:Generated_Source\PSoC5/PingSensorTrigCounter.c ****     /* Enable the counter from the control register  */
 152:Generated_Source\PSoC5/PingSensorTrigCounter.c ****     /* If Fixed Function then make sure Mode is set correctly */
 153:Generated_Source\PSoC5/PingSensorTrigCounter.c ****     /* else make sure reset is clear */
 154:Generated_Source\PSoC5/PingSensorTrigCounter.c ****     #if(!PingSensorTrigCounter_ControlRegRemoved || PingSensorTrigCounter_UsingFixedFunction)
 155:Generated_Source\PSoC5/PingSensorTrigCounter.c ****         PingSensorTrigCounter_CONTROL |= PingSensorTrigCounter_CTRL_ENABLE;                
 164              		.loc 1 155 0
 165 0024 074A     		ldr	r2, .L5+8
 166 0026 074B     		ldr	r3, .L5+8
 167 0028 1B78     		ldrb	r3, [r3]
 168 002a DBB2     		uxtb	r3, r3
 169 002c 43F00103 		orr	r3, r3, #1
 170 0030 DBB2     		uxtb	r3, r3
 171 0032 1370     		strb	r3, [r2]
 156:Generated_Source\PSoC5/PingSensorTrigCounter.c ****     #endif /* (!PingSensorTrigCounter_ControlRegRemoved || PingSensorTrigCounter_UsingFixedFunction
 157:Generated_Source\PSoC5/PingSensorTrigCounter.c ****     
 158:Generated_Source\PSoC5/PingSensorTrigCounter.c **** }
 172              		.loc 1 158 0
 173 0034 00BF     		nop
 174 0036 BD46     		mov	sp, r7
 175              		.cfi_def_cfa_register 13
 176              		@ sp needed
 177 0038 80BC     		pop	{r7}
 178              		.cfi_restore 7
 179              		.cfi_def_cfa_offset 0
 180 003a 7047     		bx	lr
 181              	.L6:
 182              		.align	2
 183              	.L5:
 184 003c A3430040 		.word	1073759139
ARM GAS  C:\Users\tpbw4321\AppData\Local\Temp\cc6BUzHo.s 			page 7


 185 0040 B3430040 		.word	1073759155
 186 0044 004F0040 		.word	1073762048
 187              		.cfi_endproc
 188              	.LFE1:
 189              		.size	PingSensorTrigCounter_Enable, .-PingSensorTrigCounter_Enable
 190              		.section	.text.PingSensorTrigCounter_Start,"ax",%progbits
 191              		.align	2
 192              		.global	PingSensorTrigCounter_Start
 193              		.thumb
 194              		.thumb_func
 195              		.type	PingSensorTrigCounter_Start, %function
 196              	PingSensorTrigCounter_Start:
 197              	.LFB2:
 159:Generated_Source\PSoC5/PingSensorTrigCounter.c **** 
 160:Generated_Source\PSoC5/PingSensorTrigCounter.c **** 
 161:Generated_Source\PSoC5/PingSensorTrigCounter.c **** /*******************************************************************************
 162:Generated_Source\PSoC5/PingSensorTrigCounter.c **** * Function Name: PingSensorTrigCounter_Start
 163:Generated_Source\PSoC5/PingSensorTrigCounter.c **** ********************************************************************************
 164:Generated_Source\PSoC5/PingSensorTrigCounter.c **** * Summary:
 165:Generated_Source\PSoC5/PingSensorTrigCounter.c **** *  Enables the counter for operation 
 166:Generated_Source\PSoC5/PingSensorTrigCounter.c **** *
 167:Generated_Source\PSoC5/PingSensorTrigCounter.c **** * Parameters:  
 168:Generated_Source\PSoC5/PingSensorTrigCounter.c **** *  void  
 169:Generated_Source\PSoC5/PingSensorTrigCounter.c **** *
 170:Generated_Source\PSoC5/PingSensorTrigCounter.c **** * Return: 
 171:Generated_Source\PSoC5/PingSensorTrigCounter.c **** *  void
 172:Generated_Source\PSoC5/PingSensorTrigCounter.c **** *
 173:Generated_Source\PSoC5/PingSensorTrigCounter.c **** * Global variables:
 174:Generated_Source\PSoC5/PingSensorTrigCounter.c **** *  PingSensorTrigCounter_initVar: Is modified when this function is called for the  
 175:Generated_Source\PSoC5/PingSensorTrigCounter.c **** *   first time. Is used to ensure that initialization happens only once.
 176:Generated_Source\PSoC5/PingSensorTrigCounter.c **** *
 177:Generated_Source\PSoC5/PingSensorTrigCounter.c **** *******************************************************************************/
 178:Generated_Source\PSoC5/PingSensorTrigCounter.c **** void PingSensorTrigCounter_Start(void) 
 179:Generated_Source\PSoC5/PingSensorTrigCounter.c **** {
 198              		.loc 1 179 0
 199              		.cfi_startproc
 200              		@ args = 0, pretend = 0, frame = 0
 201              		@ frame_needed = 1, uses_anonymous_args = 0
 202 0000 80B5     		push	{r7, lr}
 203              		.cfi_def_cfa_offset 8
 204              		.cfi_offset 7, -8
 205              		.cfi_offset 14, -4
 206 0002 00AF     		add	r7, sp, #0
 207              		.cfi_def_cfa_register 7
 180:Generated_Source\PSoC5/PingSensorTrigCounter.c ****     if(PingSensorTrigCounter_initVar == 0u)
 208              		.loc 1 180 0
 209 0004 064B     		ldr	r3, .L9
 210 0006 1B78     		ldrb	r3, [r3]	@ zero_extendqisi2
 211 0008 002B     		cmp	r3, #0
 212 000a 04D1     		bne	.L8
 181:Generated_Source\PSoC5/PingSensorTrigCounter.c ****     {
 182:Generated_Source\PSoC5/PingSensorTrigCounter.c ****         PingSensorTrigCounter_Init();
 213              		.loc 1 182 0
 214 000c FFF7FEFF 		bl	PingSensorTrigCounter_Init
 183:Generated_Source\PSoC5/PingSensorTrigCounter.c ****         
 184:Generated_Source\PSoC5/PingSensorTrigCounter.c ****         PingSensorTrigCounter_initVar = 1u; /* Clear this bit for Initialization */        
 215              		.loc 1 184 0
ARM GAS  C:\Users\tpbw4321\AppData\Local\Temp\cc6BUzHo.s 			page 8


 216 0010 034B     		ldr	r3, .L9
 217 0012 0122     		movs	r2, #1
 218 0014 1A70     		strb	r2, [r3]
 219              	.L8:
 185:Generated_Source\PSoC5/PingSensorTrigCounter.c ****     }
 186:Generated_Source\PSoC5/PingSensorTrigCounter.c ****     
 187:Generated_Source\PSoC5/PingSensorTrigCounter.c ****     /* Enable the Counter */
 188:Generated_Source\PSoC5/PingSensorTrigCounter.c ****     PingSensorTrigCounter_Enable();        
 220              		.loc 1 188 0
 221 0016 FFF7FEFF 		bl	PingSensorTrigCounter_Enable
 189:Generated_Source\PSoC5/PingSensorTrigCounter.c **** }
 222              		.loc 1 189 0
 223 001a 00BF     		nop
 224 001c 80BD     		pop	{r7, pc}
 225              	.L10:
 226 001e 00BF     		.align	2
 227              	.L9:
 228 0020 00000000 		.word	PingSensorTrigCounter_initVar
 229              		.cfi_endproc
 230              	.LFE2:
 231              		.size	PingSensorTrigCounter_Start, .-PingSensorTrigCounter_Start
 232              		.section	.text.PingSensorTrigCounter_Stop,"ax",%progbits
 233              		.align	2
 234              		.global	PingSensorTrigCounter_Stop
 235              		.thumb
 236              		.thumb_func
 237              		.type	PingSensorTrigCounter_Stop, %function
 238              	PingSensorTrigCounter_Stop:
 239              	.LFB3:
 190:Generated_Source\PSoC5/PingSensorTrigCounter.c **** 
 191:Generated_Source\PSoC5/PingSensorTrigCounter.c **** 
 192:Generated_Source\PSoC5/PingSensorTrigCounter.c **** /*******************************************************************************
 193:Generated_Source\PSoC5/PingSensorTrigCounter.c **** * Function Name: PingSensorTrigCounter_Stop
 194:Generated_Source\PSoC5/PingSensorTrigCounter.c **** ********************************************************************************
 195:Generated_Source\PSoC5/PingSensorTrigCounter.c **** * Summary:
 196:Generated_Source\PSoC5/PingSensorTrigCounter.c **** * Halts the counter, but does not change any modes or disable interrupts.
 197:Generated_Source\PSoC5/PingSensorTrigCounter.c **** *
 198:Generated_Source\PSoC5/PingSensorTrigCounter.c **** * Parameters:  
 199:Generated_Source\PSoC5/PingSensorTrigCounter.c **** *  void  
 200:Generated_Source\PSoC5/PingSensorTrigCounter.c **** *
 201:Generated_Source\PSoC5/PingSensorTrigCounter.c **** * Return: 
 202:Generated_Source\PSoC5/PingSensorTrigCounter.c **** *  void
 203:Generated_Source\PSoC5/PingSensorTrigCounter.c **** *
 204:Generated_Source\PSoC5/PingSensorTrigCounter.c **** * Side Effects: If the Enable mode is set to Hardware only then this function
 205:Generated_Source\PSoC5/PingSensorTrigCounter.c **** *               has no effect on the operation of the counter.
 206:Generated_Source\PSoC5/PingSensorTrigCounter.c **** *
 207:Generated_Source\PSoC5/PingSensorTrigCounter.c **** *******************************************************************************/
 208:Generated_Source\PSoC5/PingSensorTrigCounter.c **** void PingSensorTrigCounter_Stop(void) 
 209:Generated_Source\PSoC5/PingSensorTrigCounter.c **** {
 240              		.loc 1 209 0
 241              		.cfi_startproc
 242              		@ args = 0, pretend = 0, frame = 0
 243              		@ frame_needed = 1, uses_anonymous_args = 0
 244              		@ link register save eliminated.
 245 0000 80B4     		push	{r7}
 246              		.cfi_def_cfa_offset 4
 247              		.cfi_offset 7, -4
ARM GAS  C:\Users\tpbw4321\AppData\Local\Temp\cc6BUzHo.s 			page 9


 248 0002 00AF     		add	r7, sp, #0
 249              		.cfi_def_cfa_register 7
 210:Generated_Source\PSoC5/PingSensorTrigCounter.c ****     /* Disable Counter */
 211:Generated_Source\PSoC5/PingSensorTrigCounter.c ****     #if(!PingSensorTrigCounter_ControlRegRemoved || PingSensorTrigCounter_UsingFixedFunction)
 212:Generated_Source\PSoC5/PingSensorTrigCounter.c ****         PingSensorTrigCounter_CONTROL &= ((uint8)(~PingSensorTrigCounter_CTRL_ENABLE));        
 250              		.loc 1 212 0
 251 0004 0D4A     		ldr	r2, .L12
 252 0006 0D4B     		ldr	r3, .L12
 253 0008 1B78     		ldrb	r3, [r3]
 254 000a DBB2     		uxtb	r3, r3
 255 000c 23F00103 		bic	r3, r3, #1
 256 0010 DBB2     		uxtb	r3, r3
 257 0012 1370     		strb	r3, [r2]
 213:Generated_Source\PSoC5/PingSensorTrigCounter.c ****     #endif /* (!PingSensorTrigCounter_ControlRegRemoved || PingSensorTrigCounter_UsingFixedFunction
 214:Generated_Source\PSoC5/PingSensorTrigCounter.c ****     
 215:Generated_Source\PSoC5/PingSensorTrigCounter.c ****     /* Globally disable the Fixed Function Block chosen */
 216:Generated_Source\PSoC5/PingSensorTrigCounter.c ****     #if (PingSensorTrigCounter_UsingFixedFunction)
 217:Generated_Source\PSoC5/PingSensorTrigCounter.c ****         PingSensorTrigCounter_GLOBAL_ENABLE &= ((uint8)(~PingSensorTrigCounter_BLOCK_EN_MASK));
 258              		.loc 1 217 0
 259 0014 0A4A     		ldr	r2, .L12+4
 260 0016 0A4B     		ldr	r3, .L12+4
 261 0018 1B78     		ldrb	r3, [r3]
 262 001a DBB2     		uxtb	r3, r3
 263 001c 23F00103 		bic	r3, r3, #1
 264 0020 DBB2     		uxtb	r3, r3
 265 0022 1370     		strb	r3, [r2]
 218:Generated_Source\PSoC5/PingSensorTrigCounter.c ****         PingSensorTrigCounter_GLOBAL_STBY_ENABLE &= ((uint8)(~PingSensorTrigCounter_BLOCK_STBY_EN_M
 266              		.loc 1 218 0
 267 0024 074A     		ldr	r2, .L12+8
 268 0026 074B     		ldr	r3, .L12+8
 269 0028 1B78     		ldrb	r3, [r3]
 270 002a DBB2     		uxtb	r3, r3
 271 002c 23F00103 		bic	r3, r3, #1
 272 0030 DBB2     		uxtb	r3, r3
 273 0032 1370     		strb	r3, [r2]
 219:Generated_Source\PSoC5/PingSensorTrigCounter.c ****     #endif /* (PingSensorTrigCounter_UsingFixedFunction) */
 220:Generated_Source\PSoC5/PingSensorTrigCounter.c **** }
 274              		.loc 1 220 0
 275 0034 00BF     		nop
 276 0036 BD46     		mov	sp, r7
 277              		.cfi_def_cfa_register 13
 278              		@ sp needed
 279 0038 80BC     		pop	{r7}
 280              		.cfi_restore 7
 281              		.cfi_def_cfa_offset 0
 282 003a 7047     		bx	lr
 283              	.L13:
 284              		.align	2
 285              	.L12:
 286 003c 004F0040 		.word	1073762048
 287 0040 A3430040 		.word	1073759139
 288 0044 B3430040 		.word	1073759155
 289              		.cfi_endproc
 290              	.LFE3:
 291              		.size	PingSensorTrigCounter_Stop, .-PingSensorTrigCounter_Stop
 292              		.section	.text.PingSensorTrigCounter_SetInterruptMode,"ax",%progbits
 293              		.align	2
ARM GAS  C:\Users\tpbw4321\AppData\Local\Temp\cc6BUzHo.s 			page 10


 294              		.global	PingSensorTrigCounter_SetInterruptMode
 295              		.thumb
 296              		.thumb_func
 297              		.type	PingSensorTrigCounter_SetInterruptMode, %function
 298              	PingSensorTrigCounter_SetInterruptMode:
 299              	.LFB4:
 221:Generated_Source\PSoC5/PingSensorTrigCounter.c **** 
 222:Generated_Source\PSoC5/PingSensorTrigCounter.c **** 
 223:Generated_Source\PSoC5/PingSensorTrigCounter.c **** /*******************************************************************************
 224:Generated_Source\PSoC5/PingSensorTrigCounter.c **** * Function Name: PingSensorTrigCounter_SetInterruptMode
 225:Generated_Source\PSoC5/PingSensorTrigCounter.c **** ********************************************************************************
 226:Generated_Source\PSoC5/PingSensorTrigCounter.c **** * Summary:
 227:Generated_Source\PSoC5/PingSensorTrigCounter.c **** * Configures which interrupt sources are enabled to generate the final interrupt
 228:Generated_Source\PSoC5/PingSensorTrigCounter.c **** *
 229:Generated_Source\PSoC5/PingSensorTrigCounter.c **** * Parameters:  
 230:Generated_Source\PSoC5/PingSensorTrigCounter.c **** *  InterruptsMask: This parameter is an or'd collection of the status bits
 231:Generated_Source\PSoC5/PingSensorTrigCounter.c **** *                   which will be allowed to generate the counters interrupt.   
 232:Generated_Source\PSoC5/PingSensorTrigCounter.c **** *
 233:Generated_Source\PSoC5/PingSensorTrigCounter.c **** * Return: 
 234:Generated_Source\PSoC5/PingSensorTrigCounter.c **** *  void
 235:Generated_Source\PSoC5/PingSensorTrigCounter.c **** *
 236:Generated_Source\PSoC5/PingSensorTrigCounter.c **** *******************************************************************************/
 237:Generated_Source\PSoC5/PingSensorTrigCounter.c **** void PingSensorTrigCounter_SetInterruptMode(uint8 interruptsMask) 
 238:Generated_Source\PSoC5/PingSensorTrigCounter.c **** {
 300              		.loc 1 238 0
 301              		.cfi_startproc
 302              		@ args = 0, pretend = 0, frame = 8
 303              		@ frame_needed = 1, uses_anonymous_args = 0
 304              		@ link register save eliminated.
 305 0000 80B4     		push	{r7}
 306              		.cfi_def_cfa_offset 4
 307              		.cfi_offset 7, -4
 308 0002 83B0     		sub	sp, sp, #12
 309              		.cfi_def_cfa_offset 16
 310 0004 00AF     		add	r7, sp, #0
 311              		.cfi_def_cfa_register 7
 312 0006 0346     		mov	r3, r0
 313 0008 FB71     		strb	r3, [r7, #7]
 239:Generated_Source\PSoC5/PingSensorTrigCounter.c ****     PingSensorTrigCounter_STATUS_MASK = interruptsMask;
 314              		.loc 1 239 0
 315 000a 044A     		ldr	r2, .L15
 316 000c FB79     		ldrb	r3, [r7, #7]
 317 000e 1370     		strb	r3, [r2]
 240:Generated_Source\PSoC5/PingSensorTrigCounter.c **** }
 318              		.loc 1 240 0
 319 0010 00BF     		nop
 320 0012 0C37     		adds	r7, r7, #12
 321              		.cfi_def_cfa_offset 4
 322 0014 BD46     		mov	sp, r7
 323              		.cfi_def_cfa_register 13
 324              		@ sp needed
 325 0016 80BC     		pop	{r7}
 326              		.cfi_restore 7
 327              		.cfi_def_cfa_offset 0
 328 0018 7047     		bx	lr
 329              	.L16:
 330 001a 00BF     		.align	2
ARM GAS  C:\Users\tpbw4321\AppData\Local\Temp\cc6BUzHo.s 			page 11


 331              	.L15:
 332 001c 034F0040 		.word	1073762051
 333              		.cfi_endproc
 334              	.LFE4:
 335              		.size	PingSensorTrigCounter_SetInterruptMode, .-PingSensorTrigCounter_SetInterruptMode
 336              		.section	.text.PingSensorTrigCounter_ReadStatusRegister,"ax",%progbits
 337              		.align	2
 338              		.global	PingSensorTrigCounter_ReadStatusRegister
 339              		.thumb
 340              		.thumb_func
 341              		.type	PingSensorTrigCounter_ReadStatusRegister, %function
 342              	PingSensorTrigCounter_ReadStatusRegister:
 343              	.LFB5:
 241:Generated_Source\PSoC5/PingSensorTrigCounter.c **** 
 242:Generated_Source\PSoC5/PingSensorTrigCounter.c **** 
 243:Generated_Source\PSoC5/PingSensorTrigCounter.c **** /*******************************************************************************
 244:Generated_Source\PSoC5/PingSensorTrigCounter.c **** * Function Name: PingSensorTrigCounter_ReadStatusRegister
 245:Generated_Source\PSoC5/PingSensorTrigCounter.c **** ********************************************************************************
 246:Generated_Source\PSoC5/PingSensorTrigCounter.c **** * Summary:
 247:Generated_Source\PSoC5/PingSensorTrigCounter.c **** *   Reads the status register and returns it's state. This function should use
 248:Generated_Source\PSoC5/PingSensorTrigCounter.c **** *       defined types for the bit-field information as the bits in this
 249:Generated_Source\PSoC5/PingSensorTrigCounter.c **** *       register may be permuteable.
 250:Generated_Source\PSoC5/PingSensorTrigCounter.c **** *
 251:Generated_Source\PSoC5/PingSensorTrigCounter.c **** * Parameters:  
 252:Generated_Source\PSoC5/PingSensorTrigCounter.c **** *  void
 253:Generated_Source\PSoC5/PingSensorTrigCounter.c **** *
 254:Generated_Source\PSoC5/PingSensorTrigCounter.c **** * Return: 
 255:Generated_Source\PSoC5/PingSensorTrigCounter.c **** *  (uint8) The contents of the status register
 256:Generated_Source\PSoC5/PingSensorTrigCounter.c **** *
 257:Generated_Source\PSoC5/PingSensorTrigCounter.c **** * Side Effects:
 258:Generated_Source\PSoC5/PingSensorTrigCounter.c **** *   Status register bits may be clear on read. 
 259:Generated_Source\PSoC5/PingSensorTrigCounter.c **** *
 260:Generated_Source\PSoC5/PingSensorTrigCounter.c **** *******************************************************************************/
 261:Generated_Source\PSoC5/PingSensorTrigCounter.c **** uint8   PingSensorTrigCounter_ReadStatusRegister(void) 
 262:Generated_Source\PSoC5/PingSensorTrigCounter.c **** {
 344              		.loc 1 262 0
 345              		.cfi_startproc
 346              		@ args = 0, pretend = 0, frame = 0
 347              		@ frame_needed = 1, uses_anonymous_args = 0
 348              		@ link register save eliminated.
 349 0000 80B4     		push	{r7}
 350              		.cfi_def_cfa_offset 4
 351              		.cfi_offset 7, -4
 352 0002 00AF     		add	r7, sp, #0
 353              		.cfi_def_cfa_register 7
 263:Generated_Source\PSoC5/PingSensorTrigCounter.c ****     return PingSensorTrigCounter_STATUS;
 354              		.loc 1 263 0
 355 0004 034B     		ldr	r3, .L19
 356 0006 1B78     		ldrb	r3, [r3]
 357 0008 DBB2     		uxtb	r3, r3
 264:Generated_Source\PSoC5/PingSensorTrigCounter.c **** }
 358              		.loc 1 264 0
 359 000a 1846     		mov	r0, r3
 360 000c BD46     		mov	sp, r7
 361              		.cfi_def_cfa_register 13
 362              		@ sp needed
 363 000e 80BC     		pop	{r7}
ARM GAS  C:\Users\tpbw4321\AppData\Local\Temp\cc6BUzHo.s 			page 12


 364              		.cfi_restore 7
 365              		.cfi_def_cfa_offset 0
 366 0010 7047     		bx	lr
 367              	.L20:
 368 0012 00BF     		.align	2
 369              	.L19:
 370 0014 034F0040 		.word	1073762051
 371              		.cfi_endproc
 372              	.LFE5:
 373              		.size	PingSensorTrigCounter_ReadStatusRegister, .-PingSensorTrigCounter_ReadStatusRegister
 374              		.section	.text.PingSensorTrigCounter_ReadControlRegister,"ax",%progbits
 375              		.align	2
 376              		.global	PingSensorTrigCounter_ReadControlRegister
 377              		.thumb
 378              		.thumb_func
 379              		.type	PingSensorTrigCounter_ReadControlRegister, %function
 380              	PingSensorTrigCounter_ReadControlRegister:
 381              	.LFB6:
 265:Generated_Source\PSoC5/PingSensorTrigCounter.c **** 
 266:Generated_Source\PSoC5/PingSensorTrigCounter.c **** 
 267:Generated_Source\PSoC5/PingSensorTrigCounter.c **** #if(!PingSensorTrigCounter_ControlRegRemoved)
 268:Generated_Source\PSoC5/PingSensorTrigCounter.c **** /*******************************************************************************
 269:Generated_Source\PSoC5/PingSensorTrigCounter.c **** * Function Name: PingSensorTrigCounter_ReadControlRegister
 270:Generated_Source\PSoC5/PingSensorTrigCounter.c **** ********************************************************************************
 271:Generated_Source\PSoC5/PingSensorTrigCounter.c **** * Summary:
 272:Generated_Source\PSoC5/PingSensorTrigCounter.c **** *   Reads the control register and returns it's state. This function should use
 273:Generated_Source\PSoC5/PingSensorTrigCounter.c **** *       defined types for the bit-field information as the bits in this
 274:Generated_Source\PSoC5/PingSensorTrigCounter.c **** *       register may be permuteable.
 275:Generated_Source\PSoC5/PingSensorTrigCounter.c **** *
 276:Generated_Source\PSoC5/PingSensorTrigCounter.c **** * Parameters:  
 277:Generated_Source\PSoC5/PingSensorTrigCounter.c **** *  void
 278:Generated_Source\PSoC5/PingSensorTrigCounter.c **** *
 279:Generated_Source\PSoC5/PingSensorTrigCounter.c **** * Return: 
 280:Generated_Source\PSoC5/PingSensorTrigCounter.c **** *  (uint8) The contents of the control register
 281:Generated_Source\PSoC5/PingSensorTrigCounter.c **** *
 282:Generated_Source\PSoC5/PingSensorTrigCounter.c **** *******************************************************************************/
 283:Generated_Source\PSoC5/PingSensorTrigCounter.c **** uint8   PingSensorTrigCounter_ReadControlRegister(void) 
 284:Generated_Source\PSoC5/PingSensorTrigCounter.c **** {
 382              		.loc 1 284 0
 383              		.cfi_startproc
 384              		@ args = 0, pretend = 0, frame = 0
 385              		@ frame_needed = 1, uses_anonymous_args = 0
 386              		@ link register save eliminated.
 387 0000 80B4     		push	{r7}
 388              		.cfi_def_cfa_offset 4
 389              		.cfi_offset 7, -4
 390 0002 00AF     		add	r7, sp, #0
 391              		.cfi_def_cfa_register 7
 285:Generated_Source\PSoC5/PingSensorTrigCounter.c ****     return PingSensorTrigCounter_CONTROL;
 392              		.loc 1 285 0
 393 0004 034B     		ldr	r3, .L23
 394 0006 1B78     		ldrb	r3, [r3]
 395 0008 DBB2     		uxtb	r3, r3
 286:Generated_Source\PSoC5/PingSensorTrigCounter.c **** }
 396              		.loc 1 286 0
 397 000a 1846     		mov	r0, r3
 398 000c BD46     		mov	sp, r7
ARM GAS  C:\Users\tpbw4321\AppData\Local\Temp\cc6BUzHo.s 			page 13


 399              		.cfi_def_cfa_register 13
 400              		@ sp needed
 401 000e 80BC     		pop	{r7}
 402              		.cfi_restore 7
 403              		.cfi_def_cfa_offset 0
 404 0010 7047     		bx	lr
 405              	.L24:
 406 0012 00BF     		.align	2
 407              	.L23:
 408 0014 004F0040 		.word	1073762048
 409              		.cfi_endproc
 410              	.LFE6:
 411              		.size	PingSensorTrigCounter_ReadControlRegister, .-PingSensorTrigCounter_ReadControlRegister
 412              		.section	.text.PingSensorTrigCounter_WriteControlRegister,"ax",%progbits
 413              		.align	2
 414              		.global	PingSensorTrigCounter_WriteControlRegister
 415              		.thumb
 416              		.thumb_func
 417              		.type	PingSensorTrigCounter_WriteControlRegister, %function
 418              	PingSensorTrigCounter_WriteControlRegister:
 419              	.LFB7:
 287:Generated_Source\PSoC5/PingSensorTrigCounter.c **** 
 288:Generated_Source\PSoC5/PingSensorTrigCounter.c **** 
 289:Generated_Source\PSoC5/PingSensorTrigCounter.c **** /*******************************************************************************
 290:Generated_Source\PSoC5/PingSensorTrigCounter.c **** * Function Name: PingSensorTrigCounter_WriteControlRegister
 291:Generated_Source\PSoC5/PingSensorTrigCounter.c **** ********************************************************************************
 292:Generated_Source\PSoC5/PingSensorTrigCounter.c **** * Summary:
 293:Generated_Source\PSoC5/PingSensorTrigCounter.c **** *   Sets the bit-field of the control register.  This function should use
 294:Generated_Source\PSoC5/PingSensorTrigCounter.c **** *       defined types for the bit-field information as the bits in this
 295:Generated_Source\PSoC5/PingSensorTrigCounter.c **** *       register may be permuteable.
 296:Generated_Source\PSoC5/PingSensorTrigCounter.c **** *
 297:Generated_Source\PSoC5/PingSensorTrigCounter.c **** * Parameters:  
 298:Generated_Source\PSoC5/PingSensorTrigCounter.c **** *  void
 299:Generated_Source\PSoC5/PingSensorTrigCounter.c **** *
 300:Generated_Source\PSoC5/PingSensorTrigCounter.c **** * Return: 
 301:Generated_Source\PSoC5/PingSensorTrigCounter.c **** *  (uint8) The contents of the control register
 302:Generated_Source\PSoC5/PingSensorTrigCounter.c **** *
 303:Generated_Source\PSoC5/PingSensorTrigCounter.c **** *******************************************************************************/
 304:Generated_Source\PSoC5/PingSensorTrigCounter.c **** void    PingSensorTrigCounter_WriteControlRegister(uint8 control) 
 305:Generated_Source\PSoC5/PingSensorTrigCounter.c **** {
 420              		.loc 1 305 0
 421              		.cfi_startproc
 422              		@ args = 0, pretend = 0, frame = 8
 423              		@ frame_needed = 1, uses_anonymous_args = 0
 424              		@ link register save eliminated.
 425 0000 80B4     		push	{r7}
 426              		.cfi_def_cfa_offset 4
 427              		.cfi_offset 7, -4
 428 0002 83B0     		sub	sp, sp, #12
 429              		.cfi_def_cfa_offset 16
 430 0004 00AF     		add	r7, sp, #0
 431              		.cfi_def_cfa_register 7
 432 0006 0346     		mov	r3, r0
 433 0008 FB71     		strb	r3, [r7, #7]
 306:Generated_Source\PSoC5/PingSensorTrigCounter.c ****     PingSensorTrigCounter_CONTROL = control;
 434              		.loc 1 306 0
 435 000a 044A     		ldr	r2, .L26
ARM GAS  C:\Users\tpbw4321\AppData\Local\Temp\cc6BUzHo.s 			page 14


 436 000c FB79     		ldrb	r3, [r7, #7]
 437 000e 1370     		strb	r3, [r2]
 307:Generated_Source\PSoC5/PingSensorTrigCounter.c **** }
 438              		.loc 1 307 0
 439 0010 00BF     		nop
 440 0012 0C37     		adds	r7, r7, #12
 441              		.cfi_def_cfa_offset 4
 442 0014 BD46     		mov	sp, r7
 443              		.cfi_def_cfa_register 13
 444              		@ sp needed
 445 0016 80BC     		pop	{r7}
 446              		.cfi_restore 7
 447              		.cfi_def_cfa_offset 0
 448 0018 7047     		bx	lr
 449              	.L27:
 450 001a 00BF     		.align	2
 451              	.L26:
 452 001c 004F0040 		.word	1073762048
 453              		.cfi_endproc
 454              	.LFE7:
 455              		.size	PingSensorTrigCounter_WriteControlRegister, .-PingSensorTrigCounter_WriteControlRegister
 456              		.section	.text.PingSensorTrigCounter_WriteCounter,"ax",%progbits
 457              		.align	2
 458              		.global	PingSensorTrigCounter_WriteCounter
 459              		.thumb
 460              		.thumb_func
 461              		.type	PingSensorTrigCounter_WriteCounter, %function
 462              	PingSensorTrigCounter_WriteCounter:
 463              	.LFB8:
 308:Generated_Source\PSoC5/PingSensorTrigCounter.c **** 
 309:Generated_Source\PSoC5/PingSensorTrigCounter.c **** #endif  /* (!PingSensorTrigCounter_ControlRegRemoved) */
 310:Generated_Source\PSoC5/PingSensorTrigCounter.c **** 
 311:Generated_Source\PSoC5/PingSensorTrigCounter.c **** 
 312:Generated_Source\PSoC5/PingSensorTrigCounter.c **** #if (!(PingSensorTrigCounter_UsingFixedFunction && (CY_PSOC5A)))
 313:Generated_Source\PSoC5/PingSensorTrigCounter.c **** /*******************************************************************************
 314:Generated_Source\PSoC5/PingSensorTrigCounter.c **** * Function Name: PingSensorTrigCounter_WriteCounter
 315:Generated_Source\PSoC5/PingSensorTrigCounter.c **** ********************************************************************************
 316:Generated_Source\PSoC5/PingSensorTrigCounter.c **** * Summary:
 317:Generated_Source\PSoC5/PingSensorTrigCounter.c **** *   This funtion is used to set the counter to a specific value
 318:Generated_Source\PSoC5/PingSensorTrigCounter.c **** *
 319:Generated_Source\PSoC5/PingSensorTrigCounter.c **** * Parameters:  
 320:Generated_Source\PSoC5/PingSensorTrigCounter.c **** *  counter:  New counter value. 
 321:Generated_Source\PSoC5/PingSensorTrigCounter.c **** *
 322:Generated_Source\PSoC5/PingSensorTrigCounter.c **** * Return: 
 323:Generated_Source\PSoC5/PingSensorTrigCounter.c **** *  void 
 324:Generated_Source\PSoC5/PingSensorTrigCounter.c **** *
 325:Generated_Source\PSoC5/PingSensorTrigCounter.c **** *******************************************************************************/
 326:Generated_Source\PSoC5/PingSensorTrigCounter.c **** void PingSensorTrigCounter_WriteCounter(uint8 counter) \
 327:Generated_Source\PSoC5/PingSensorTrigCounter.c ****                                    
 328:Generated_Source\PSoC5/PingSensorTrigCounter.c **** {
 464              		.loc 1 328 0
 465              		.cfi_startproc
 466              		@ args = 0, pretend = 0, frame = 8
 467              		@ frame_needed = 1, uses_anonymous_args = 0
 468 0000 80B5     		push	{r7, lr}
 469              		.cfi_def_cfa_offset 8
 470              		.cfi_offset 7, -8
ARM GAS  C:\Users\tpbw4321\AppData\Local\Temp\cc6BUzHo.s 			page 15


 471              		.cfi_offset 14, -4
 472 0002 82B0     		sub	sp, sp, #8
 473              		.cfi_def_cfa_offset 16
 474 0004 00AF     		add	r7, sp, #0
 475              		.cfi_def_cfa_register 7
 476 0006 0346     		mov	r3, r0
 477 0008 FB71     		strb	r3, [r7, #7]
 329:Generated_Source\PSoC5/PingSensorTrigCounter.c ****     #if(PingSensorTrigCounter_UsingFixedFunction)
 330:Generated_Source\PSoC5/PingSensorTrigCounter.c ****         /* assert if block is already enabled */
 331:Generated_Source\PSoC5/PingSensorTrigCounter.c ****         CYASSERT (0u == (PingSensorTrigCounter_GLOBAL_ENABLE & PingSensorTrigCounter_BLOCK_EN_MASK)
 478              		.loc 1 331 0
 479 000a 114B     		ldr	r3, .L30
 480 000c 1B78     		ldrb	r3, [r3]
 481 000e DBB2     		uxtb	r3, r3
 482 0010 03F00103 		and	r3, r3, #1
 483 0014 002B     		cmp	r3, #0
 484 0016 02D0     		beq	.L29
 485              		.loc 1 331 0 is_stmt 0 discriminator 1
 486 0018 0020     		movs	r0, #0
 487 001a FFF7FEFF 		bl	CyHalt
 488              	.L29:
 332:Generated_Source\PSoC5/PingSensorTrigCounter.c ****         /* If block is disabled, enable it and then write the counter */
 333:Generated_Source\PSoC5/PingSensorTrigCounter.c ****         PingSensorTrigCounter_GLOBAL_ENABLE |= PingSensorTrigCounter_BLOCK_EN_MASK;
 489              		.loc 1 333 0 is_stmt 1
 490 001e 0C4A     		ldr	r2, .L30
 491 0020 0B4B     		ldr	r3, .L30
 492 0022 1B78     		ldrb	r3, [r3]
 493 0024 DBB2     		uxtb	r3, r3
 494 0026 43F00103 		orr	r3, r3, #1
 495 002a DBB2     		uxtb	r3, r3
 496 002c 1370     		strb	r3, [r2]
 334:Generated_Source\PSoC5/PingSensorTrigCounter.c ****         CY_SET_REG16(PingSensorTrigCounter_COUNTER_LSB_PTR, (uint16)counter);
 497              		.loc 1 334 0
 498 002e 094B     		ldr	r3, .L30+4
 499 0030 FA79     		ldrb	r2, [r7, #7]	@ zero_extendqisi2
 500 0032 92B2     		uxth	r2, r2
 501 0034 1A80     		strh	r2, [r3]	@ movhi
 335:Generated_Source\PSoC5/PingSensorTrigCounter.c ****         PingSensorTrigCounter_GLOBAL_ENABLE &= ((uint8)(~PingSensorTrigCounter_BLOCK_EN_MASK));
 502              		.loc 1 335 0
 503 0036 064A     		ldr	r2, .L30
 504 0038 054B     		ldr	r3, .L30
 505 003a 1B78     		ldrb	r3, [r3]
 506 003c DBB2     		uxtb	r3, r3
 507 003e 23F00103 		bic	r3, r3, #1
 508 0042 DBB2     		uxtb	r3, r3
 509 0044 1370     		strb	r3, [r2]
 336:Generated_Source\PSoC5/PingSensorTrigCounter.c ****     #else
 337:Generated_Source\PSoC5/PingSensorTrigCounter.c ****         CY_SET_REG8(PingSensorTrigCounter_COUNTER_LSB_PTR, counter);
 338:Generated_Source\PSoC5/PingSensorTrigCounter.c ****     #endif /* (PingSensorTrigCounter_UsingFixedFunction) */
 339:Generated_Source\PSoC5/PingSensorTrigCounter.c **** }
 510              		.loc 1 339 0
 511 0046 00BF     		nop
 512 0048 0837     		adds	r7, r7, #8
 513              		.cfi_def_cfa_offset 8
 514 004a BD46     		mov	sp, r7
 515              		.cfi_def_cfa_register 13
 516              		@ sp needed
ARM GAS  C:\Users\tpbw4321\AppData\Local\Temp\cc6BUzHo.s 			page 16


 517 004c 80BD     		pop	{r7, pc}
 518              	.L31:
 519 004e 00BF     		.align	2
 520              	.L30:
 521 0050 A3430040 		.word	1073759139
 522 0054 064F0040 		.word	1073762054
 523              		.cfi_endproc
 524              	.LFE8:
 525              		.size	PingSensorTrigCounter_WriteCounter, .-PingSensorTrigCounter_WriteCounter
 526              		.section	.text.PingSensorTrigCounter_ReadCounter,"ax",%progbits
 527              		.align	2
 528              		.global	PingSensorTrigCounter_ReadCounter
 529              		.thumb
 530              		.thumb_func
 531              		.type	PingSensorTrigCounter_ReadCounter, %function
 532              	PingSensorTrigCounter_ReadCounter:
 533              	.LFB9:
 340:Generated_Source\PSoC5/PingSensorTrigCounter.c **** #endif /* (!(PingSensorTrigCounter_UsingFixedFunction && (CY_PSOC5A))) */
 341:Generated_Source\PSoC5/PingSensorTrigCounter.c **** 
 342:Generated_Source\PSoC5/PingSensorTrigCounter.c **** 
 343:Generated_Source\PSoC5/PingSensorTrigCounter.c **** /*******************************************************************************
 344:Generated_Source\PSoC5/PingSensorTrigCounter.c **** * Function Name: PingSensorTrigCounter_ReadCounter
 345:Generated_Source\PSoC5/PingSensorTrigCounter.c **** ********************************************************************************
 346:Generated_Source\PSoC5/PingSensorTrigCounter.c **** * Summary:
 347:Generated_Source\PSoC5/PingSensorTrigCounter.c **** * Returns the current value of the counter.  It doesn't matter
 348:Generated_Source\PSoC5/PingSensorTrigCounter.c **** * if the counter is enabled or running.
 349:Generated_Source\PSoC5/PingSensorTrigCounter.c **** *
 350:Generated_Source\PSoC5/PingSensorTrigCounter.c **** * Parameters:  
 351:Generated_Source\PSoC5/PingSensorTrigCounter.c **** *  void:  
 352:Generated_Source\PSoC5/PingSensorTrigCounter.c **** *
 353:Generated_Source\PSoC5/PingSensorTrigCounter.c **** * Return: 
 354:Generated_Source\PSoC5/PingSensorTrigCounter.c **** *  (uint8) The present value of the counter.
 355:Generated_Source\PSoC5/PingSensorTrigCounter.c **** *
 356:Generated_Source\PSoC5/PingSensorTrigCounter.c **** *******************************************************************************/
 357:Generated_Source\PSoC5/PingSensorTrigCounter.c **** uint8 PingSensorTrigCounter_ReadCounter(void) 
 358:Generated_Source\PSoC5/PingSensorTrigCounter.c **** {
 534              		.loc 1 358 0
 535              		.cfi_startproc
 536              		@ args = 0, pretend = 0, frame = 0
 537              		@ frame_needed = 1, uses_anonymous_args = 0
 538              		@ link register save eliminated.
 539 0000 80B4     		push	{r7}
 540              		.cfi_def_cfa_offset 4
 541              		.cfi_offset 7, -4
 542 0002 00AF     		add	r7, sp, #0
 543              		.cfi_def_cfa_register 7
 359:Generated_Source\PSoC5/PingSensorTrigCounter.c ****     /* Force capture by reading Accumulator */
 360:Generated_Source\PSoC5/PingSensorTrigCounter.c ****     /* Must first do a software capture to be able to read the counter */
 361:Generated_Source\PSoC5/PingSensorTrigCounter.c ****     /* It is up to the user code to make sure there isn't already captured data in the FIFO */
 362:Generated_Source\PSoC5/PingSensorTrigCounter.c ****     #if(PingSensorTrigCounter_UsingFixedFunction)
 363:Generated_Source\PSoC5/PingSensorTrigCounter.c **** 		(void)CY_GET_REG16(PingSensorTrigCounter_COUNTER_LSB_PTR);
 544              		.loc 1 363 0
 545 0004 044B     		ldr	r3, .L34
 546 0006 1B88     		ldrh	r3, [r3]	@ movhi
 364:Generated_Source\PSoC5/PingSensorTrigCounter.c **** 	#else
 365:Generated_Source\PSoC5/PingSensorTrigCounter.c **** 		(void)CY_GET_REG8(PingSensorTrigCounter_COUNTER_LSB_PTR_8BIT);
 366:Generated_Source\PSoC5/PingSensorTrigCounter.c **** 	#endif/* (PingSensorTrigCounter_UsingFixedFunction) */
ARM GAS  C:\Users\tpbw4321\AppData\Local\Temp\cc6BUzHo.s 			page 17


 367:Generated_Source\PSoC5/PingSensorTrigCounter.c ****     
 368:Generated_Source\PSoC5/PingSensorTrigCounter.c ****     /* Read the data from the FIFO (or capture register for Fixed Function)*/
 369:Generated_Source\PSoC5/PingSensorTrigCounter.c ****     #if(PingSensorTrigCounter_UsingFixedFunction)
 370:Generated_Source\PSoC5/PingSensorTrigCounter.c ****         return ((uint8)CY_GET_REG16(PingSensorTrigCounter_STATICCOUNT_LSB_PTR));
 547              		.loc 1 370 0
 548 0008 044B     		ldr	r3, .L34+4
 549 000a 1B88     		ldrh	r3, [r3]	@ movhi
 550 000c 9BB2     		uxth	r3, r3
 551 000e DBB2     		uxtb	r3, r3
 371:Generated_Source\PSoC5/PingSensorTrigCounter.c ****     #else
 372:Generated_Source\PSoC5/PingSensorTrigCounter.c ****         return (CY_GET_REG8(PingSensorTrigCounter_STATICCOUNT_LSB_PTR));
 373:Generated_Source\PSoC5/PingSensorTrigCounter.c ****     #endif /* (PingSensorTrigCounter_UsingFixedFunction) */
 374:Generated_Source\PSoC5/PingSensorTrigCounter.c **** }
 552              		.loc 1 374 0
 553 0010 1846     		mov	r0, r3
 554 0012 BD46     		mov	sp, r7
 555              		.cfi_def_cfa_register 13
 556              		@ sp needed
 557 0014 80BC     		pop	{r7}
 558              		.cfi_restore 7
 559              		.cfi_def_cfa_offset 0
 560 0016 7047     		bx	lr
 561              	.L35:
 562              		.align	2
 563              	.L34:
 564 0018 064F0040 		.word	1073762054
 565 001c 084F0040 		.word	1073762056
 566              		.cfi_endproc
 567              	.LFE9:
 568              		.size	PingSensorTrigCounter_ReadCounter, .-PingSensorTrigCounter_ReadCounter
 569              		.section	.text.PingSensorTrigCounter_ReadCapture,"ax",%progbits
 570              		.align	2
 571              		.global	PingSensorTrigCounter_ReadCapture
 572              		.thumb
 573              		.thumb_func
 574              		.type	PingSensorTrigCounter_ReadCapture, %function
 575              	PingSensorTrigCounter_ReadCapture:
 576              	.LFB10:
 375:Generated_Source\PSoC5/PingSensorTrigCounter.c **** 
 376:Generated_Source\PSoC5/PingSensorTrigCounter.c **** 
 377:Generated_Source\PSoC5/PingSensorTrigCounter.c **** /*******************************************************************************
 378:Generated_Source\PSoC5/PingSensorTrigCounter.c **** * Function Name: PingSensorTrigCounter_ReadCapture
 379:Generated_Source\PSoC5/PingSensorTrigCounter.c **** ********************************************************************************
 380:Generated_Source\PSoC5/PingSensorTrigCounter.c **** * Summary:
 381:Generated_Source\PSoC5/PingSensorTrigCounter.c **** *   This function returns the last value captured.
 382:Generated_Source\PSoC5/PingSensorTrigCounter.c **** *
 383:Generated_Source\PSoC5/PingSensorTrigCounter.c **** * Parameters:  
 384:Generated_Source\PSoC5/PingSensorTrigCounter.c **** *  void
 385:Generated_Source\PSoC5/PingSensorTrigCounter.c **** *
 386:Generated_Source\PSoC5/PingSensorTrigCounter.c **** * Return: 
 387:Generated_Source\PSoC5/PingSensorTrigCounter.c **** *  (uint8) Present Capture value.
 388:Generated_Source\PSoC5/PingSensorTrigCounter.c **** *
 389:Generated_Source\PSoC5/PingSensorTrigCounter.c **** *******************************************************************************/
 390:Generated_Source\PSoC5/PingSensorTrigCounter.c **** uint8 PingSensorTrigCounter_ReadCapture(void) 
 391:Generated_Source\PSoC5/PingSensorTrigCounter.c **** {
 577              		.loc 1 391 0
 578              		.cfi_startproc
ARM GAS  C:\Users\tpbw4321\AppData\Local\Temp\cc6BUzHo.s 			page 18


 579              		@ args = 0, pretend = 0, frame = 0
 580              		@ frame_needed = 1, uses_anonymous_args = 0
 581              		@ link register save eliminated.
 582 0000 80B4     		push	{r7}
 583              		.cfi_def_cfa_offset 4
 584              		.cfi_offset 7, -4
 585 0002 00AF     		add	r7, sp, #0
 586              		.cfi_def_cfa_register 7
 392:Generated_Source\PSoC5/PingSensorTrigCounter.c ****     #if(PingSensorTrigCounter_UsingFixedFunction)
 393:Generated_Source\PSoC5/PingSensorTrigCounter.c ****         return ((uint8)CY_GET_REG16(PingSensorTrigCounter_STATICCOUNT_LSB_PTR));
 587              		.loc 1 393 0
 588 0004 034B     		ldr	r3, .L38
 589 0006 1B88     		ldrh	r3, [r3]	@ movhi
 590 0008 9BB2     		uxth	r3, r3
 591 000a DBB2     		uxtb	r3, r3
 394:Generated_Source\PSoC5/PingSensorTrigCounter.c ****     #else
 395:Generated_Source\PSoC5/PingSensorTrigCounter.c ****         return (CY_GET_REG8(PingSensorTrigCounter_STATICCOUNT_LSB_PTR));
 396:Generated_Source\PSoC5/PingSensorTrigCounter.c ****     #endif /* (PingSensorTrigCounter_UsingFixedFunction) */
 397:Generated_Source\PSoC5/PingSensorTrigCounter.c **** }
 592              		.loc 1 397 0
 593 000c 1846     		mov	r0, r3
 594 000e BD46     		mov	sp, r7
 595              		.cfi_def_cfa_register 13
 596              		@ sp needed
 597 0010 80BC     		pop	{r7}
 598              		.cfi_restore 7
 599              		.cfi_def_cfa_offset 0
 600 0012 7047     		bx	lr
 601              	.L39:
 602              		.align	2
 603              	.L38:
 604 0014 084F0040 		.word	1073762056
 605              		.cfi_endproc
 606              	.LFE10:
 607              		.size	PingSensorTrigCounter_ReadCapture, .-PingSensorTrigCounter_ReadCapture
 608              		.section	.text.PingSensorTrigCounter_WritePeriod,"ax",%progbits
 609              		.align	2
 610              		.global	PingSensorTrigCounter_WritePeriod
 611              		.thumb
 612              		.thumb_func
 613              		.type	PingSensorTrigCounter_WritePeriod, %function
 614              	PingSensorTrigCounter_WritePeriod:
 615              	.LFB11:
 398:Generated_Source\PSoC5/PingSensorTrigCounter.c **** 
 399:Generated_Source\PSoC5/PingSensorTrigCounter.c **** 
 400:Generated_Source\PSoC5/PingSensorTrigCounter.c **** /*******************************************************************************
 401:Generated_Source\PSoC5/PingSensorTrigCounter.c **** * Function Name: PingSensorTrigCounter_WritePeriod
 402:Generated_Source\PSoC5/PingSensorTrigCounter.c **** ********************************************************************************
 403:Generated_Source\PSoC5/PingSensorTrigCounter.c **** * Summary:
 404:Generated_Source\PSoC5/PingSensorTrigCounter.c **** * Changes the period of the counter.  The new period 
 405:Generated_Source\PSoC5/PingSensorTrigCounter.c **** * will be loaded the next time terminal count is detected.
 406:Generated_Source\PSoC5/PingSensorTrigCounter.c **** *
 407:Generated_Source\PSoC5/PingSensorTrigCounter.c **** * Parameters:  
 408:Generated_Source\PSoC5/PingSensorTrigCounter.c **** *  period: (uint8) A value of 0 will result in
 409:Generated_Source\PSoC5/PingSensorTrigCounter.c **** *         the counter remaining at zero.  
 410:Generated_Source\PSoC5/PingSensorTrigCounter.c **** *
 411:Generated_Source\PSoC5/PingSensorTrigCounter.c **** * Return: 
ARM GAS  C:\Users\tpbw4321\AppData\Local\Temp\cc6BUzHo.s 			page 19


 412:Generated_Source\PSoC5/PingSensorTrigCounter.c **** *  void
 413:Generated_Source\PSoC5/PingSensorTrigCounter.c **** *
 414:Generated_Source\PSoC5/PingSensorTrigCounter.c **** *******************************************************************************/
 415:Generated_Source\PSoC5/PingSensorTrigCounter.c **** void PingSensorTrigCounter_WritePeriod(uint8 period) 
 416:Generated_Source\PSoC5/PingSensorTrigCounter.c **** {
 616              		.loc 1 416 0
 617              		.cfi_startproc
 618              		@ args = 0, pretend = 0, frame = 8
 619              		@ frame_needed = 1, uses_anonymous_args = 0
 620              		@ link register save eliminated.
 621 0000 80B4     		push	{r7}
 622              		.cfi_def_cfa_offset 4
 623              		.cfi_offset 7, -4
 624 0002 83B0     		sub	sp, sp, #12
 625              		.cfi_def_cfa_offset 16
 626 0004 00AF     		add	r7, sp, #0
 627              		.cfi_def_cfa_register 7
 628 0006 0346     		mov	r3, r0
 629 0008 FB71     		strb	r3, [r7, #7]
 417:Generated_Source\PSoC5/PingSensorTrigCounter.c ****     #if(PingSensorTrigCounter_UsingFixedFunction)
 418:Generated_Source\PSoC5/PingSensorTrigCounter.c ****         CY_SET_REG16(PingSensorTrigCounter_PERIOD_LSB_PTR,(uint16)period);
 630              		.loc 1 418 0
 631 000a 044B     		ldr	r3, .L41
 632 000c FA79     		ldrb	r2, [r7, #7]	@ zero_extendqisi2
 633 000e 92B2     		uxth	r2, r2
 634 0010 1A80     		strh	r2, [r3]	@ movhi
 419:Generated_Source\PSoC5/PingSensorTrigCounter.c ****     #else
 420:Generated_Source\PSoC5/PingSensorTrigCounter.c ****         CY_SET_REG8(PingSensorTrigCounter_PERIOD_LSB_PTR, period);
 421:Generated_Source\PSoC5/PingSensorTrigCounter.c ****     #endif /* (PingSensorTrigCounter_UsingFixedFunction) */
 422:Generated_Source\PSoC5/PingSensorTrigCounter.c **** }
 635              		.loc 1 422 0
 636 0012 00BF     		nop
 637 0014 0C37     		adds	r7, r7, #12
 638              		.cfi_def_cfa_offset 4
 639 0016 BD46     		mov	sp, r7
 640              		.cfi_def_cfa_register 13
 641              		@ sp needed
 642 0018 80BC     		pop	{r7}
 643              		.cfi_restore 7
 644              		.cfi_def_cfa_offset 0
 645 001a 7047     		bx	lr
 646              	.L42:
 647              		.align	2
 648              	.L41:
 649 001c 044F0040 		.word	1073762052
 650              		.cfi_endproc
 651              	.LFE11:
 652              		.size	PingSensorTrigCounter_WritePeriod, .-PingSensorTrigCounter_WritePeriod
 653              		.section	.text.PingSensorTrigCounter_ReadPeriod,"ax",%progbits
 654              		.align	2
 655              		.global	PingSensorTrigCounter_ReadPeriod
 656              		.thumb
 657              		.thumb_func
 658              		.type	PingSensorTrigCounter_ReadPeriod, %function
 659              	PingSensorTrigCounter_ReadPeriod:
 660              	.LFB12:
 423:Generated_Source\PSoC5/PingSensorTrigCounter.c **** 
ARM GAS  C:\Users\tpbw4321\AppData\Local\Temp\cc6BUzHo.s 			page 20


 424:Generated_Source\PSoC5/PingSensorTrigCounter.c **** 
 425:Generated_Source\PSoC5/PingSensorTrigCounter.c **** /*******************************************************************************
 426:Generated_Source\PSoC5/PingSensorTrigCounter.c **** * Function Name: PingSensorTrigCounter_ReadPeriod
 427:Generated_Source\PSoC5/PingSensorTrigCounter.c **** ********************************************************************************
 428:Generated_Source\PSoC5/PingSensorTrigCounter.c **** * Summary:
 429:Generated_Source\PSoC5/PingSensorTrigCounter.c **** * Reads the current period value without affecting counter operation.
 430:Generated_Source\PSoC5/PingSensorTrigCounter.c **** *
 431:Generated_Source\PSoC5/PingSensorTrigCounter.c **** * Parameters:  
 432:Generated_Source\PSoC5/PingSensorTrigCounter.c **** *  void:  
 433:Generated_Source\PSoC5/PingSensorTrigCounter.c **** *
 434:Generated_Source\PSoC5/PingSensorTrigCounter.c **** * Return: 
 435:Generated_Source\PSoC5/PingSensorTrigCounter.c **** *  (uint8) Present period value.
 436:Generated_Source\PSoC5/PingSensorTrigCounter.c **** *
 437:Generated_Source\PSoC5/PingSensorTrigCounter.c **** *******************************************************************************/
 438:Generated_Source\PSoC5/PingSensorTrigCounter.c **** uint8 PingSensorTrigCounter_ReadPeriod(void) 
 439:Generated_Source\PSoC5/PingSensorTrigCounter.c **** {
 661              		.loc 1 439 0
 662              		.cfi_startproc
 663              		@ args = 0, pretend = 0, frame = 0
 664              		@ frame_needed = 1, uses_anonymous_args = 0
 665              		@ link register save eliminated.
 666 0000 80B4     		push	{r7}
 667              		.cfi_def_cfa_offset 4
 668              		.cfi_offset 7, -4
 669 0002 00AF     		add	r7, sp, #0
 670              		.cfi_def_cfa_register 7
 440:Generated_Source\PSoC5/PingSensorTrigCounter.c ****     #if(PingSensorTrigCounter_UsingFixedFunction)
 441:Generated_Source\PSoC5/PingSensorTrigCounter.c ****         return ((uint8)CY_GET_REG16(PingSensorTrigCounter_PERIOD_LSB_PTR));
 671              		.loc 1 441 0
 672 0004 034B     		ldr	r3, .L45
 673 0006 1B88     		ldrh	r3, [r3]	@ movhi
 674 0008 9BB2     		uxth	r3, r3
 675 000a DBB2     		uxtb	r3, r3
 442:Generated_Source\PSoC5/PingSensorTrigCounter.c ****     #else
 443:Generated_Source\PSoC5/PingSensorTrigCounter.c ****         return (CY_GET_REG8(PingSensorTrigCounter_PERIOD_LSB_PTR));
 444:Generated_Source\PSoC5/PingSensorTrigCounter.c ****     #endif /* (PingSensorTrigCounter_UsingFixedFunction) */
 445:Generated_Source\PSoC5/PingSensorTrigCounter.c **** }
 676              		.loc 1 445 0
 677 000c 1846     		mov	r0, r3
 678 000e BD46     		mov	sp, r7
 679              		.cfi_def_cfa_register 13
 680              		@ sp needed
 681 0010 80BC     		pop	{r7}
 682              		.cfi_restore 7
 683              		.cfi_def_cfa_offset 0
 684 0012 7047     		bx	lr
 685              	.L46:
 686              		.align	2
 687              	.L45:
 688 0014 044F0040 		.word	1073762052
 689              		.cfi_endproc
 690              	.LFE12:
 691              		.size	PingSensorTrigCounter_ReadPeriod, .-PingSensorTrigCounter_ReadPeriod
 692              		.text
 693              	.Letext0:
 694              		.file 2 "Generated_Source\\PSoC5\\cytypes.h"