ARM GAS  C:\Users\tpbw4321\AppData\Local\Temp\cc842v3Q.s 			page 1


   1              		.syntax unified
   2              		.cpu cortex-m3
   3              		.fpu softvfp
   4              		.eabi_attribute 20, 1
   5              		.eabi_attribute 21, 1
   6              		.eabi_attribute 23, 3
   7              		.eabi_attribute 24, 1
   8              		.eabi_attribute 25, 1
   9              		.eabi_attribute 26, 1
  10              		.eabi_attribute 30, 6
  11              		.eabi_attribute 34, 1
  12              		.eabi_attribute 18, 4
  13              		.thumb
  14              		.syntax unified
  15              		.file	"PingSensor.c"
  16              		.text
  17              	.Ltext0:
  18              		.cfi_sections	.debug_frame
  19              		.bss
  20              		.align	3
  21              	SupplyLevel:
  22 0000 00000000 		.space	40
  22      00000000 
  22      00000000 
  22      00000000 
  22      00000000 
  23              	PingSelector:
  24 0028 00       		.space	1
  25              		.section	.text.PingSensor_GetWaterLevel,"ax",%progbits
  26              		.align	2
  27              		.global	PingSensor_GetWaterLevel
  28              		.thumb
  29              		.thumb_func
  30              		.type	PingSensor_GetWaterLevel, %function
  31              	PingSensor_GetWaterLevel:
  32              	.LFB64:
  33              		.file 1 "src\\PingSensor.c"
   1:src/PingSensor.c **** #include <project.h>
   2:src/PingSensor.c **** #include <stdio.h>
   3:src/PingSensor.c **** #include "PingSensor.h"
   4:src/PingSensor.c **** 
   5:src/PingSensor.c **** #define TIMEOUT 100000//65536 //About 65.536 ms
   6:src/PingSensor.c **** #define ECHO_TIMER_MAX 65536 //About 65.536 ms
   7:src/PingSensor.c **** #define LEVEL_SENSE_CNT 5
   8:src/PingSensor.c **** #define MEGA 1000000.0
   9:src/PingSensor.c **** 
  10:src/PingSensor.c **** static double SupplyLevel[LEVEL_SENSE_CNT];
  11:src/PingSensor.c **** static Level  PingSelector = 0;
  12:src/PingSensor.c **** 
  13:src/PingSensor.c **** double PingSensor_GetWaterLevel(){return SupplyLevel[LEVEL_WATER];}
  34              		.loc 1 13 0
  35              		.cfi_startproc
  36              		@ args = 0, pretend = 0, frame = 0
  37              		@ frame_needed = 1, uses_anonymous_args = 0
  38              		@ link register save eliminated.
  39 0000 90B4     		push	{r4, r7}
  40              		.cfi_def_cfa_offset 8
ARM GAS  C:\Users\tpbw4321\AppData\Local\Temp\cc842v3Q.s 			page 2


  41              		.cfi_offset 4, -8
  42              		.cfi_offset 7, -4
  43 0002 00AF     		add	r7, sp, #0
  44              		.cfi_def_cfa_register 7
  45              		.loc 1 13 0
  46 0004 034B     		ldr	r3, .L3
  47 0006 18CB     		ldmia	r3, {r3-r4}
  48 0008 1846     		mov	r0, r3
  49 000a 2146     		mov	r1, r4
  50 000c BD46     		mov	sp, r7
  51              		.cfi_def_cfa_register 13
  52              		@ sp needed
  53 000e 90BC     		pop	{r4, r7}
  54              		.cfi_restore 7
  55              		.cfi_restore 4
  56              		.cfi_def_cfa_offset 0
  57 0010 7047     		bx	lr
  58              	.L4:
  59 0012 00BF     		.align	2
  60              	.L3:
  61 0014 00000000 		.word	SupplyLevel
  62              		.cfi_endproc
  63              	.LFE64:
  64              		.size	PingSensor_GetWaterLevel, .-PingSensor_GetWaterLevel
  65              		.section	.text.PingSensor_GetpHUpLevel,"ax",%progbits
  66              		.align	2
  67              		.global	PingSensor_GetpHUpLevel
  68              		.thumb
  69              		.thumb_func
  70              		.type	PingSensor_GetpHUpLevel, %function
  71              	PingSensor_GetpHUpLevel:
  72              	.LFB65:
  14:src/PingSensor.c **** double PingSensor_GetpHUpLevel(){return SupplyLevel[LEVEL_pH_UP];}
  73              		.loc 1 14 0
  74              		.cfi_startproc
  75              		@ args = 0, pretend = 0, frame = 0
  76              		@ frame_needed = 1, uses_anonymous_args = 0
  77              		@ link register save eliminated.
  78 0000 90B4     		push	{r4, r7}
  79              		.cfi_def_cfa_offset 8
  80              		.cfi_offset 4, -8
  81              		.cfi_offset 7, -4
  82 0002 00AF     		add	r7, sp, #0
  83              		.cfi_def_cfa_register 7
  84              		.loc 1 14 0
  85 0004 044B     		ldr	r3, .L7
  86 0006 03F10804 		add	r4, r3, #8
  87 000a D4E90034 		ldrd	r3, [r4]
  88 000e 1846     		mov	r0, r3
  89 0010 2146     		mov	r1, r4
  90 0012 BD46     		mov	sp, r7
  91              		.cfi_def_cfa_register 13
  92              		@ sp needed
  93 0014 90BC     		pop	{r4, r7}
  94              		.cfi_restore 7
  95              		.cfi_restore 4
  96              		.cfi_def_cfa_offset 0
ARM GAS  C:\Users\tpbw4321\AppData\Local\Temp\cc842v3Q.s 			page 3


  97 0016 7047     		bx	lr
  98              	.L8:
  99              		.align	2
 100              	.L7:
 101 0018 00000000 		.word	SupplyLevel
 102              		.cfi_endproc
 103              	.LFE65:
 104              		.size	PingSensor_GetpHUpLevel, .-PingSensor_GetpHUpLevel
 105              		.section	.text.PingSensor_GetpHDownLevel,"ax",%progbits
 106              		.align	2
 107              		.global	PingSensor_GetpHDownLevel
 108              		.thumb
 109              		.thumb_func
 110              		.type	PingSensor_GetpHDownLevel, %function
 111              	PingSensor_GetpHDownLevel:
 112              	.LFB66:
  15:src/PingSensor.c **** double PingSensor_GetpHDownLevel(){return SupplyLevel[LEVEL_pH_DOWN];}
 113              		.loc 1 15 0
 114              		.cfi_startproc
 115              		@ args = 0, pretend = 0, frame = 0
 116              		@ frame_needed = 1, uses_anonymous_args = 0
 117              		@ link register save eliminated.
 118 0000 90B4     		push	{r4, r7}
 119              		.cfi_def_cfa_offset 8
 120              		.cfi_offset 4, -8
 121              		.cfi_offset 7, -4
 122 0002 00AF     		add	r7, sp, #0
 123              		.cfi_def_cfa_register 7
 124              		.loc 1 15 0
 125 0004 044B     		ldr	r3, .L11
 126 0006 03F11004 		add	r4, r3, #16
 127 000a D4E90034 		ldrd	r3, [r4]
 128 000e 1846     		mov	r0, r3
 129 0010 2146     		mov	r1, r4
 130 0012 BD46     		mov	sp, r7
 131              		.cfi_def_cfa_register 13
 132              		@ sp needed
 133 0014 90BC     		pop	{r4, r7}
 134              		.cfi_restore 7
 135              		.cfi_restore 4
 136              		.cfi_def_cfa_offset 0
 137 0016 7047     		bx	lr
 138              	.L12:
 139              		.align	2
 140              	.L11:
 141 0018 00000000 		.word	SupplyLevel
 142              		.cfi_endproc
 143              	.LFE66:
 144              		.size	PingSensor_GetpHDownLevel, .-PingSensor_GetpHDownLevel
 145              		.section	.text.PingSensor_GetNutLevel,"ax",%progbits
 146              		.align	2
 147              		.global	PingSensor_GetNutLevel
 148              		.thumb
 149              		.thumb_func
 150              		.type	PingSensor_GetNutLevel, %function
 151              	PingSensor_GetNutLevel:
 152              	.LFB67:
ARM GAS  C:\Users\tpbw4321\AppData\Local\Temp\cc842v3Q.s 			page 4


  16:src/PingSensor.c **** double PingSensor_GetNutLevel(){return SupplyLevel[LEVEL_NUTS];}
 153              		.loc 1 16 0
 154              		.cfi_startproc
 155              		@ args = 0, pretend = 0, frame = 0
 156              		@ frame_needed = 1, uses_anonymous_args = 0
 157              		@ link register save eliminated.
 158 0000 90B4     		push	{r4, r7}
 159              		.cfi_def_cfa_offset 8
 160              		.cfi_offset 4, -8
 161              		.cfi_offset 7, -4
 162 0002 00AF     		add	r7, sp, #0
 163              		.cfi_def_cfa_register 7
 164              		.loc 1 16 0
 165 0004 044B     		ldr	r3, .L15
 166 0006 03F11804 		add	r4, r3, #24
 167 000a D4E90034 		ldrd	r3, [r4]
 168 000e 1846     		mov	r0, r3
 169 0010 2146     		mov	r1, r4
 170 0012 BD46     		mov	sp, r7
 171              		.cfi_def_cfa_register 13
 172              		@ sp needed
 173 0014 90BC     		pop	{r4, r7}
 174              		.cfi_restore 7
 175              		.cfi_restore 4
 176              		.cfi_def_cfa_offset 0
 177 0016 7047     		bx	lr
 178              	.L16:
 179              		.align	2
 180              	.L15:
 181 0018 00000000 		.word	SupplyLevel
 182              		.cfi_endproc
 183              	.LFE67:
 184              		.size	PingSensor_GetNutLevel, .-PingSensor_GetNutLevel
 185              		.section	.text.PingSensor_GetWaterResLevel,"ax",%progbits
 186              		.align	2
 187              		.global	PingSensor_GetWaterResLevel
 188              		.thumb
 189              		.thumb_func
 190              		.type	PingSensor_GetWaterResLevel, %function
 191              	PingSensor_GetWaterResLevel:
 192              	.LFB68:
  17:src/PingSensor.c **** double PingSensor_GetWaterResLevel(){return SupplyLevel[LEVEL_WATER_RES];}
 193              		.loc 1 17 0
 194              		.cfi_startproc
 195              		@ args = 0, pretend = 0, frame = 0
 196              		@ frame_needed = 1, uses_anonymous_args = 0
 197              		@ link register save eliminated.
 198 0000 90B4     		push	{r4, r7}
 199              		.cfi_def_cfa_offset 8
 200              		.cfi_offset 4, -8
 201              		.cfi_offset 7, -4
 202 0002 00AF     		add	r7, sp, #0
 203              		.cfi_def_cfa_register 7
 204              		.loc 1 17 0
 205 0004 044B     		ldr	r3, .L19
 206 0006 03F12004 		add	r4, r3, #32
 207 000a D4E90034 		ldrd	r3, [r4]
ARM GAS  C:\Users\tpbw4321\AppData\Local\Temp\cc842v3Q.s 			page 5


 208 000e 1846     		mov	r0, r3
 209 0010 2146     		mov	r1, r4
 210 0012 BD46     		mov	sp, r7
 211              		.cfi_def_cfa_register 13
 212              		@ sp needed
 213 0014 90BC     		pop	{r4, r7}
 214              		.cfi_restore 7
 215              		.cfi_restore 4
 216              		.cfi_def_cfa_offset 0
 217 0016 7047     		bx	lr
 218              	.L20:
 219              		.align	2
 220              	.L19:
 221 0018 00000000 		.word	SupplyLevel
 222              		.cfi_endproc
 223              	.LFE68:
 224              		.size	PingSensor_GetWaterResLevel, .-PingSensor_GetWaterResLevel
 225              		.section	.text.PingSensor_Init,"ax",%progbits
 226              		.align	2
 227              		.global	PingSensor_Init
 228              		.thumb
 229              		.thumb_func
 230              		.type	PingSensor_Init, %function
 231              	PingSensor_Init:
 232              	.LFB69:
  18:src/PingSensor.c **** 
  19:src/PingSensor.c **** /**
  20:src/PingSensor.c ****  * @function PingSensor_Init(void)
  21:src/PingSensor.c ****  * @param None
  22:src/PingSensor.c ****  * @return None
  23:src/PingSensor.c ****  * @brief Initializes hardware components necessary level sensing
  24:src/PingSensor.c ****  * @author Barron Wong 03/30/19
  25:src/PingSensor.c **** */
  26:src/PingSensor.c **** void PingSensor_Init(){
 233              		.loc 1 26 0
 234              		.cfi_startproc
 235              		@ args = 0, pretend = 0, frame = 0
 236              		@ frame_needed = 1, uses_anonymous_args = 0
 237 0000 80B5     		push	{r7, lr}
 238              		.cfi_def_cfa_offset 8
 239              		.cfi_offset 7, -8
 240              		.cfi_offset 14, -4
 241 0002 00AF     		add	r7, sp, #0
 242              		.cfi_def_cfa_register 7
  27:src/PingSensor.c ****     PingSensorEchoISR_StartEx(PingSensorEchoISRHandler);
 243              		.loc 1 27 0
 244 0004 0948     		ldr	r0, .L22
 245 0006 FFF7FEFF 		bl	PingSensorEchoISR_StartEx
  28:src/PingSensor.c ****     PingSensorTrigISR_StartEx(PingSensorTrigISRHandler);
 246              		.loc 1 28 0
 247 000a 0948     		ldr	r0, .L22+4
 248 000c FFF7FEFF 		bl	PingSensorTrigISR_StartEx
  29:src/PingSensor.c ****     PingSensorSampleTimerISR_StartEx(PingSensorSampleTimerISRHandler);
 249              		.loc 1 29 0
 250 0010 0848     		ldr	r0, .L22+8
 251 0012 FFF7FEFF 		bl	PingSensorSampleTimerISR_StartEx
  30:src/PingSensor.c ****     PingSensorTrigCounter_Start();
ARM GAS  C:\Users\tpbw4321\AppData\Local\Temp\cc842v3Q.s 			page 6


 252              		.loc 1 30 0
 253 0016 FFF7FEFF 		bl	PingSensorTrigCounter_Start
  31:src/PingSensor.c ****     PingSensorEchoTimer_Start();
 254              		.loc 1 31 0
 255 001a FFF7FEFF 		bl	PingSensorEchoTimer_Start
  32:src/PingSensor.c ****     PingSensorSampleTimer_Start();
 256              		.loc 1 32 0
 257 001e FFF7FEFF 		bl	PingSensorSampleTimer_Start
  33:src/PingSensor.c ****     PingSelector = LEVEL_WATER;
 258              		.loc 1 33 0
 259 0022 054B     		ldr	r3, .L22+12
 260 0024 0022     		movs	r2, #0
 261 0026 1A70     		strb	r2, [r3]
  34:src/PingSensor.c **** }
 262              		.loc 1 34 0
 263 0028 00BF     		nop
 264 002a 80BD     		pop	{r7, pc}
 265              	.L23:
 266              		.align	2
 267              	.L22:
 268 002c 00000000 		.word	PingSensorEchoISRHandler
 269 0030 00000000 		.word	PingSensorTrigISRHandler
 270 0034 00000000 		.word	PingSensorSampleTimerISRHandler
 271 0038 28000000 		.word	PingSelector
 272              		.cfi_endproc
 273              	.LFE69:
 274              		.size	PingSensor_Init, .-PingSensor_Init
 275              		.section	.text.PingSensor_InitiateReading,"ax",%progbits
 276              		.align	2
 277              		.global	PingSensor_InitiateReading
 278              		.thumb
 279              		.thumb_func
 280              		.type	PingSensor_InitiateReading, %function
 281              	PingSensor_InitiateReading:
 282              	.LFB70:
  35:src/PingSensor.c **** 
  36:src/PingSensor.c **** /**
  37:src/PingSensor.c ****  * @function PingSensor_InitiateReading(Level sensor)
  38:src/PingSensor.c ****  * @param The sensor the user wants to initiate
  39:src/PingSensor.c ****  * @return None
  40:src/PingSensor.c ****  * @brief Intiates a reading for a level sensor
  41:src/PingSensor.c ****  * @author Barron Wong 03/30/19
  42:src/PingSensor.c **** */
  43:src/PingSensor.c **** void PingSensor_InitiateReading(Level sensor){
 283              		.loc 1 43 0
 284              		.cfi_startproc
 285              		@ args = 0, pretend = 0, frame = 8
 286              		@ frame_needed = 1, uses_anonymous_args = 0
 287 0000 80B5     		push	{r7, lr}
 288              		.cfi_def_cfa_offset 8
 289              		.cfi_offset 7, -8
 290              		.cfi_offset 14, -4
 291 0002 82B0     		sub	sp, sp, #8
 292              		.cfi_def_cfa_offset 16
 293 0004 00AF     		add	r7, sp, #0
 294              		.cfi_def_cfa_register 7
 295 0006 0346     		mov	r3, r0
ARM GAS  C:\Users\tpbw4321\AppData\Local\Temp\cc842v3Q.s 			page 7


 296 0008 FB71     		strb	r3, [r7, #7]
  44:src/PingSensor.c ****     LevelSelect_Write(sensor);
 297              		.loc 1 44 0
 298 000a FB79     		ldrb	r3, [r7, #7]	@ zero_extendqisi2
 299 000c 1846     		mov	r0, r3
 300 000e FFF7FEFF 		bl	LevelSelect_Write
  45:src/PingSensor.c ****     PingSensorControl_Write(1);
 301              		.loc 1 45 0
 302 0012 0120     		movs	r0, #1
 303 0014 FFF7FEFF 		bl	PingSensorControl_Write
  46:src/PingSensor.c ****     PingSensorTrigControl_Write(1);
 304              		.loc 1 46 0
 305 0018 0120     		movs	r0, #1
 306 001a FFF7FEFF 		bl	PingSensorTrigControl_Write
  47:src/PingSensor.c **** }
 307              		.loc 1 47 0
 308 001e 00BF     		nop
 309 0020 0837     		adds	r7, r7, #8
 310              		.cfi_def_cfa_offset 8
 311 0022 BD46     		mov	sp, r7
 312              		.cfi_def_cfa_register 13
 313              		@ sp needed
 314 0024 80BD     		pop	{r7, pc}
 315              		.cfi_endproc
 316              	.LFE70:
 317              		.size	PingSensor_InitiateReading, .-PingSensor_InitiateReading
 318 0026 00BF     		.section	.text.PingSensorSampleTimerISRHandler,"ax",%progbits
 319              		.align	2
 320              		.global	PingSensorSampleTimerISRHandler
 321              		.thumb
 322              		.thumb_func
 323              		.type	PingSensorSampleTimerISRHandler, %function
 324              	PingSensorSampleTimerISRHandler:
 325              	.LFB71:
  48:src/PingSensor.c **** /**
  49:src/PingSensor.c ****  * @function PingSensorSampleTimerISRHandler(void)
  50:src/PingSensor.c ****  * @param None
  51:src/PingSensor.c ****  * @return None
  52:src/PingSensor.c ****  * @brief Timeout for level sense. Takes level readings every 100ms
  53:src/PingSensor.c ****  * @author Barron Wong 04/07/19
  54:src/PingSensor.c ****  */
  55:src/PingSensor.c **** CY_ISR(PingSensorSampleTimerISRHandler){
 326              		.loc 1 55 0
 327              		.cfi_startproc
 328              		@ args = 0, pretend = 0, frame = 0
 329              		@ frame_needed = 1, uses_anonymous_args = 0
 330 0000 80B5     		push	{r7, lr}
 331              		.cfi_def_cfa_offset 8
 332              		.cfi_offset 7, -8
 333              		.cfi_offset 14, -4
 334 0002 00AF     		add	r7, sp, #0
 335              		.cfi_def_cfa_register 7
  56:src/PingSensor.c ****     PingSensor_InitiateReading(PingSelector);
 336              		.loc 1 56 0
 337 0004 0C4B     		ldr	r3, .L26
 338 0006 1B78     		ldrb	r3, [r3]	@ zero_extendqisi2
 339 0008 1846     		mov	r0, r3
ARM GAS  C:\Users\tpbw4321\AppData\Local\Temp\cc842v3Q.s 			page 8


 340 000a FFF7FEFF 		bl	PingSensor_InitiateReading
  57:src/PingSensor.c ****     PingSelector = (PingSelector + 1) % LEVEL_SENSE_CNT;
 341              		.loc 1 57 0
 342 000e 0A4B     		ldr	r3, .L26
 343 0010 1B78     		ldrb	r3, [r3]	@ zero_extendqisi2
 344 0012 5A1C     		adds	r2, r3, #1
 345 0014 094B     		ldr	r3, .L26+4
 346 0016 83FB0213 		smull	r1, r3, r3, r2
 347 001a 5910     		asrs	r1, r3, #1
 348 001c D317     		asrs	r3, r2, #31
 349 001e C91A     		subs	r1, r1, r3
 350 0020 0B46     		mov	r3, r1
 351 0022 9B00     		lsls	r3, r3, #2
 352 0024 0B44     		add	r3, r3, r1
 353 0026 D11A     		subs	r1, r2, r3
 354 0028 CAB2     		uxtb	r2, r1
 355 002a 034B     		ldr	r3, .L26
 356 002c 1A70     		strb	r2, [r3]
  58:src/PingSensor.c ****     PingSensorSampleTimerISR_ClearPending();
 357              		.loc 1 58 0
 358 002e FFF7FEFF 		bl	PingSensorSampleTimerISR_ClearPending
  59:src/PingSensor.c **** }
 359              		.loc 1 59 0
 360 0032 00BF     		nop
 361 0034 80BD     		pop	{r7, pc}
 362              	.L27:
 363 0036 00BF     		.align	2
 364              	.L26:
 365 0038 28000000 		.word	PingSelector
 366 003c 67666666 		.word	1717986919
 367              		.cfi_endproc
 368              	.LFE71:
 369              		.size	PingSensorSampleTimerISRHandler, .-PingSensorSampleTimerISRHandler
 370              		.global	__aeabi_ui2d
 371              		.global	__aeabi_ddiv
 372              		.global	__aeabi_dmul
 373              		.section	.text.PingSensorEchoISRHandler,"ax",%progbits
 374              		.align	2
 375              		.global	PingSensorEchoISRHandler
 376              		.thumb
 377              		.thumb_func
 378              		.type	PingSensorEchoISRHandler, %function
 379              	PingSensorEchoISRHandler:
 380              	.LFB72:
  60:src/PingSensor.c **** /**
  61:src/PingSensor.c ****  * @function PingSensorEchoISRHandler(void)
  62:src/PingSensor.c ****  * @param None
  63:src/PingSensor.c ****  * @return None
  64:src/PingSensor.c ****  * @brief Reads time of flight in microseconds 
  65:src/PingSensor.c ****  * @author Barron Wong 03/30/19
  66:src/PingSensor.c **** */
  67:src/PingSensor.c **** CY_ISR(PingSensorEchoISRHandler){
 381              		.loc 1 67 0
 382              		.cfi_startproc
 383              		@ args = 0, pretend = 0, frame = 8
 384              		@ frame_needed = 1, uses_anonymous_args = 0
 385 0000 B0B5     		push	{r4, r5, r7, lr}
ARM GAS  C:\Users\tpbw4321\AppData\Local\Temp\cc842v3Q.s 			page 9


 386              		.cfi_def_cfa_offset 16
 387              		.cfi_offset 4, -16
 388              		.cfi_offset 5, -12
 389              		.cfi_offset 7, -8
 390              		.cfi_offset 14, -4
 391 0002 82B0     		sub	sp, sp, #8
 392              		.cfi_def_cfa_offset 24
 393 0004 00AF     		add	r7, sp, #0
 394              		.cfi_def_cfa_register 7
  68:src/PingSensor.c ****     uint32_t time;
  69:src/PingSensor.c ****     uint8_t echo_select = (PingSelector - 1);
 395              		.loc 1 69 0
 396 0006 284B     		ldr	r3, .L30+8
 397 0008 1B78     		ldrb	r3, [r3]	@ zero_extendqisi2
 398 000a 013B     		subs	r3, r3, #1
 399 000c FB71     		strb	r3, [r7, #7]
  70:src/PingSensor.c ****     if(echo_select == 255)
 400              		.loc 1 70 0
 401 000e FB79     		ldrb	r3, [r7, #7]	@ zero_extendqisi2
 402 0010 FF2B     		cmp	r3, #255
 403 0012 01D1     		bne	.L29
  71:src/PingSensor.c ****         echo_select = 4;
 404              		.loc 1 71 0
 405 0014 0423     		movs	r3, #4
 406 0016 FB71     		strb	r3, [r7, #7]
 407              	.L29:
  72:src/PingSensor.c ****     echo_select %= LEVEL_SENSE_CNT;
 408              		.loc 1 72 0
 409 0018 FA79     		ldrb	r2, [r7, #7]	@ zero_extendqisi2
 410 001a 244B     		ldr	r3, .L30+12
 411 001c A3FB0213 		umull	r1, r3, r3, r2
 412 0020 9908     		lsrs	r1, r3, #2
 413 0022 0B46     		mov	r3, r1
 414 0024 9B00     		lsls	r3, r3, #2
 415 0026 0B44     		add	r3, r3, r1
 416 0028 D31A     		subs	r3, r2, r3
 417 002a FB71     		strb	r3, [r7, #7]
  73:src/PingSensor.c ****     PingSensorEchoISR_ClearPending();
 418              		.loc 1 73 0
 419 002c FFF7FEFF 		bl	PingSensorEchoISR_ClearPending
  74:src/PingSensor.c ****     time = ECHO_TIMER_MAX - PingSensorEchoTimer_ReadCapture();
 420              		.loc 1 74 0
 421 0030 FFF7FEFF 		bl	PingSensorEchoTimer_ReadCapture
 422 0034 0346     		mov	r3, r0
 423 0036 C3F58033 		rsb	r3, r3, #65536
 424 003a 3B60     		str	r3, [r7]
  75:src/PingSensor.c ****     SupplyLevel[echo_select] = ((time/MEGA * 340)/2)*100;
 425              		.loc 1 75 0
 426 003c FD79     		ldrb	r5, [r7, #7]	@ zero_extendqisi2
 427 003e 3868     		ldr	r0, [r7]
 428 0040 FFF7FEFF 		bl	__aeabi_ui2d
 429 0044 16A3     		adr	r3, .L30
 430 0046 D3E90023 		ldrd	r2, [r3]
 431 004a FFF7FEFF 		bl	__aeabi_ddiv
 432 004e 0346     		mov	r3, r0
 433 0050 0C46     		mov	r4, r1
 434 0052 1846     		mov	r0, r3
ARM GAS  C:\Users\tpbw4321\AppData\Local\Temp\cc842v3Q.s 			page 10


 435 0054 2146     		mov	r1, r4
 436 0056 4FF00002 		mov	r2, #0
 437 005a 154B     		ldr	r3, .L30+16
 438 005c FFF7FEFF 		bl	__aeabi_dmul
 439 0060 0346     		mov	r3, r0
 440 0062 0C46     		mov	r4, r1
 441 0064 1846     		mov	r0, r3
 442 0066 2146     		mov	r1, r4
 443 0068 4FF00002 		mov	r2, #0
 444 006c 4FF08043 		mov	r3, #1073741824
 445 0070 FFF7FEFF 		bl	__aeabi_ddiv
 446 0074 0346     		mov	r3, r0
 447 0076 0C46     		mov	r4, r1
 448 0078 1846     		mov	r0, r3
 449 007a 2146     		mov	r1, r4
 450 007c 4FF00002 		mov	r2, #0
 451 0080 0C4B     		ldr	r3, .L30+20
 452 0082 FFF7FEFF 		bl	__aeabi_dmul
 453 0086 0346     		mov	r3, r0
 454 0088 0C46     		mov	r4, r1
 455 008a 0B49     		ldr	r1, .L30+24
 456 008c EA00     		lsls	r2, r5, #3
 457 008e 0A44     		add	r2, r2, r1
 458 0090 C2E90034 		strd	r3, [r2]
  76:src/PingSensor.c ****     //printf("Echo Select %d\r\n", echo_select);
  77:src/PingSensor.c ****     PingSensorEchoTimer_ClearFIFO();
 459              		.loc 1 77 0
 460 0094 FFF7FEFF 		bl	PingSensorEchoTimer_ClearFIFO
  78:src/PingSensor.c **** }
 461              		.loc 1 78 0
 462 0098 00BF     		nop
 463 009a 0837     		adds	r7, r7, #8
 464              		.cfi_def_cfa_offset 16
 465 009c BD46     		mov	sp, r7
 466              		.cfi_def_cfa_register 13
 467              		@ sp needed
 468 009e B0BD     		pop	{r4, r5, r7, pc}
 469              	.L31:
 470              		.align	3
 471              	.L30:
 472 00a0 00000000 		.word	0
 473 00a4 80842E41 		.word	1093567616
 474 00a8 28000000 		.word	PingSelector
 475 00ac CDCCCCCC 		.word	-858993459
 476 00b0 00407540 		.word	1081425920
 477 00b4 00005940 		.word	1079574528
 478 00b8 00000000 		.word	SupplyLevel
 479              		.cfi_endproc
 480              	.LFE72:
 481              		.size	PingSensorEchoISRHandler, .-PingSensorEchoISRHandler
 482              		.section	.text.PingSensorTrigISRHandler,"ax",%progbits
 483              		.align	2
 484              		.global	PingSensorTrigISRHandler
 485              		.thumb
 486              		.thumb_func
 487              		.type	PingSensorTrigISRHandler, %function
 488              	PingSensorTrigISRHandler:
ARM GAS  C:\Users\tpbw4321\AppData\Local\Temp\cc842v3Q.s 			page 11


 489              	.LFB73:
  79:src/PingSensor.c **** /**
  80:src/PingSensor.c ****  * @function PingSensorTrigISRHandler(void)
  81:src/PingSensor.c ****  * @param None
  82:src/PingSensor.c ****  * @return None
  83:src/PingSensor.c ****  * @brief ISR Handler for Trig Pin
  84:src/PingSensor.c ****  * @author Barron Wong 01/25/19
  85:src/PingSensor.c ****  */
  86:src/PingSensor.c **** CY_ISR(PingSensorTrigISRHandler){
 490              		.loc 1 86 0
 491              		.cfi_startproc
 492              		@ args = 0, pretend = 0, frame = 0
 493              		@ frame_needed = 1, uses_anonymous_args = 0
 494 0000 80B5     		push	{r7, lr}
 495              		.cfi_def_cfa_offset 8
 496              		.cfi_offset 7, -8
 497              		.cfi_offset 14, -4
 498 0002 00AF     		add	r7, sp, #0
 499              		.cfi_def_cfa_register 7
  87:src/PingSensor.c ****     PingSensorTrigISR_ClearPending();
 500              		.loc 1 87 0
 501 0004 FFF7FEFF 		bl	PingSensorTrigISR_ClearPending
  88:src/PingSensor.c ****     PingSensorTrigControl_Write(0);
 502              		.loc 1 88 0
 503 0008 0020     		movs	r0, #0
 504 000a FFF7FEFF 		bl	PingSensorTrigControl_Write
  89:src/PingSensor.c **** }
 505              		.loc 1 89 0
 506 000e 00BF     		nop
 507 0010 80BD     		pop	{r7, pc}
 508              		.cfi_endproc
 509              	.LFE73:
 510              		.size	PingSensorTrigISRHandler, .-PingSensorTrigISRHandler
 511 0012 00BF     		.text
 512              	.Letext0:
 513              		.file 2 "c:\\program files (x86)\\cypress\\psoc creator\\4.2\\psoc creator\\import\\gnu\\arm\\5.4.
 514              		.file 3 "c:\\program files (x86)\\cypress\\psoc creator\\4.2\\psoc creator\\import\\gnu\\arm\\5.4.
 515              		.file 4 ".\\include/PingSensor.h"
 516              		.file 5 "Generated_Source\\PSoC5/core_cm3.h"