ARM GAS  C:\Users\tpbw4321\AppData\Local\Temp\ccJ4G4Qh.s 			page 1


   1              		.syntax unified
   2              		.cpu cortex-m3
   3              		.fpu softvfp
   4              		.eabi_attribute 20, 1
   5              		.eabi_attribute 21, 1
   6              		.eabi_attribute 23, 3
   7              		.eabi_attribute 24, 1
   8              		.eabi_attribute 25, 1
   9              		.eabi_attribute 26, 1
  10              		.eabi_attribute 30, 6
  11              		.eabi_attribute 34, 1
  12              		.eabi_attribute 18, 4
  13              		.thumb
  14              		.syntax unified
  15              		.file	"Protocol.c"
  16              		.text
  17              	.Ltext0:
  18              		.cfi_sections	.debug_frame
  19              		.section	.rodata
  20              		.align	2
  21              	.LC0:
  22 0000 696E7661 		.ascii	"invalid_key\000"
  22      6C69645F 
  22      6B657900 
  23              		.align	2
  24              	.LC1:
  25 000c 666C6F77 		.ascii	"flow_target\000"
  25      5F746172 
  25      67657400 
  26              		.align	2
  27              	.LC2:
  28 0018 70685F74 		.ascii	"ph_target\000"
  28      61726765 
  28      7400
  29 0022 0000     		.align	2
  30              	.LC3:
  31 0024 65635F74 		.ascii	"ec_target\000"
  31      61726765 
  31      7400
  32 002e 0000     		.align	2
  33              	.LC4:
  34 0030 6832305F 		.ascii	"h20_level_target\000"
  34      6C657665 
  34      6C5F7461 
  34      72676574 
  34      00
  35 0041 000000   		.align	2
  36              	.LC5:
  37 0044 6832305F 		.ascii	"h20_level\000"
  37      6C657665 
  37      6C00
  38 004e 0000     		.align	2
  39              	.LC6:
  40 0050 6832305F 		.ascii	"h20_stored\000"
  40      73746F72 
  40      656400
  41 005b 00       		.align	2
ARM GAS  C:\Users\tpbw4321\AppData\Local\Temp\ccJ4G4Qh.s 			page 2


  42              	.LC7:
  43 005c 70685F6D 		.ascii	"ph_measured\000"
  43      65617375 
  43      72656400 
  44              		.align	2
  45              	.LC8:
  46 0068 70685F75 		.ascii	"ph_up_stored\000"
  46      705F7374 
  46      6F726564 
  46      00
  47 0075 000000   		.align	2
  48              	.LC9:
  49 0078 70685F64 		.ascii	"ph_down_stored\000"
  49      6F776E5F 
  49      73746F72 
  49      656400
  50 0087 00       		.align	2
  51              	.LC10:
  52 0088 65635F6D 		.ascii	"ec_measured\000"
  52      65617375 
  52      72656400 
  53              		.align	2
  54              	.LC11:
  55 0094 65635F73 		.ascii	"ec_stored\000"
  55      746F7265 
  55      6400
  56 009e 0000     		.align	2
  57              	.LC12:
  58 00a0 74656D70 		.ascii	"temp_measured\000"
  58      5F6D6561 
  58      73757265 
  58      6400
  59 00ae 0000     		.align	2
  60              	.LC13:
  61 00b0 666C6F77 		.ascii	"flow_measured\000"
  61      5F6D6561 
  61      73757265 
  61      6400
  62              		.data
  63              		.align	2
  64              		.type	pkey_const, %object
  65              		.size	pkey_const, 56
  66              	pkey_const:
  67 0000 00000000 		.word	.LC0
  68 0004 0C000000 		.word	.LC1
  69 0008 18000000 		.word	.LC2
  70 000c 24000000 		.word	.LC3
  71 0010 30000000 		.word	.LC4
  72 0014 44000000 		.word	.LC5
  73 0018 50000000 		.word	.LC6
  74 001c 5C000000 		.word	.LC7
  75 0020 68000000 		.word	.LC8
  76 0024 78000000 		.word	.LC9
  77 0028 88000000 		.word	.LC10
  78 002c 94000000 		.word	.LC11
  79 0030 A0000000 		.word	.LC12
  80 0034 B0000000 		.word	.LC13
ARM GAS  C:\Users\tpbw4321\AppData\Local\Temp\ccJ4G4Qh.s 			page 3


  81              		.section	.rodata
  82 00be 0000     		.align	2
  83              	.LC14:
  84 00c0 3A00     		.ascii	":\000"
  85              		.global	__aeabi_d2f
  86              		.section	.text.Protocol_DecodeInput,"ax",%progbits
  87              		.align	2
  88              		.global	Protocol_DecodeInput
  89              		.thumb
  90              		.thumb_func
  91              		.type	Protocol_DecodeInput, %function
  92              	Protocol_DecodeInput:
  93              	.LFB64:
  94              		.file 1 "src\\Protocol.c"
   1:src/Protocol.c **** /* ========================================
   2:src/Protocol.c ****  *
   3:src/Protocol.c ****  * Copyright YOUR COMPANY, THE YEAR
   4:src/Protocol.c ****  * All Rights Reserved
   5:src/Protocol.c ****  * UNPUBLISHED, LICENSED SOFTWARE.
   6:src/Protocol.c ****  *
   7:src/Protocol.c ****  * CONFIDENTIAL AND PROPRIETARY INFORMATION
   8:src/Protocol.c ****  * WHICH IS THE PROPERTY OF your company.
   9:src/Protocol.c ****  *
  10:src/Protocol.c ****  * ========================================
  11:src/Protocol.c **** */
  12:src/Protocol.c **** 
  13:src/Protocol.c **** #include <stdio.h>
  14:src/Protocol.c **** #include <stdlib.h>
  15:src/Protocol.c **** #include "Protocol.h"
  16:src/Protocol.c **** #include "project.h"
  17:src/Protocol.c **** 
  18:src/Protocol.c **** /**
  19:src/Protocol.c ****  * @function Protocol_DecodeInput(char * input)
  20:src/Protocol.c ****  * @param None
  21:src/Protocol.c ****  * @return decoded input stored in a message_t structure
  22:src/Protocol.c ****  * @brief Takes an incoming data transmission and decodes it
  23:src/Protocol.c ****  * @author Barron Wong 02/08/19
  24:src/Protocol.c **** */
  25:src/Protocol.c **** message_t Protocol_DecodeInput(char * input){
  95              		.loc 1 25 0
  96              		.cfi_startproc
  97              		@ args = 0, pretend = 0, frame = 24
  98              		@ frame_needed = 1, uses_anonymous_args = 0
  99 0000 90B5     		push	{r4, r7, lr}
 100              		.cfi_def_cfa_offset 12
 101              		.cfi_offset 4, -12
 102              		.cfi_offset 7, -8
 103              		.cfi_offset 14, -4
 104 0002 87B0     		sub	sp, sp, #28
 105              		.cfi_def_cfa_offset 40
 106 0004 00AF     		add	r7, sp, #0
 107              		.cfi_def_cfa_register 7
 108 0006 7860     		str	r0, [r7, #4]
 109 0008 3960     		str	r1, [r7]
  26:src/Protocol.c ****     char * ptr;
  27:src/Protocol.c ****     message_t target;
  28:src/Protocol.c ****     uint8_t count = 0;
ARM GAS  C:\Users\tpbw4321\AppData\Local\Temp\ccJ4G4Qh.s 			page 4


 110              		.loc 1 28 0
 111 000a 0023     		movs	r3, #0
 112 000c FB74     		strb	r3, [r7, #19]
  29:src/Protocol.c ****     
  30:src/Protocol.c ****     target.key = invalid_key;
 113              		.loc 1 30 0
 114 000e 0023     		movs	r3, #0
 115 0010 3B72     		strb	r3, [r7, #8]
  31:src/Protocol.c ****     target.key = 0;
 116              		.loc 1 31 0
 117 0012 0023     		movs	r3, #0
 118 0014 3B72     		strb	r3, [r7, #8]
  32:src/Protocol.c ****     
  33:src/Protocol.c ****     ptr = strtok(input,":");
 119              		.loc 1 33 0
 120 0016 1D49     		ldr	r1, .L10
 121 0018 3868     		ldr	r0, [r7]
 122 001a FFF7FEFF 		bl	strtok
 123 001e 7861     		str	r0, [r7, #20]
  34:src/Protocol.c ****     
  35:src/Protocol.c ****     while(ptr != NULL){
 124              		.loc 1 35 0
 125 0020 24E0     		b	.L2
 126              	.L7:
  36:src/Protocol.c ****         switch(count){
 127              		.loc 1 36 0
 128 0022 FB7C     		ldrb	r3, [r7, #19]	@ zero_extendqisi2
 129 0024 002B     		cmp	r3, #0
 130 0026 02D0     		beq	.L4
 131 0028 012B     		cmp	r3, #1
 132 002a 07D0     		beq	.L5
 133 002c 12E0     		b	.L9
 134              	.L4:
  37:src/Protocol.c ****             case 0:{
  38:src/Protocol.c ****                 target.key = atoi(ptr);
 135              		.loc 1 38 0
 136 002e 7869     		ldr	r0, [r7, #20]
 137 0030 FFF7FEFF 		bl	atoi
 138 0034 0346     		mov	r3, r0
 139 0036 DBB2     		uxtb	r3, r3
 140 0038 3B72     		strb	r3, [r7, #8]
  39:src/Protocol.c ****             break;
 141              		.loc 1 39 0
 142 003a 0FE0     		b	.L6
 143              	.L5:
  40:src/Protocol.c ****             }
  41:src/Protocol.c ****             case 1:{
  42:src/Protocol.c ****                 target.value = atof(ptr);
 144              		.loc 1 42 0
 145 003c 7869     		ldr	r0, [r7, #20]
 146 003e FFF7FEFF 		bl	atof
 147 0042 0346     		mov	r3, r0
 148 0044 0C46     		mov	r4, r1
 149 0046 1846     		mov	r0, r3
 150 0048 2146     		mov	r1, r4
 151 004a FFF7FEFF 		bl	__aeabi_d2f
 152 004e 0346     		mov	r3, r0
ARM GAS  C:\Users\tpbw4321\AppData\Local\Temp\ccJ4G4Qh.s 			page 5


 153 0050 FB60     		str	r3, [r7, #12]	@ float
  43:src/Protocol.c ****             break;
 154              		.loc 1 43 0
 155 0052 03E0     		b	.L6
 156              	.L9:
  44:src/Protocol.c ****             }
  45:src/Protocol.c ****             default:{
  46:src/Protocol.c ****                 target.key = invalid_key;
 157              		.loc 1 46 0
 158 0054 0023     		movs	r3, #0
 159 0056 3B72     		strb	r3, [r7, #8]
  47:src/Protocol.c ****                 target.value = -1;
 160              		.loc 1 47 0
 161 0058 0D4B     		ldr	r3, .L10+4
 162 005a FB60     		str	r3, [r7, #12]	@ float
 163              	.L6:
  48:src/Protocol.c ****             }
  49:src/Protocol.c ****         }
  50:src/Protocol.c ****         count++;
 164              		.loc 1 50 0
 165 005c FB7C     		ldrb	r3, [r7, #19]	@ zero_extendqisi2
 166 005e 0133     		adds	r3, r3, #1
 167 0060 FB74     		strb	r3, [r7, #19]
  51:src/Protocol.c ****         ptr = strtok(NULL,":");
 168              		.loc 1 51 0
 169 0062 0A49     		ldr	r1, .L10
 170 0064 0020     		movs	r0, #0
 171 0066 FFF7FEFF 		bl	strtok
 172 006a 7861     		str	r0, [r7, #20]
 173              	.L2:
  35:src/Protocol.c ****         switch(count){
 174              		.loc 1 35 0
 175 006c 7B69     		ldr	r3, [r7, #20]
 176 006e 002B     		cmp	r3, #0
 177 0070 D7D1     		bne	.L7
  52:src/Protocol.c ****     }
  53:src/Protocol.c ****     
  54:src/Protocol.c ****     return target;
 178              		.loc 1 54 0
 179 0072 7B68     		ldr	r3, [r7, #4]
 180 0074 1A46     		mov	r2, r3
 181 0076 07F10803 		add	r3, r7, #8
 182 007a 93E80300 		ldmia	r3, {r0, r1}
 183 007e 82E80300 		stmia	r2, {r0, r1}
  55:src/Protocol.c ****     
  56:src/Protocol.c **** }
 184              		.loc 1 56 0
 185 0082 7868     		ldr	r0, [r7, #4]
 186 0084 1C37     		adds	r7, r7, #28
 187              		.cfi_def_cfa_offset 12
 188 0086 BD46     		mov	sp, r7
 189              		.cfi_def_cfa_register 13
 190              		@ sp needed
 191 0088 90BD     		pop	{r4, r7, pc}
 192              	.L11:
 193 008a 00BF     		.align	2
 194              	.L10:
ARM GAS  C:\Users\tpbw4321\AppData\Local\Temp\ccJ4G4Qh.s 			page 6


 195 008c C0000000 		.word	.LC14
 196 0090 000080BF 		.word	-1082130432
 197              		.cfi_endproc
 198              	.LFE64:
 199              		.size	Protocol_DecodeInput, .-Protocol_DecodeInput
 200              		.global	__aeabi_f2d
 201              		.section	.rodata
 202 00c2 0000     		.align	2
 203              	.LC15:
 204 00c4 25643A25 		.ascii	"%d:%0.3f\000"
 204      302E3366 
 204      00
 205              		.section	.text.Protocol_EncodeOutput,"ax",%progbits
 206              		.align	2
 207              		.global	Protocol_EncodeOutput
 208              		.thumb
 209              		.thumb_func
 210              		.type	Protocol_EncodeOutput, %function
 211              	Protocol_EncodeOutput:
 212              	.LFB65:
  57:src/Protocol.c **** /**
  58:src/Protocol.c ****  * @function Protocol_EncodeOutput(char * input)
  59:src/Protocol.c ****  * @param key, value, and buffer
  60:src/Protocol.c ****  * @return String pointer ready for output
  61:src/Protocol.c ****  * @brief Takes a key and a value and get it read for output
  62:src/Protocol.c ****  * @author Barron Wong 02/08/19
  63:src/Protocol.c **** */
  64:src/Protocol.c **** char * Protocol_EncodeOutput(pkey_t key, float value, char * buffer){
 213              		.loc 1 64 0
 214              		.cfi_startproc
 215              		@ args = 0, pretend = 0, frame = 24
 216              		@ frame_needed = 1, uses_anonymous_args = 0
 217 0000 B0B5     		push	{r4, r5, r7, lr}
 218              		.cfi_def_cfa_offset 16
 219              		.cfi_offset 4, -16
 220              		.cfi_offset 5, -12
 221              		.cfi_offset 7, -8
 222              		.cfi_offset 14, -4
 223 0002 88B0     		sub	sp, sp, #32
 224              		.cfi_def_cfa_offset 48
 225 0004 02AF     		add	r7, sp, #8
 226              		.cfi_def_cfa 7, 40
 227 0006 0346     		mov	r3, r0
 228 0008 B960     		str	r1, [r7, #8]	@ float
 229 000a 7A60     		str	r2, [r7, #4]
 230 000c FB73     		strb	r3, [r7, #15]
  65:src/Protocol.c ****     int size = strlen(buffer);
 231              		.loc 1 65 0
 232 000e 7868     		ldr	r0, [r7, #4]
 233 0010 FFF7FEFF 		bl	strlen
 234 0014 0346     		mov	r3, r0
 235 0016 3B61     		str	r3, [r7, #16]
 236              	.LBB2:
  66:src/Protocol.c ****  
  67:src/Protocol.c ****     //clear buffer
  68:src/Protocol.c ****     for(int i = 0; i < size; i++){
 237              		.loc 1 68 0
ARM GAS  C:\Users\tpbw4321\AppData\Local\Temp\ccJ4G4Qh.s 			page 7


 238 0018 0023     		movs	r3, #0
 239 001a 7B61     		str	r3, [r7, #20]
 240 001c 05E0     		b	.L13
 241              	.L14:
  69:src/Protocol.c ****         buffer[0] = 0;
 242              		.loc 1 69 0 discriminator 3
 243 001e 7B68     		ldr	r3, [r7, #4]
 244 0020 0022     		movs	r2, #0
 245 0022 1A70     		strb	r2, [r3]
  68:src/Protocol.c ****         buffer[0] = 0;
 246              		.loc 1 68 0 discriminator 3
 247 0024 7B69     		ldr	r3, [r7, #20]
 248 0026 0133     		adds	r3, r3, #1
 249 0028 7B61     		str	r3, [r7, #20]
 250              	.L13:
  68:src/Protocol.c ****         buffer[0] = 0;
 251              		.loc 1 68 0 is_stmt 0 discriminator 1
 252 002a 7A69     		ldr	r2, [r7, #20]
 253 002c 3B69     		ldr	r3, [r7, #16]
 254 002e 9A42     		cmp	r2, r3
 255 0030 F5DB     		blt	.L14
 256              	.LBE2:
  70:src/Protocol.c ****     }
  71:src/Protocol.c ****     if(key > invalid_key && key <= flow_measured){
 257              		.loc 1 71 0 is_stmt 1
 258 0032 FB7B     		ldrb	r3, [r7, #15]	@ zero_extendqisi2
 259 0034 002B     		cmp	r3, #0
 260 0036 0FD0     		beq	.L15
 261              		.loc 1 71 0 is_stmt 0 discriminator 1
 262 0038 FB7B     		ldrb	r3, [r7, #15]	@ zero_extendqisi2
 263 003a 0D2B     		cmp	r3, #13
 264 003c 0CD8     		bhi	.L15
  72:src/Protocol.c ****         sprintf(buffer,"%d:%0.3f",(int)key,value);
 265              		.loc 1 72 0 is_stmt 1
 266 003e FD7B     		ldrb	r5, [r7, #15]	@ zero_extendqisi2
 267 0040 B868     		ldr	r0, [r7, #8]	@ float
 268 0042 FFF7FEFF 		bl	__aeabi_f2d
 269 0046 0346     		mov	r3, r0
 270 0048 0C46     		mov	r4, r1
 271 004a CDE90034 		strd	r3, [sp]
 272 004e 2A46     		mov	r2, r5
 273 0050 0449     		ldr	r1, .L17
 274 0052 7868     		ldr	r0, [r7, #4]
 275 0054 FFF7FEFF 		bl	sprintf
 276              	.L15:
  73:src/Protocol.c ****     }
  74:src/Protocol.c ****     
  75:src/Protocol.c ****     return buffer;
 277              		.loc 1 75 0
 278 0058 7B68     		ldr	r3, [r7, #4]
  76:src/Protocol.c **** }
 279              		.loc 1 76 0
 280 005a 1846     		mov	r0, r3
 281 005c 1837     		adds	r7, r7, #24
 282              		.cfi_def_cfa_offset 16
 283 005e BD46     		mov	sp, r7
 284              		.cfi_def_cfa_register 13
ARM GAS  C:\Users\tpbw4321\AppData\Local\Temp\ccJ4G4Qh.s 			page 8


 285              		@ sp needed
 286 0060 B0BD     		pop	{r4, r5, r7, pc}
 287              	.L18:
 288 0062 00BF     		.align	2
 289              	.L17:
 290 0064 C4000000 		.word	.LC15
 291              		.cfi_endproc
 292              	.LFE65:
 293              		.size	Protocol_EncodeOutput, .-Protocol_EncodeOutput
 294              		.section	.rodata
 295 00cd 000000   		.align	2
 296              	.LC16:
 297 00d0 25733A25 		.ascii	"%s:%f\015\012\000"
 297      660D0A00 
 298              		.section	.text.Protocol_PrintMessage,"ax",%progbits
 299              		.align	2
 300              		.global	Protocol_PrintMessage
 301              		.thumb
 302              		.thumb_func
 303              		.type	Protocol_PrintMessage, %function
 304              	Protocol_PrintMessage:
 305              	.LFB66:
  77:src/Protocol.c **** /**
  78:src/Protocol.c ****  * @function Protocol_PrintMessage(char * input)
  79:src/Protocol.c ****  * @param target_t
  80:src/Protocol.c ****  * @return none
  81:src/Protocol.c ****  * @brief Prints a message and its value
  82:src/Protocol.c ****  * @author Barron Wong 02/08/19
  83:src/Protocol.c ****  */
  84:src/Protocol.c **** void Protocol_PrintMessage(message_t message){
 306              		.loc 1 84 0
 307              		.cfi_startproc
 308              		@ args = 0, pretend = 0, frame = 8
 309              		@ frame_needed = 1, uses_anonymous_args = 0
 310 0000 90B5     		push	{r4, r7, lr}
 311              		.cfi_def_cfa_offset 12
 312              		.cfi_offset 4, -12
 313              		.cfi_offset 7, -8
 314              		.cfi_offset 14, -4
 315 0002 83B0     		sub	sp, sp, #12
 316              		.cfi_def_cfa_offset 24
 317 0004 00AF     		add	r7, sp, #0
 318              		.cfi_def_cfa_register 7
 319 0006 3B46     		mov	r3, r7
 320 0008 83E80300 		stmia	r3, {r0, r1}
  85:src/Protocol.c ****     if(message.key <= flow_measured)
 321              		.loc 1 85 0
 322 000c 3B78     		ldrb	r3, [r7]	@ zero_extendqisi2
 323 000e 0D2B     		cmp	r3, #13
 324 0010 0ED8     		bhi	.L21
  86:src/Protocol.c ****         printf("%s:%f\r\n", pkey_const[message.key], message.value);
 325              		.loc 1 86 0
 326 0012 3B78     		ldrb	r3, [r7]	@ zero_extendqisi2
 327 0014 1A46     		mov	r2, r3
 328 0016 084B     		ldr	r3, .L22
 329 0018 53F82240 		ldr	r4, [r3, r2, lsl #2]
 330 001c 7B68     		ldr	r3, [r7, #4]	@ float
ARM GAS  C:\Users\tpbw4321\AppData\Local\Temp\ccJ4G4Qh.s 			page 9


 331 001e 1846     		mov	r0, r3
 332 0020 FFF7FEFF 		bl	__aeabi_f2d
 333 0024 0246     		mov	r2, r0
 334 0026 0B46     		mov	r3, r1
 335 0028 2146     		mov	r1, r4
 336 002a 0448     		ldr	r0, .L22+4
 337 002c FFF7FEFF 		bl	printf
 338              	.L21:
  87:src/Protocol.c **** }
 339              		.loc 1 87 0
 340 0030 00BF     		nop
 341 0032 0C37     		adds	r7, r7, #12
 342              		.cfi_def_cfa_offset 12
 343 0034 BD46     		mov	sp, r7
 344              		.cfi_def_cfa_register 13
 345              		@ sp needed
 346 0036 90BD     		pop	{r4, r7, pc}
 347              	.L23:
 348              		.align	2
 349              	.L22:
 350 0038 00000000 		.word	pkey_const
 351 003c D0000000 		.word	.LC16
 352              		.cfi_endproc
 353              	.LFE66:
 354              		.size	Protocol_PrintMessage, .-Protocol_PrintMessage
 355              		.text
 356              	.Letext0:
 357              		.file 2 "c:\\program files (x86)\\cypress\\psoc creator\\4.2\\psoc creator\\import\\gnu\\arm\\5.4.
 358              		.file 3 "c:\\program files (x86)\\cypress\\psoc creator\\4.2\\psoc creator\\import\\gnu\\arm\\5.4.
 359              		.file 4 ".\\include/Protocol.h"
 360              		.file 5 "Generated_Source\\PSoC5/core_cm3.h"