ARM GAS  C:\Users\tpbw4321\AppData\Local\Temp\cczUgNqJ.s 			page 1


   1              		.syntax unified
   2              		.cpu cortex-m3
   3              		.fpu softvfp
   4              		.eabi_attribute 20, 1
   5              		.eabi_attribute 21, 1
   6              		.eabi_attribute 23, 3
   7              		.eabi_attribute 24, 1
   8              		.eabi_attribute 25, 1
   9              		.eabi_attribute 26, 1
  10              		.eabi_attribute 30, 6
  11              		.eabi_attribute 34, 1
  12              		.eabi_attribute 18, 4
  13              		.thumb
  14              		.syntax unified
  15              		.file	"sensor_data.c"
  16              		.text
  17              	.Ltext0:
  18              		.cfi_sections	.debug_frame
  19              		.section	.rodata
  20              		.align	2
  21              	.LC0:
  22 0000 696E7661 		.ascii	"invalid_key\000"
  22      6C69645F 
  22      6B657900 
  23              		.align	2
  24              	.LC1:
  25 000c 666C6F77 		.ascii	"flow_target\000"
  25      5F746172 
  25      67657400 
  26              		.align	2
  27              	.LC2:
  28 0018 70685F74 		.ascii	"ph_target\000"
  28      61726765 
  28      7400
  29 0022 0000     		.align	2
  30              	.LC3:
  31 0024 65635F74 		.ascii	"ec_target\000"
  31      61726765 
  31      7400
  32 002e 0000     		.align	2
  33              	.LC4:
  34 0030 6832305F 		.ascii	"h20_level_target\000"
  34      6C657665 
  34      6C5F7461 
  34      72676574 
  34      00
  35 0041 000000   		.align	2
  36              	.LC5:
  37 0044 6832305F 		.ascii	"h20_level\000"
  37      6C657665 
  37      6C00
  38 004e 0000     		.align	2
  39              	.LC6:
  40 0050 6832305F 		.ascii	"h20_stored\000"
  40      73746F72 
  40      656400
  41 005b 00       		.align	2
ARM GAS  C:\Users\tpbw4321\AppData\Local\Temp\cczUgNqJ.s 			page 2


  42              	.LC7:
  43 005c 70685F6D 		.ascii	"ph_measured\000"
  43      65617375 
  43      72656400 
  44              		.align	2
  45              	.LC8:
  46 0068 70685F75 		.ascii	"ph_up_stored\000"
  46      705F7374 
  46      6F726564 
  46      00
  47 0075 000000   		.align	2
  48              	.LC9:
  49 0078 70685F64 		.ascii	"ph_down_stored\000"
  49      6F776E5F 
  49      73746F72 
  49      656400
  50 0087 00       		.align	2
  51              	.LC10:
  52 0088 65635F6D 		.ascii	"ec_measured\000"
  52      65617375 
  52      72656400 
  53              		.align	2
  54              	.LC11:
  55 0094 65635F73 		.ascii	"ec_stored\000"
  55      746F7265 
  55      6400
  56 009e 0000     		.align	2
  57              	.LC12:
  58 00a0 74656D70 		.ascii	"temp_measured\000"
  58      5F6D6561 
  58      73757265 
  58      6400
  59 00ae 0000     		.align	2
  60              	.LC13:
  61 00b0 666C6F77 		.ascii	"flow_measured\000"
  61      5F6D6561 
  61      73757265 
  61      6400
  62              		.data
  63              		.align	2
  64              		.type	pkey_const, %object
  65              		.size	pkey_const, 56
  66              	pkey_const:
  67 0000 00000000 		.word	.LC0
  68 0004 0C000000 		.word	.LC1
  69 0008 18000000 		.word	.LC2
  70 000c 24000000 		.word	.LC3
  71 0010 30000000 		.word	.LC4
  72 0014 44000000 		.word	.LC5
  73 0018 50000000 		.word	.LC6
  74 001c 5C000000 		.word	.LC7
  75 0020 68000000 		.word	.LC8
  76 0024 78000000 		.word	.LC9
  77 0028 88000000 		.word	.LC10
  78 002c 94000000 		.word	.LC11
  79 0030 A0000000 		.word	.LC12
  80 0034 B0000000 		.word	.LC13
ARM GAS  C:\Users\tpbw4321\AppData\Local\Temp\cczUgNqJ.s 			page 3


  81              		.global	__aeabi_f2d
  82              		.section	.text.updateSensors,"ax",%progbits
  83              		.align	2
  84              		.global	updateSensors
  85              		.thumb
  86              		.thumb_func
  87              		.type	updateSensors, %function
  88              	updateSensors:
  89              	.LFB1:
  90              		.file 1 "src\\sensor_data.c"
   1:src/sensor_data.c **** //This file generates random sensor data and stores it into a sensor data structure.
   2:src/sensor_data.c **** 
   3:src/sensor_data.c **** #include "sensor_data.h"
   4:src/sensor_data.c **** #include <time.h> // for random
   5:src/sensor_data.c **** #include <stdio.h>
   6:src/sensor_data.c **** #include <stdlib.h>
   7:src/sensor_data.c **** #include <math.h>
   8:src/sensor_data.c **** #include <string.h>
   9:src/sensor_data.c **** //struct SensorData {
  10:src/sensor_data.c **** //	double h2o_level;
  11:src/sensor_data.c **** //	double h2o_stored;
  12:src/sensor_data.c **** //	double ph_level;
  13:src/sensor_data.c **** //	double ph_up_stored;
  14:src/sensor_data.c **** //	double ph_down_stored;
  15:src/sensor_data.c **** //	double ec_level;
  16:src/sensor_data.c **** //	double ec_stored;
  17:src/sensor_data.c **** //	double temp_measured;
  18:src/sensor_data.c **** //	double flow_measured;
  19:src/sensor_data.c **** //	double flow_target;
  20:src/sensor_data.c **** //	double ph_target;
  21:src/sensor_data.c **** //	double ec_target;
  22:src/sensor_data.c **** //	double h2o_target;
  23:src/sensor_data.c **** //	double temp_target;
  24:src/sensor_data.c **** //	char ProductID[256];
  25:src/sensor_data.c **** //};
  26:src/sensor_data.c **** /**
  27:src/sensor_data.c ****  * @function sensor_data_Init(char * input)
  28:src/sensor_data.c ****  * @param pointer to a SensorData Structure
  29:src/sensor_data.c ****  * @return None
  30:src/sensor_data.c ****  * @brief Initializes sensor data structure.
  31:src/sensor_data.c ****  * @author Barron Wong 02/08/19
  32:src/sensor_data.c **** */
  33:src/sensor_data.c **** int updateSensors(message_t * msg, struct SensorData * sd) {
  91              		.loc 1 33 0
  92              		.cfi_startproc
  93              		@ args = 0, pretend = 0, frame = 16
  94              		@ frame_needed = 1, uses_anonymous_args = 0
  95 0000 90B5     		push	{r4, r7, lr}
  96              		.cfi_def_cfa_offset 12
  97              		.cfi_offset 4, -12
  98              		.cfi_offset 7, -8
  99              		.cfi_offset 14, -4
 100 0002 85B0     		sub	sp, sp, #20
 101              		.cfi_def_cfa_offset 32
 102 0004 00AF     		add	r7, sp, #0
 103              		.cfi_def_cfa_register 7
 104 0006 7860     		str	r0, [r7, #4]
ARM GAS  C:\Users\tpbw4321\AppData\Local\Temp\cczUgNqJ.s 			page 4


 105 0008 3960     		str	r1, [r7]
  34:src/sensor_data.c **** 	int return_val = 0;
 106              		.loc 1 34 0
 107 000a 0023     		movs	r3, #0
 108 000c FB60     		str	r3, [r7, #12]
  35:src/sensor_data.c **** 	switch (msg->key) {
 109              		.loc 1 35 0
 110 000e 7B68     		ldr	r3, [r7, #4]
 111 0010 1B78     		ldrb	r3, [r3]	@ zero_extendqisi2
 112 0012 053B     		subs	r3, r3, #5
 113 0014 082B     		cmp	r3, #8
 114 0016 78D8     		bhi	.L2
 115 0018 01A2     		adr	r2, .L4
 116 001a 52F823F0 		ldr	pc, [r2, r3, lsl #2]
 117 001e 00BF     		.p2align 2
 118              	.L4:
 119 0020 45000000 		.word	.L3+1
 120 0024 5B000000 		.word	.L5+1
 121 0028 71000000 		.word	.L6+1
 122 002c 87000000 		.word	.L7+1
 123 0030 9D000000 		.word	.L8+1
 124 0034 B3000000 		.word	.L9+1
 125 0038 C9000000 		.word	.L10+1
 126 003c DF000000 		.word	.L11+1
 127 0040 F5000000 		.word	.L12+1
 128              		.p2align 1
 129              	.L3:
  36:src/sensor_data.c **** 	case h20_level:
  37:src/sensor_data.c **** 		sd->h2o_level = msg->value;
 130              		.loc 1 37 0
 131 0044 7B68     		ldr	r3, [r7, #4]
 132 0046 5B68     		ldr	r3, [r3, #4]	@ float
 133 0048 1846     		mov	r0, r3
 134 004a FFF7FEFF 		bl	__aeabi_f2d
 135 004e 0346     		mov	r3, r0
 136 0050 0C46     		mov	r4, r1
 137 0052 3A68     		ldr	r2, [r7]
 138 0054 C2E90034 		strd	r3, [r2]
  38:src/sensor_data.c **** 		break;
 139              		.loc 1 38 0
 140 0058 5AE0     		b	.L13
 141              	.L5:
  39:src/sensor_data.c **** 	case h20_stored:
  40:src/sensor_data.c **** 		sd->h2o_stored = msg->value;
 142              		.loc 1 40 0
 143 005a 7B68     		ldr	r3, [r7, #4]
 144 005c 5B68     		ldr	r3, [r3, #4]	@ float
 145 005e 1846     		mov	r0, r3
 146 0060 FFF7FEFF 		bl	__aeabi_f2d
 147 0064 0346     		mov	r3, r0
 148 0066 0C46     		mov	r4, r1
 149 0068 3A68     		ldr	r2, [r7]
 150 006a C2E90234 		strd	r3, [r2, #8]
  41:src/sensor_data.c **** 		break;
 151              		.loc 1 41 0
 152 006e 4FE0     		b	.L13
 153              	.L6:
ARM GAS  C:\Users\tpbw4321\AppData\Local\Temp\cczUgNqJ.s 			page 5


  42:src/sensor_data.c **** 	case ph_measured:
  43:src/sensor_data.c **** 		sd->ph_level = msg->value;
 154              		.loc 1 43 0
 155 0070 7B68     		ldr	r3, [r7, #4]
 156 0072 5B68     		ldr	r3, [r3, #4]	@ float
 157 0074 1846     		mov	r0, r3
 158 0076 FFF7FEFF 		bl	__aeabi_f2d
 159 007a 0346     		mov	r3, r0
 160 007c 0C46     		mov	r4, r1
 161 007e 3A68     		ldr	r2, [r7]
 162 0080 C2E90434 		strd	r3, [r2, #16]
  44:src/sensor_data.c **** 		break;
 163              		.loc 1 44 0
 164 0084 44E0     		b	.L13
 165              	.L7:
  45:src/sensor_data.c **** 	case ph_up_stored:
  46:src/sensor_data.c **** 		sd->ph_up_stored = msg->value;
 166              		.loc 1 46 0
 167 0086 7B68     		ldr	r3, [r7, #4]
 168 0088 5B68     		ldr	r3, [r3, #4]	@ float
 169 008a 1846     		mov	r0, r3
 170 008c FFF7FEFF 		bl	__aeabi_f2d
 171 0090 0346     		mov	r3, r0
 172 0092 0C46     		mov	r4, r1
 173 0094 3A68     		ldr	r2, [r7]
 174 0096 C2E90634 		strd	r3, [r2, #24]
  47:src/sensor_data.c **** 		break;
 175              		.loc 1 47 0
 176 009a 39E0     		b	.L13
 177              	.L8:
  48:src/sensor_data.c **** 	case ph_down_stored:
  49:src/sensor_data.c **** 		sd->ph_down_stored = msg->value;
 178              		.loc 1 49 0
 179 009c 7B68     		ldr	r3, [r7, #4]
 180 009e 5B68     		ldr	r3, [r3, #4]	@ float
 181 00a0 1846     		mov	r0, r3
 182 00a2 FFF7FEFF 		bl	__aeabi_f2d
 183 00a6 0346     		mov	r3, r0
 184 00a8 0C46     		mov	r4, r1
 185 00aa 3A68     		ldr	r2, [r7]
 186 00ac C2E90834 		strd	r3, [r2, #32]
  50:src/sensor_data.c **** 		break;
 187              		.loc 1 50 0
 188 00b0 2EE0     		b	.L13
 189              	.L9:
  51:src/sensor_data.c **** 	case ec_measured:
  52:src/sensor_data.c **** 		sd->ec_level = msg->value;
 190              		.loc 1 52 0
 191 00b2 7B68     		ldr	r3, [r7, #4]
 192 00b4 5B68     		ldr	r3, [r3, #4]	@ float
 193 00b6 1846     		mov	r0, r3
 194 00b8 FFF7FEFF 		bl	__aeabi_f2d
 195 00bc 0346     		mov	r3, r0
 196 00be 0C46     		mov	r4, r1
 197 00c0 3A68     		ldr	r2, [r7]
 198 00c2 C2E90A34 		strd	r3, [r2, #40]
  53:src/sensor_data.c **** 		break;
ARM GAS  C:\Users\tpbw4321\AppData\Local\Temp\cczUgNqJ.s 			page 6


 199              		.loc 1 53 0
 200 00c6 23E0     		b	.L13
 201              	.L10:
  54:src/sensor_data.c **** 	case ec_stored:
  55:src/sensor_data.c **** 		sd->ec_stored = msg->value;
 202              		.loc 1 55 0
 203 00c8 7B68     		ldr	r3, [r7, #4]
 204 00ca 5B68     		ldr	r3, [r3, #4]	@ float
 205 00cc 1846     		mov	r0, r3
 206 00ce FFF7FEFF 		bl	__aeabi_f2d
 207 00d2 0346     		mov	r3, r0
 208 00d4 0C46     		mov	r4, r1
 209 00d6 3A68     		ldr	r2, [r7]
 210 00d8 C2E90C34 		strd	r3, [r2, #48]
  56:src/sensor_data.c **** 		break;
 211              		.loc 1 56 0
 212 00dc 18E0     		b	.L13
 213              	.L11:
  57:src/sensor_data.c **** 	case temp_measured:
  58:src/sensor_data.c **** 		sd->temp_measured = msg->value;
 214              		.loc 1 58 0
 215 00de 7B68     		ldr	r3, [r7, #4]
 216 00e0 5B68     		ldr	r3, [r3, #4]	@ float
 217 00e2 1846     		mov	r0, r3
 218 00e4 FFF7FEFF 		bl	__aeabi_f2d
 219 00e8 0346     		mov	r3, r0
 220 00ea 0C46     		mov	r4, r1
 221 00ec 3A68     		ldr	r2, [r7]
 222 00ee C2E90E34 		strd	r3, [r2, #56]
  59:src/sensor_data.c **** 		break;
 223              		.loc 1 59 0
 224 00f2 0DE0     		b	.L13
 225              	.L12:
  60:src/sensor_data.c **** 	case flow_measured:
  61:src/sensor_data.c **** 		sd->flow_measured = msg->value;
 226              		.loc 1 61 0
 227 00f4 7B68     		ldr	r3, [r7, #4]
 228 00f6 5B68     		ldr	r3, [r3, #4]	@ float
 229 00f8 1846     		mov	r0, r3
 230 00fa FFF7FEFF 		bl	__aeabi_f2d
 231 00fe 0346     		mov	r3, r0
 232 0100 0C46     		mov	r4, r1
 233 0102 3A68     		ldr	r2, [r7]
 234 0104 C2E91034 		strd	r3, [r2, #64]
  62:src/sensor_data.c **** 		break;
 235              		.loc 1 62 0
 236 0108 02E0     		b	.L13
 237              	.L2:
  63:src/sensor_data.c **** 	default:
  64:src/sensor_data.c **** 		return_val = -1;
 238              		.loc 1 64 0
 239 010a 4FF0FF33 		mov	r3, #-1
 240 010e FB60     		str	r3, [r7, #12]
 241              	.L13:
  65:src/sensor_data.c **** 
  66:src/sensor_data.c **** 	}
  67:src/sensor_data.c **** 	return return_val;
ARM GAS  C:\Users\tpbw4321\AppData\Local\Temp\cczUgNqJ.s 			page 7


 242              		.loc 1 67 0
 243 0110 FB68     		ldr	r3, [r7, #12]
  68:src/sensor_data.c **** }
 244              		.loc 1 68 0
 245 0112 1846     		mov	r0, r3
 246 0114 1437     		adds	r7, r7, #20
 247              		.cfi_def_cfa_offset 12
 248 0116 BD46     		mov	sp, r7
 249              		.cfi_def_cfa_register 13
 250              		@ sp needed
 251 0118 90BD     		pop	{r4, r7, pc}
 252              		.cfi_endproc
 253              	.LFE1:
 254              		.size	updateSensors, .-updateSensors
 255 011a 00BF     		.section	.rodata
 256 00be 0000     		.align	2
 257              	.LC14:
 258 00c0 41424344 		.ascii	"ABCD1234EFGH5678\000"
 258      31323334 
 258      45464748 
 258      35363738 
 258      00
 259              		.section	.text.sensor_data_init,"ax",%progbits
 260              		.align	2
 261              		.global	sensor_data_init
 262              		.thumb
 263              		.thumb_func
 264              		.type	sensor_data_init, %function
 265              	sensor_data_init:
 266              	.LFB2:
  69:src/sensor_data.c **** /**
  70:src/sensor_data.c ****  * @function sensor_data_Init(char * input)
  71:src/sensor_data.c ****  * @param pointer to a SensorData Structure
  72:src/sensor_data.c ****  * @return None
  73:src/sensor_data.c ****  * @brief Initializes sensor data structure.
  74:src/sensor_data.c ****  * @author Barron Wong 02/08/19
  75:src/sensor_data.c **** */
  76:src/sensor_data.c **** void sensor_data_init(struct SensorData *sd) {
 267              		.loc 1 76 0
 268              		.cfi_startproc
 269              		@ args = 0, pretend = 0, frame = 8
 270              		@ frame_needed = 1, uses_anonymous_args = 0
 271              		@ link register save eliminated.
 272 0000 B0B4     		push	{r4, r5, r7}
 273              		.cfi_def_cfa_offset 12
 274              		.cfi_offset 4, -12
 275              		.cfi_offset 5, -8
 276              		.cfi_offset 7, -4
 277 0002 83B0     		sub	sp, sp, #12
 278              		.cfi_def_cfa_offset 24
 279 0004 00AF     		add	r7, sp, #0
 280              		.cfi_def_cfa_register 7
 281 0006 7860     		str	r0, [r7, #4]
  77:src/sensor_data.c **** 	sd->h2o_level = 0;
 282              		.loc 1 77 0
 283 0008 7A68     		ldr	r2, [r7, #4]
 284 000a 4FF00003 		mov	r3, #0
ARM GAS  C:\Users\tpbw4321\AppData\Local\Temp\cczUgNqJ.s 			page 8


 285 000e 4FF00004 		mov	r4, #0
 286 0012 C2E90034 		strd	r3, [r2]
  78:src/sensor_data.c **** 	sd->h2o_stored = 0;
 287              		.loc 1 78 0
 288 0016 7A68     		ldr	r2, [r7, #4]
 289 0018 4FF00003 		mov	r3, #0
 290 001c 4FF00004 		mov	r4, #0
 291 0020 C2E90234 		strd	r3, [r2, #8]
  79:src/sensor_data.c **** 	sd->ph_level = 0;
 292              		.loc 1 79 0
 293 0024 7A68     		ldr	r2, [r7, #4]
 294 0026 4FF00003 		mov	r3, #0
 295 002a 4FF00004 		mov	r4, #0
 296 002e C2E90434 		strd	r3, [r2, #16]
  80:src/sensor_data.c **** 	sd->ph_up_stored = 0;
 297              		.loc 1 80 0
 298 0032 7A68     		ldr	r2, [r7, #4]
 299 0034 4FF00003 		mov	r3, #0
 300 0038 4FF00004 		mov	r4, #0
 301 003c C2E90634 		strd	r3, [r2, #24]
  81:src/sensor_data.c **** 	sd->ph_down_stored = 0;
 302              		.loc 1 81 0
 303 0040 7A68     		ldr	r2, [r7, #4]
 304 0042 4FF00003 		mov	r3, #0
 305 0046 4FF00004 		mov	r4, #0
 306 004a C2E90834 		strd	r3, [r2, #32]
  82:src/sensor_data.c **** 	sd->ec_level = 0;
 307              		.loc 1 82 0
 308 004e 7A68     		ldr	r2, [r7, #4]
 309 0050 4FF00003 		mov	r3, #0
 310 0054 4FF00004 		mov	r4, #0
 311 0058 C2E90A34 		strd	r3, [r2, #40]
  83:src/sensor_data.c **** 	sd->ec_stored = 0;
 312              		.loc 1 83 0
 313 005c 7A68     		ldr	r2, [r7, #4]
 314 005e 4FF00003 		mov	r3, #0
 315 0062 4FF00004 		mov	r4, #0
 316 0066 C2E90C34 		strd	r3, [r2, #48]
  84:src/sensor_data.c **** 	sd->temp_measured = 0;
 317              		.loc 1 84 0
 318 006a 7A68     		ldr	r2, [r7, #4]
 319 006c 4FF00003 		mov	r3, #0
 320 0070 4FF00004 		mov	r4, #0
 321 0074 C2E90E34 		strd	r3, [r2, #56]
  85:src/sensor_data.c **** 	sd->flow_measured = 0;
 322              		.loc 1 85 0
 323 0078 7A68     		ldr	r2, [r7, #4]
 324 007a 4FF00003 		mov	r3, #0
 325 007e 4FF00004 		mov	r4, #0
 326 0082 C2E91034 		strd	r3, [r2, #64]
  86:src/sensor_data.c **** 	sd->flow_target = 0;
 327              		.loc 1 86 0
 328 0086 7A68     		ldr	r2, [r7, #4]
 329 0088 4FF00003 		mov	r3, #0
 330 008c 4FF00004 		mov	r4, #0
 331 0090 C2E91234 		strd	r3, [r2, #72]
  87:src/sensor_data.c **** 	sd->ph_target = 0;
ARM GAS  C:\Users\tpbw4321\AppData\Local\Temp\cczUgNqJ.s 			page 9


 332              		.loc 1 87 0
 333 0094 7A68     		ldr	r2, [r7, #4]
 334 0096 4FF00003 		mov	r3, #0
 335 009a 4FF00004 		mov	r4, #0
 336 009e C2E91434 		strd	r3, [r2, #80]
  88:src/sensor_data.c **** 	sd->ec_target = 0;
 337              		.loc 1 88 0
 338 00a2 7A68     		ldr	r2, [r7, #4]
 339 00a4 4FF00003 		mov	r3, #0
 340 00a8 4FF00004 		mov	r4, #0
 341 00ac C2E91634 		strd	r3, [r2, #88]
  89:src/sensor_data.c **** 	sd->h2o_target = 0;
 342              		.loc 1 89 0
 343 00b0 7A68     		ldr	r2, [r7, #4]
 344 00b2 4FF00003 		mov	r3, #0
 345 00b6 4FF00004 		mov	r4, #0
 346 00ba C2E91834 		strd	r3, [r2, #96]
  90:src/sensor_data.c **** 	sd->temp_target = 0;
 347              		.loc 1 90 0
 348 00be 7A68     		ldr	r2, [r7, #4]
 349 00c0 4FF00003 		mov	r3, #0
 350 00c4 4FF00004 		mov	r4, #0
 351 00c8 C2E91A34 		strd	r3, [r2, #104]
  91:src/sensor_data.c **** 	strcpy(sd->ProductID, "ABCD1234EFGH5678");
 352              		.loc 1 91 0
 353 00cc 7B68     		ldr	r3, [r7, #4]
 354 00ce 7033     		adds	r3, r3, #112
 355 00d0 074A     		ldr	r2, .L16
 356 00d2 1D46     		mov	r5, r3
 357 00d4 1446     		mov	r4, r2
 358 00d6 0FCC     		ldmia	r4!, {r0, r1, r2, r3}
 359 00d8 2860     		str	r0, [r5]	@ unaligned
 360 00da 6960     		str	r1, [r5, #4]	@ unaligned
 361 00dc AA60     		str	r2, [r5, #8]	@ unaligned
 362 00de EB60     		str	r3, [r5, #12]	@ unaligned
 363 00e0 2378     		ldrb	r3, [r4]
 364 00e2 2B74     		strb	r3, [r5, #16]
  92:src/sensor_data.c **** }
 365              		.loc 1 92 0
 366 00e4 00BF     		nop
 367 00e6 0C37     		adds	r7, r7, #12
 368              		.cfi_def_cfa_offset 12
 369 00e8 BD46     		mov	sp, r7
 370              		.cfi_def_cfa_register 13
 371              		@ sp needed
 372 00ea B0BC     		pop	{r4, r5, r7}
 373              		.cfi_restore 7
 374              		.cfi_restore 5
 375              		.cfi_restore 4
 376              		.cfi_def_cfa_offset 0
 377 00ec 7047     		bx	lr
 378              	.L17:
 379 00ee 00BF     		.align	2
 380              	.L16:
 381 00f0 C0000000 		.word	.LC14
 382              		.cfi_endproc
 383              	.LFE2:
ARM GAS  C:\Users\tpbw4321\AppData\Local\Temp\cczUgNqJ.s 			page 10


 384              		.size	sensor_data_init, .-sensor_data_init
 385              		.global	__aeabi_i2d
 386              		.section	.text.setRandomData,"ax",%progbits
 387              		.align	2
 388              		.global	setRandomData
 389              		.thumb
 390              		.thumb_func
 391              		.type	setRandomData, %function
 392              	setRandomData:
 393              	.LFB3:
  93:src/sensor_data.c **** 
  94:src/sensor_data.c **** 
  95:src/sensor_data.c **** void setRandomData(struct SensorData *sd) {
 394              		.loc 1 95 0
 395              		.cfi_startproc
 396              		@ args = 0, pretend = 0, frame = 16
 397              		@ frame_needed = 1, uses_anonymous_args = 0
 398 0000 B0B5     		push	{r4, r5, r7, lr}
 399              		.cfi_def_cfa_offset 16
 400              		.cfi_offset 4, -16
 401              		.cfi_offset 5, -12
 402              		.cfi_offset 7, -8
 403              		.cfi_offset 14, -4
 404 0002 84B0     		sub	sp, sp, #16
 405              		.cfi_def_cfa_offset 32
 406 0004 00AF     		add	r7, sp, #0
 407              		.cfi_def_cfa_register 7
 408 0006 7860     		str	r0, [r7, #4]
  96:src/sensor_data.c **** 	time_t t;
  97:src/sensor_data.c **** 	srand((unsigned)time(&t));
 409              		.loc 1 97 0
 410 0008 07F10C03 		add	r3, r7, #12
 411 000c 1846     		mov	r0, r3
 412 000e FFF7FEFF 		bl	time
 413 0012 0346     		mov	r3, r0
 414 0014 1846     		mov	r0, r3
 415 0016 FFF7FEFF 		bl	srand
  98:src/sensor_data.c **** 	sd->h2o_level = rand() % 256;
 416              		.loc 1 98 0
 417 001a FFF7FEFF 		bl	rand
 418 001e 0246     		mov	r2, r0
 419 0020 734B     		ldr	r3, .L29
 420 0022 1340     		ands	r3, r3, r2
 421 0024 002B     		cmp	r3, #0
 422 0026 03DA     		bge	.L19
 423 0028 013B     		subs	r3, r3, #1
 424 002a 63F0FF03 		orn	r3, r3, #255
 425 002e 0133     		adds	r3, r3, #1
 426              	.L19:
 427 0030 1846     		mov	r0, r3
 428 0032 FFF7FEFF 		bl	__aeabi_i2d
 429 0036 0346     		mov	r3, r0
 430 0038 0C46     		mov	r4, r1
 431 003a 7A68     		ldr	r2, [r7, #4]
 432 003c C2E90034 		strd	r3, [r2]
  99:src/sensor_data.c **** 	sd->h2o_stored = rand() % 256;
 433              		.loc 1 99 0
ARM GAS  C:\Users\tpbw4321\AppData\Local\Temp\cczUgNqJ.s 			page 11


 434 0040 FFF7FEFF 		bl	rand
 435 0044 0246     		mov	r2, r0
 436 0046 6A4B     		ldr	r3, .L29
 437 0048 1340     		ands	r3, r3, r2
 438 004a 002B     		cmp	r3, #0
 439 004c 03DA     		bge	.L20
 440 004e 013B     		subs	r3, r3, #1
 441 0050 63F0FF03 		orn	r3, r3, #255
 442 0054 0133     		adds	r3, r3, #1
 443              	.L20:
 444 0056 1846     		mov	r0, r3
 445 0058 FFF7FEFF 		bl	__aeabi_i2d
 446 005c 0346     		mov	r3, r0
 447 005e 0C46     		mov	r4, r1
 448 0060 7A68     		ldr	r2, [r7, #4]
 449 0062 C2E90234 		strd	r3, [r2, #8]
 100:src/sensor_data.c **** 	sd->ph_level = rand() % 256;
 450              		.loc 1 100 0
 451 0066 FFF7FEFF 		bl	rand
 452 006a 0246     		mov	r2, r0
 453 006c 604B     		ldr	r3, .L29
 454 006e 1340     		ands	r3, r3, r2
 455 0070 002B     		cmp	r3, #0
 456 0072 03DA     		bge	.L21
 457 0074 013B     		subs	r3, r3, #1
 458 0076 63F0FF03 		orn	r3, r3, #255
 459 007a 0133     		adds	r3, r3, #1
 460              	.L21:
 461 007c 1846     		mov	r0, r3
 462 007e FFF7FEFF 		bl	__aeabi_i2d
 463 0082 0346     		mov	r3, r0
 464 0084 0C46     		mov	r4, r1
 465 0086 7A68     		ldr	r2, [r7, #4]
 466 0088 C2E90434 		strd	r3, [r2, #16]
 101:src/sensor_data.c **** 	sd->ph_up_stored = rand() % 256;
 467              		.loc 1 101 0
 468 008c FFF7FEFF 		bl	rand
 469 0090 0246     		mov	r2, r0
 470 0092 574B     		ldr	r3, .L29
 471 0094 1340     		ands	r3, r3, r2
 472 0096 002B     		cmp	r3, #0
 473 0098 03DA     		bge	.L22
 474 009a 013B     		subs	r3, r3, #1
 475 009c 63F0FF03 		orn	r3, r3, #255
 476 00a0 0133     		adds	r3, r3, #1
 477              	.L22:
 478 00a2 1846     		mov	r0, r3
 479 00a4 FFF7FEFF 		bl	__aeabi_i2d
 480 00a8 0346     		mov	r3, r0
 481 00aa 0C46     		mov	r4, r1
 482 00ac 7A68     		ldr	r2, [r7, #4]
 483 00ae C2E90634 		strd	r3, [r2, #24]
 102:src/sensor_data.c **** 	sd->ph_down_stored = rand() % 256;
 484              		.loc 1 102 0
 485 00b2 FFF7FEFF 		bl	rand
 486 00b6 0246     		mov	r2, r0
 487 00b8 4D4B     		ldr	r3, .L29
ARM GAS  C:\Users\tpbw4321\AppData\Local\Temp\cczUgNqJ.s 			page 12


 488 00ba 1340     		ands	r3, r3, r2
 489 00bc 002B     		cmp	r3, #0
 490 00be 03DA     		bge	.L23
 491 00c0 013B     		subs	r3, r3, #1
 492 00c2 63F0FF03 		orn	r3, r3, #255
 493 00c6 0133     		adds	r3, r3, #1
 494              	.L23:
 495 00c8 1846     		mov	r0, r3
 496 00ca FFF7FEFF 		bl	__aeabi_i2d
 497 00ce 0346     		mov	r3, r0
 498 00d0 0C46     		mov	r4, r1
 499 00d2 7A68     		ldr	r2, [r7, #4]
 500 00d4 C2E90834 		strd	r3, [r2, #32]
 103:src/sensor_data.c **** 	sd->ec_level = rand() % 256;
 501              		.loc 1 103 0
 502 00d8 FFF7FEFF 		bl	rand
 503 00dc 0246     		mov	r2, r0
 504 00de 444B     		ldr	r3, .L29
 505 00e0 1340     		ands	r3, r3, r2
 506 00e2 002B     		cmp	r3, #0
 507 00e4 03DA     		bge	.L24
 508 00e6 013B     		subs	r3, r3, #1
 509 00e8 63F0FF03 		orn	r3, r3, #255
 510 00ec 0133     		adds	r3, r3, #1
 511              	.L24:
 512 00ee 1846     		mov	r0, r3
 513 00f0 FFF7FEFF 		bl	__aeabi_i2d
 514 00f4 0346     		mov	r3, r0
 515 00f6 0C46     		mov	r4, r1
 516 00f8 7A68     		ldr	r2, [r7, #4]
 517 00fa C2E90A34 		strd	r3, [r2, #40]
 104:src/sensor_data.c **** 	sd->ec_stored = rand() % 256;
 518              		.loc 1 104 0
 519 00fe FFF7FEFF 		bl	rand
 520 0102 0246     		mov	r2, r0
 521 0104 3A4B     		ldr	r3, .L29
 522 0106 1340     		ands	r3, r3, r2
 523 0108 002B     		cmp	r3, #0
 524 010a 03DA     		bge	.L25
 525 010c 013B     		subs	r3, r3, #1
 526 010e 63F0FF03 		orn	r3, r3, #255
 527 0112 0133     		adds	r3, r3, #1
 528              	.L25:
 529 0114 1846     		mov	r0, r3
 530 0116 FFF7FEFF 		bl	__aeabi_i2d
 531 011a 0346     		mov	r3, r0
 532 011c 0C46     		mov	r4, r1
 533 011e 7A68     		ldr	r2, [r7, #4]
 534 0120 C2E90C34 		strd	r3, [r2, #48]
 105:src/sensor_data.c **** 	sd->temp_measured = rand() % 256;
 535              		.loc 1 105 0
 536 0124 FFF7FEFF 		bl	rand
 537 0128 0246     		mov	r2, r0
 538 012a 314B     		ldr	r3, .L29
 539 012c 1340     		ands	r3, r3, r2
 540 012e 002B     		cmp	r3, #0
 541 0130 03DA     		bge	.L26
ARM GAS  C:\Users\tpbw4321\AppData\Local\Temp\cczUgNqJ.s 			page 13


 542 0132 013B     		subs	r3, r3, #1
 543 0134 63F0FF03 		orn	r3, r3, #255
 544 0138 0133     		adds	r3, r3, #1
 545              	.L26:
 546 013a 1846     		mov	r0, r3
 547 013c FFF7FEFF 		bl	__aeabi_i2d
 548 0140 0346     		mov	r3, r0
 549 0142 0C46     		mov	r4, r1
 550 0144 7A68     		ldr	r2, [r7, #4]
 551 0146 C2E90E34 		strd	r3, [r2, #56]
 106:src/sensor_data.c **** 	sd->flow_measured = rand() % 256;
 552              		.loc 1 106 0
 553 014a FFF7FEFF 		bl	rand
 554 014e 0246     		mov	r2, r0
 555 0150 274B     		ldr	r3, .L29
 556 0152 1340     		ands	r3, r3, r2
 557 0154 002B     		cmp	r3, #0
 558 0156 03DA     		bge	.L27
 559 0158 013B     		subs	r3, r3, #1
 560 015a 63F0FF03 		orn	r3, r3, #255
 561 015e 0133     		adds	r3, r3, #1
 562              	.L27:
 563 0160 1846     		mov	r0, r3
 564 0162 FFF7FEFF 		bl	__aeabi_i2d
 565 0166 0346     		mov	r3, r0
 566 0168 0C46     		mov	r4, r1
 567 016a 7A68     		ldr	r2, [r7, #4]
 568 016c C2E91034 		strd	r3, [r2, #64]
 107:src/sensor_data.c **** 	sd->flow_target = rand() % 256;
 569              		.loc 1 107 0
 570 0170 FFF7FEFF 		bl	rand
 571 0174 0246     		mov	r2, r0
 572 0176 1E4B     		ldr	r3, .L29
 573 0178 1340     		ands	r3, r3, r2
 574 017a 002B     		cmp	r3, #0
 575 017c 03DA     		bge	.L28
 576 017e 013B     		subs	r3, r3, #1
 577 0180 63F0FF03 		orn	r3, r3, #255
 578 0184 0133     		adds	r3, r3, #1
 579              	.L28:
 580 0186 1846     		mov	r0, r3
 581 0188 FFF7FEFF 		bl	__aeabi_i2d
 582 018c 0346     		mov	r3, r0
 583 018e 0C46     		mov	r4, r1
 584 0190 7A68     		ldr	r2, [r7, #4]
 585 0192 C2E91234 		strd	r3, [r2, #72]
 108:src/sensor_data.c **** 	sd->ph_target = 0;//rand() % 256;
 586              		.loc 1 108 0
 587 0196 7A68     		ldr	r2, [r7, #4]
 588 0198 4FF00003 		mov	r3, #0
 589 019c 4FF00004 		mov	r4, #0
 590 01a0 C2E91434 		strd	r3, [r2, #80]
 109:src/sensor_data.c **** 	sd->ec_target = 0;//rand() % 256;
 591              		.loc 1 109 0
 592 01a4 7A68     		ldr	r2, [r7, #4]
 593 01a6 4FF00003 		mov	r3, #0
 594 01aa 4FF00004 		mov	r4, #0
ARM GAS  C:\Users\tpbw4321\AppData\Local\Temp\cczUgNqJ.s 			page 14


 595 01ae C2E91634 		strd	r3, [r2, #88]
 110:src/sensor_data.c **** 	sd->h2o_target = 0;//rand() % 256;
 596              		.loc 1 110 0
 597 01b2 7A68     		ldr	r2, [r7, #4]
 598 01b4 4FF00003 		mov	r3, #0
 599 01b8 4FF00004 		mov	r4, #0
 600 01bc C2E91834 		strd	r3, [r2, #96]
 111:src/sensor_data.c **** 	sd->temp_target = 0;//rand() % 256;
 601              		.loc 1 111 0
 602 01c0 7A68     		ldr	r2, [r7, #4]
 603 01c2 4FF00003 		mov	r3, #0
 604 01c6 4FF00004 		mov	r4, #0
 605 01ca C2E91A34 		strd	r3, [r2, #104]
 112:src/sensor_data.c **** 	strcpy(sd->ProductID, "ABCD1234EFGH5678");
 606              		.loc 1 112 0
 607 01ce 7B68     		ldr	r3, [r7, #4]
 608 01d0 7033     		adds	r3, r3, #112
 609 01d2 084A     		ldr	r2, .L29+4
 610 01d4 1D46     		mov	r5, r3
 611 01d6 1446     		mov	r4, r2
 612 01d8 0FCC     		ldmia	r4!, {r0, r1, r2, r3}
 613 01da 2860     		str	r0, [r5]	@ unaligned
 614 01dc 6960     		str	r1, [r5, #4]	@ unaligned
 615 01de AA60     		str	r2, [r5, #8]	@ unaligned
 616 01e0 EB60     		str	r3, [r5, #12]	@ unaligned
 617 01e2 2378     		ldrb	r3, [r4]
 618 01e4 2B74     		strb	r3, [r5, #16]
 113:src/sensor_data.c **** }
 619              		.loc 1 113 0
 620 01e6 00BF     		nop
 621 01e8 1037     		adds	r7, r7, #16
 622              		.cfi_def_cfa_offset 16
 623 01ea BD46     		mov	sp, r7
 624              		.cfi_def_cfa_register 13
 625              		@ sp needed
 626 01ec B0BD     		pop	{r4, r5, r7, pc}
 627              	.L30:
 628 01ee 00BF     		.align	2
 629              	.L29:
 630 01f0 FF000080 		.word	-2147483393
 631 01f4 C0000000 		.word	.LC14
 632              		.cfi_endproc
 633              	.LFE3:
 634              		.size	setRandomData, .-setRandomData
 635              		.global	__aeabi_ddiv
 636              		.global	__aeabi_dsub
 637              		.global	__aeabi_dmul
 638              		.section	.text.randomExponentially,"ax",%progbits
 639              		.align	2
 640              		.global	randomExponentially
 641              		.thumb
 642              		.thumb_func
 643              		.type	randomExponentially, %function
 644              	randomExponentially:
 645              	.LFB4:
 114:src/sensor_data.c **** 
 115:src/sensor_data.c **** //Produces a random number
ARM GAS  C:\Users\tpbw4321\AppData\Local\Temp\cczUgNqJ.s 			page 15


 116:src/sensor_data.c **** double randomExponentially(double current, double max, double min) {
 646              		.loc 1 116 0
 647              		.cfi_startproc
 648              		@ args = 8, pretend = 0, frame = 40
 649              		@ frame_needed = 1, uses_anonymous_args = 0
 650 0000 B0B5     		push	{r4, r5, r7, lr}
 651              		.cfi_def_cfa_offset 16
 652              		.cfi_offset 4, -16
 653              		.cfi_offset 5, -12
 654              		.cfi_offset 7, -8
 655              		.cfi_offset 14, -4
 656 0002 8AB0     		sub	sp, sp, #40
 657              		.cfi_def_cfa_offset 56
 658 0004 00AF     		add	r7, sp, #0
 659              		.cfi_def_cfa_register 7
 660 0006 C7E90201 		strd	r0, [r7, #8]
 661 000a C7E90023 		strd	r2, [r7]
 117:src/sensor_data.c **** 	double strength = 20.0;
 662              		.loc 1 117 0
 663 000e 4FF00003 		mov	r3, #0
 664 0012 234C     		ldr	r4, .L33+8
 665 0014 C7E90834 		strd	r3, [r7, #32]
 118:src/sensor_data.c **** 	double randDouble = ((double)rand()) / RAND_MAX;
 666              		.loc 1 118 0
 667 0018 FFF7FEFF 		bl	rand
 668 001c 0346     		mov	r3, r0
 669 001e 1846     		mov	r0, r3
 670 0020 FFF7FEFF 		bl	__aeabi_i2d
 671 0024 1CA3     		adr	r3, .L33
 672 0026 D3E90023 		ldrd	r2, [r3]
 673 002a FFF7FEFF 		bl	__aeabi_ddiv
 674 002e 0346     		mov	r3, r0
 675 0030 0C46     		mov	r4, r1
 676 0032 C7E90634 		strd	r3, [r7, #24]
 119:src/sensor_data.c **** 	double shift = (current - min) / (max - min); // 0.5 = no bias
 677              		.loc 1 119 0
 678 0036 D7E90E23 		ldrd	r2, [r7, #56]
 679 003a D7E90201 		ldrd	r0, [r7, #8]
 680 003e FFF7FEFF 		bl	__aeabi_dsub
 681 0042 0346     		mov	r3, r0
 682 0044 0C46     		mov	r4, r1
 683 0046 2546     		mov	r5, r4
 684 0048 1C46     		mov	r4, r3
 685 004a D7E90E23 		ldrd	r2, [r7, #56]
 686 004e D7E90001 		ldrd	r0, [r7]
 687 0052 FFF7FEFF 		bl	__aeabi_dsub
 688 0056 0246     		mov	r2, r0
 689 0058 0B46     		mov	r3, r1
 690 005a 2046     		mov	r0, r4
 691 005c 2946     		mov	r1, r5
 692 005e FFF7FEFF 		bl	__aeabi_ddiv
 693 0062 0346     		mov	r3, r0
 694 0064 0C46     		mov	r4, r1
 695 0066 C7E90434 		strd	r3, [r7, #16]
 120:src/sensor_data.c **** 	//double coeff = randDouble - shift;
 121:src/sensor_data.c **** 	return (randDouble - shift) * strength;
 696              		.loc 1 121 0
ARM GAS  C:\Users\tpbw4321\AppData\Local\Temp\cczUgNqJ.s 			page 16


 697 006a D7E90423 		ldrd	r2, [r7, #16]
 698 006e D7E90601 		ldrd	r0, [r7, #24]
 699 0072 FFF7FEFF 		bl	__aeabi_dsub
 700 0076 0346     		mov	r3, r0
 701 0078 0C46     		mov	r4, r1
 702 007a 1846     		mov	r0, r3
 703 007c 2146     		mov	r1, r4
 704 007e D7E90823 		ldrd	r2, [r7, #32]
 705 0082 FFF7FEFF 		bl	__aeabi_dmul
 706 0086 0346     		mov	r3, r0
 707 0088 0C46     		mov	r4, r1
 122:src/sensor_data.c **** }
 708              		.loc 1 122 0
 709 008a 1846     		mov	r0, r3
 710 008c 2146     		mov	r1, r4
 711 008e 2837     		adds	r7, r7, #40
 712              		.cfi_def_cfa_offset 16
 713 0090 BD46     		mov	sp, r7
 714              		.cfi_def_cfa_register 13
 715              		@ sp needed
 716 0092 B0BD     		pop	{r4, r5, r7, pc}
 717              	.L34:
 718 0094 AFF30080 		.align	3
 719              	.L33:
 720 0098 0000C0FF 		.word	-4194304
 721 009c FFFFDF41 		.word	1105199103
 722 00a0 00003440 		.word	1077149696
 723              		.cfi_endproc
 724              	.LFE4:
 725              		.size	randomExponentially, .-randomExponentially
 726              		.global	__aeabi_dadd
 727              		.section	.text.randomWalk,"ax",%progbits
 728              		.align	2
 729              		.global	randomWalk
 730              		.thumb
 731              		.thumb_func
 732              		.type	randomWalk, %function
 733              	randomWalk:
 734              	.LFB5:
 123:src/sensor_data.c **** 
 124:src/sensor_data.c **** //Adds random walk data to a sensor data structure.
 125:src/sensor_data.c **** void randomWalk(struct SensorData *sd) {
 735              		.loc 1 125 0
 736              		.cfi_startproc
 737              		@ args = 0, pretend = 0, frame = 8
 738              		@ frame_needed = 1, uses_anonymous_args = 0
 739 0000 B0B5     		push	{r4, r5, r7, lr}
 740              		.cfi_def_cfa_offset 16
 741              		.cfi_offset 4, -16
 742              		.cfi_offset 5, -12
 743              		.cfi_offset 7, -8
 744              		.cfi_offset 14, -4
 745 0002 84B0     		sub	sp, sp, #16
 746              		.cfi_def_cfa_offset 32
 747 0004 02AF     		add	r7, sp, #8
 748              		.cfi_def_cfa 7, 24
 749 0006 7860     		str	r0, [r7, #4]
ARM GAS  C:\Users\tpbw4321\AppData\Local\Temp\cczUgNqJ.s 			page 17


 126:src/sensor_data.c **** 	sd->h2o_level += randomExponentially(sd->h2o_level, 300, 10);
 750              		.loc 1 126 0
 751 0008 7B68     		ldr	r3, [r7, #4]
 752 000a D3E90001 		ldrd	r0, [r3]
 753 000e 4FF00003 		mov	r3, #0
 754 0012 7D4C     		ldr	r4, .L36+16
 755 0014 CDE90034 		strd	r3, [sp]
 756 0018 77A3     		adr	r3, .L36
 757 001a D3E90023 		ldrd	r2, [r3]
 758 001e FFF7FEFF 		bl	randomExponentially
 759 0022 0446     		mov	r4, r0
 760 0024 0D46     		mov	r5, r1
 761 0026 7B68     		ldr	r3, [r7, #4]
 762 0028 D3E90001 		ldrd	r0, [r3]
 763 002c 2246     		mov	r2, r4
 764 002e 2B46     		mov	r3, r5
 765 0030 FFF7FEFF 		bl	__aeabi_dadd
 766 0034 0346     		mov	r3, r0
 767 0036 0C46     		mov	r4, r1
 768 0038 7A68     		ldr	r2, [r7, #4]
 769 003a C2E90034 		strd	r3, [r2]
 127:src/sensor_data.c **** 	sd->h2o_stored += randomExponentially(sd->h2o_stored, 245, 10);
 770              		.loc 1 127 0
 771 003e 7B68     		ldr	r3, [r7, #4]
 772 0040 D3E90201 		ldrd	r0, [r3, #8]
 773 0044 4FF00003 		mov	r3, #0
 774 0048 6F4C     		ldr	r4, .L36+16
 775 004a CDE90034 		strd	r3, [sp]
 776 004e 6CA3     		adr	r3, .L36+8
 777 0050 D3E90023 		ldrd	r2, [r3]
 778 0054 FFF7FEFF 		bl	randomExponentially
 779 0058 0446     		mov	r4, r0
 780 005a 0D46     		mov	r5, r1
 781 005c 7B68     		ldr	r3, [r7, #4]
 782 005e D3E90201 		ldrd	r0, [r3, #8]
 783 0062 2246     		mov	r2, r4
 784 0064 2B46     		mov	r3, r5
 785 0066 FFF7FEFF 		bl	__aeabi_dadd
 786 006a 0346     		mov	r3, r0
 787 006c 0C46     		mov	r4, r1
 788 006e 7A68     		ldr	r2, [r7, #4]
 789 0070 C2E90234 		strd	r3, [r2, #8]
 128:src/sensor_data.c **** 	sd->ph_level += randomExponentially(sd->ph_level, 14, 1);
 790              		.loc 1 128 0
 791 0074 7B68     		ldr	r3, [r7, #4]
 792 0076 D3E90401 		ldrd	r0, [r3, #16]
 793 007a 4FF00003 		mov	r3, #0
 794 007e 634C     		ldr	r4, .L36+20
 795 0080 CDE90034 		strd	r3, [sp]
 796 0084 4FF00002 		mov	r2, #0
 797 0088 614B     		ldr	r3, .L36+24
 798 008a FFF7FEFF 		bl	randomExponentially
 799 008e 0446     		mov	r4, r0
 800 0090 0D46     		mov	r5, r1
 801 0092 7B68     		ldr	r3, [r7, #4]
 802 0094 D3E90401 		ldrd	r0, [r3, #16]
 803 0098 2246     		mov	r2, r4
ARM GAS  C:\Users\tpbw4321\AppData\Local\Temp\cczUgNqJ.s 			page 18


 804 009a 2B46     		mov	r3, r5
 805 009c FFF7FEFF 		bl	__aeabi_dadd
 806 00a0 0346     		mov	r3, r0
 807 00a2 0C46     		mov	r4, r1
 808 00a4 7A68     		ldr	r2, [r7, #4]
 809 00a6 C2E90434 		strd	r3, [r2, #16]
 129:src/sensor_data.c **** 	sd->ph_up_stored += randomExponentially(sd->ph_up_stored, 245, 10);
 810              		.loc 1 129 0
 811 00aa 7B68     		ldr	r3, [r7, #4]
 812 00ac D3E90601 		ldrd	r0, [r3, #24]
 813 00b0 4FF00003 		mov	r3, #0
 814 00b4 544C     		ldr	r4, .L36+16
 815 00b6 CDE90034 		strd	r3, [sp]
 816 00ba 51A3     		adr	r3, .L36+8
 817 00bc D3E90023 		ldrd	r2, [r3]
 818 00c0 FFF7FEFF 		bl	randomExponentially
 819 00c4 0446     		mov	r4, r0
 820 00c6 0D46     		mov	r5, r1
 821 00c8 7B68     		ldr	r3, [r7, #4]
 822 00ca D3E90601 		ldrd	r0, [r3, #24]
 823 00ce 2246     		mov	r2, r4
 824 00d0 2B46     		mov	r3, r5
 825 00d2 FFF7FEFF 		bl	__aeabi_dadd
 826 00d6 0346     		mov	r3, r0
 827 00d8 0C46     		mov	r4, r1
 828 00da 7A68     		ldr	r2, [r7, #4]
 829 00dc C2E90634 		strd	r3, [r2, #24]
 130:src/sensor_data.c **** 	sd->ph_down_stored += randomExponentially(sd->ph_down_stored, 245, 10);
 830              		.loc 1 130 0
 831 00e0 7B68     		ldr	r3, [r7, #4]
 832 00e2 D3E90801 		ldrd	r0, [r3, #32]
 833 00e6 4FF00003 		mov	r3, #0
 834 00ea 474C     		ldr	r4, .L36+16
 835 00ec CDE90034 		strd	r3, [sp]
 836 00f0 43A3     		adr	r3, .L36+8
 837 00f2 D3E90023 		ldrd	r2, [r3]
 838 00f6 FFF7FEFF 		bl	randomExponentially
 839 00fa 0446     		mov	r4, r0
 840 00fc 0D46     		mov	r5, r1
 841 00fe 7B68     		ldr	r3, [r7, #4]
 842 0100 D3E90801 		ldrd	r0, [r3, #32]
 843 0104 2246     		mov	r2, r4
 844 0106 2B46     		mov	r3, r5
 845 0108 FFF7FEFF 		bl	__aeabi_dadd
 846 010c 0346     		mov	r3, r0
 847 010e 0C46     		mov	r4, r1
 848 0110 7A68     		ldr	r2, [r7, #4]
 849 0112 C2E90834 		strd	r3, [r2, #32]
 131:src/sensor_data.c **** 	sd->ec_level += randomExponentially(sd->ec_level, 500, 10);
 850              		.loc 1 131 0
 851 0116 7B68     		ldr	r3, [r7, #4]
 852 0118 D3E90A01 		ldrd	r0, [r3, #40]
 853 011c 4FF00003 		mov	r3, #0
 854 0120 394C     		ldr	r4, .L36+16
 855 0122 CDE90034 		strd	r3, [sp]
 856 0126 4FF00002 		mov	r2, #0
 857 012a 3A4B     		ldr	r3, .L36+28
ARM GAS  C:\Users\tpbw4321\AppData\Local\Temp\cczUgNqJ.s 			page 19


 858 012c FFF7FEFF 		bl	randomExponentially
 859 0130 0446     		mov	r4, r0
 860 0132 0D46     		mov	r5, r1
 861 0134 7B68     		ldr	r3, [r7, #4]
 862 0136 D3E90A01 		ldrd	r0, [r3, #40]
 863 013a 2246     		mov	r2, r4
 864 013c 2B46     		mov	r3, r5
 865 013e FFF7FEFF 		bl	__aeabi_dadd
 866 0142 0346     		mov	r3, r0
 867 0144 0C46     		mov	r4, r1
 868 0146 7A68     		ldr	r2, [r7, #4]
 869 0148 C2E90A34 		strd	r3, [r2, #40]
 132:src/sensor_data.c **** 	sd->ec_stored += randomExponentially(sd->ec_stored, 245, 10);
 870              		.loc 1 132 0
 871 014c 7B68     		ldr	r3, [r7, #4]
 872 014e D3E90C01 		ldrd	r0, [r3, #48]
 873 0152 4FF00003 		mov	r3, #0
 874 0156 2C4C     		ldr	r4, .L36+16
 875 0158 CDE90034 		strd	r3, [sp]
 876 015c 28A3     		adr	r3, .L36+8
 877 015e D3E90023 		ldrd	r2, [r3]
 878 0162 FFF7FEFF 		bl	randomExponentially
 879 0166 0446     		mov	r4, r0
 880 0168 0D46     		mov	r5, r1
 881 016a 7B68     		ldr	r3, [r7, #4]
 882 016c D3E90C01 		ldrd	r0, [r3, #48]
 883 0170 2246     		mov	r2, r4
 884 0172 2B46     		mov	r3, r5
 885 0174 FFF7FEFF 		bl	__aeabi_dadd
 886 0178 0346     		mov	r3, r0
 887 017a 0C46     		mov	r4, r1
 888 017c 7A68     		ldr	r2, [r7, #4]
 889 017e C2E90C34 		strd	r3, [r2, #48]
 133:src/sensor_data.c **** 	sd->temp_measured += randomExponentially(sd->temp_measured, 80, 10);
 890              		.loc 1 133 0
 891 0182 7B68     		ldr	r3, [r7, #4]
 892 0184 D3E90E01 		ldrd	r0, [r3, #56]
 893 0188 4FF00003 		mov	r3, #0
 894 018c 1E4C     		ldr	r4, .L36+16
 895 018e CDE90034 		strd	r3, [sp]
 896 0192 4FF00002 		mov	r2, #0
 897 0196 204B     		ldr	r3, .L36+32
 898 0198 FFF7FEFF 		bl	randomExponentially
 899 019c 0446     		mov	r4, r0
 900 019e 0D46     		mov	r5, r1
 901 01a0 7B68     		ldr	r3, [r7, #4]
 902 01a2 D3E90E01 		ldrd	r0, [r3, #56]
 903 01a6 2246     		mov	r2, r4
 904 01a8 2B46     		mov	r3, r5
 905 01aa FFF7FEFF 		bl	__aeabi_dadd
 906 01ae 0346     		mov	r3, r0
 907 01b0 0C46     		mov	r4, r1
 908 01b2 7A68     		ldr	r2, [r7, #4]
 909 01b4 C2E90E34 		strd	r3, [r2, #56]
 134:src/sensor_data.c **** 	sd->flow_measured += randomExponentially(sd->flow_measured, 245, 10);
 910              		.loc 1 134 0
 911 01b8 7B68     		ldr	r3, [r7, #4]
ARM GAS  C:\Users\tpbw4321\AppData\Local\Temp\cczUgNqJ.s 			page 20


 912 01ba D3E91001 		ldrd	r0, [r3, #64]
 913 01be 4FF00003 		mov	r3, #0
 914 01c2 114C     		ldr	r4, .L36+16
 915 01c4 CDE90034 		strd	r3, [sp]
 916 01c8 0DA3     		adr	r3, .L36+8
 917 01ca D3E90023 		ldrd	r2, [r3]
 918 01ce FFF7FEFF 		bl	randomExponentially
 919 01d2 0446     		mov	r4, r0
 920 01d4 0D46     		mov	r5, r1
 921 01d6 7B68     		ldr	r3, [r7, #4]
 922 01d8 D3E91001 		ldrd	r0, [r3, #64]
 923 01dc 2246     		mov	r2, r4
 924 01de 2B46     		mov	r3, r5
 925 01e0 FFF7FEFF 		bl	__aeabi_dadd
 926 01e4 0346     		mov	r3, r0
 927 01e6 0C46     		mov	r4, r1
 928 01e8 7A68     		ldr	r2, [r7, #4]
 929 01ea C2E91034 		strd	r3, [r2, #64]
 135:src/sensor_data.c **** 	// sd->flow_target +=     randomExponentially(sd->flow_target,245,10);
 136:src/sensor_data.c **** 	// sd->ph_target +=       randomExponentially(sd->ph_target,245,10);
 137:src/sensor_data.c **** 	// sd->ec_target +=       randomExponentially(sd->ec_target,245,10);
 138:src/sensor_data.c **** 	// sd->h2o_target +=      randomExponentially(sd->h2o_target,245,10);
 139:src/sensor_data.c **** }
 930              		.loc 1 139 0
 931 01ee 00BF     		nop
 932 01f0 0837     		adds	r7, r7, #8
 933              		.cfi_def_cfa_offset 16
 934 01f2 BD46     		mov	sp, r7
 935              		.cfi_def_cfa_register 13
 936              		@ sp needed
 937 01f4 B0BD     		pop	{r4, r5, r7, pc}
 938              	.L37:
 939 01f6 00BF     		.align	3
 940              	.L36:
 941 01f8 00000000 		.word	0
 942 01fc 00C07240 		.word	1081262080
 943 0200 00000000 		.word	0
 944 0204 00A06E40 		.word	1080991744
 945 0208 00002440 		.word	1076101120
 946 020c 0000F03F 		.word	1072693248
 947 0210 00002C40 		.word	1076625408
 948 0214 00407F40 		.word	1082081280
 949 0218 00005440 		.word	1079246848
 950              		.cfi_endproc
 951              	.LFE5:
 952              		.size	randomWalk, .-randomWalk
 953              		.section	.rodata
 954 00d1 000000   		.align	2
 955              	.LC15:
 956 00d4 7200     		.ascii	"r\000"
 957 00d6 0000     		.align	2
 958              	.LC16:
 959 00d8 73617665 		.ascii	"save_data.dat\000"
 959      5F646174 
 959      612E6461 
 959      7400
 960 00e6 0000     		.align	2
ARM GAS  C:\Users\tpbw4321\AppData\Local\Temp\cczUgNqJ.s 			page 21


 961              	.LC17:
 962 00e8 4572726F 		.ascii	"Error opening saved data.\000"
 962      72206F70 
 962      656E696E 
 962      67207361 
 962      76656420 
 963 0102 0000     		.align	2
 964              	.LC18:
 965 0104 68326F5F 		.ascii	"h2o_level=%lf\012h2o_stored=%lf\012ph_level=%lf\012"
 965      6C657665 
 965      6C3D256C 
 965      660A6832 
 965      6F5F7374 
 966 012e 70685F75 		.ascii	"ph_up_stored=%lf\012ph_down_stored=%lf\012ec_level="
 966      705F7374 
 966      6F726564 
 966      3D256C66 
 966      0A70685F 
 967 015b 256C660A 		.ascii	"%lf\012ec_stored=%lf\012temp_measured=%lf\012flow_m"
 967      65635F73 
 967      746F7265 
 967      643D256C 
 967      660A7465 
 968 0185 65617375 		.ascii	"easured=%lf\012flow_target=%lf\012ph_target=%lf\012"
 968      7265643D 
 968      256C660A 
 968      666C6F77 
 968      5F746172 
 969 01af 65635F74 		.ascii	"ec_target=%lf\012h2o_target=%lf\012temp_target=%lf\012"
 969      61726765 
 969      743D256C 
 969      660A6832 
 969      6F5F7461 
 970 01dc 50726F64 		.ascii	"ProductID=%s\012\000"
 970      75637449 
 970      443D2573 
 970      0A00
 971              		.section	.text.loadData,"ax",%progbits
 972              		.align	2
 973              		.global	loadData
 974              		.thumb
 975              		.thumb_func
 976              		.type	loadData, %function
 977              	loadData:
 978              	.LFB6:
 140:src/sensor_data.c **** 
 141:src/sensor_data.c **** //Reads sensor data from a file
 142:src/sensor_data.c **** int loadData(struct SensorData *sd, char *filename) {
 979              		.loc 1 142 0
 980              		.cfi_startproc
 981              		@ args = 0, pretend = 0, frame = 48
 982              		@ frame_needed = 1, uses_anonymous_args = 0
 983 0000 F0B5     		push	{r4, r5, r6, r7, lr}
 984              		.cfi_def_cfa_offset 20
 985              		.cfi_offset 4, -20
 986              		.cfi_offset 5, -16
 987              		.cfi_offset 6, -12
ARM GAS  C:\Users\tpbw4321\AppData\Local\Temp\cczUgNqJ.s 			page 22


 988              		.cfi_offset 7, -8
 989              		.cfi_offset 14, -4
 990 0002 9BB0     		sub	sp, sp, #108
 991              		.cfi_def_cfa_offset 128
 992 0004 0EAF     		add	r7, sp, #56
 993              		.cfi_def_cfa 7, 72
 994 0006 7862     		str	r0, [r7, #36]
 995 0008 3962     		str	r1, [r7, #32]
 143:src/sensor_data.c **** 	FILE *save_file = fopen("save_data.dat", "r");
 996              		.loc 1 143 0
 997 000a 3049     		ldr	r1, .L42
 998 000c 3048     		ldr	r0, .L42+4
 999 000e FFF7FEFF 		bl	fopen
 1000 0012 F862     		str	r0, [r7, #44]
 144:src/sensor_data.c **** 	if (!save_file) {
 1001              		.loc 1 144 0
 1002 0014 FB6A     		ldr	r3, [r7, #44]
 1003 0016 002B     		cmp	r3, #0
 1004 0018 06D1     		bne	.L39
 145:src/sensor_data.c **** 		printf("Error opening saved data.\n");
 1005              		.loc 1 145 0
 1006 001a 2E48     		ldr	r0, .L42+8
 1007 001c FFF7FEFF 		bl	puts
 146:src/sensor_data.c **** 		setRandomData(sd);
 1008              		.loc 1 146 0
 1009 0020 786A     		ldr	r0, [r7, #36]
 1010 0022 FFF7FEFF 		bl	setRandomData
 1011 0026 4CE0     		b	.L40
 1012              	.L39:
 147:src/sensor_data.c **** 	}
 148:src/sensor_data.c **** 	else {
 149:src/sensor_data.c **** 		fscanf(
 1013              		.loc 1 149 0
 1014 0028 7B6A     		ldr	r3, [r7, #36]
 1015 002a FB61     		str	r3, [r7, #28]
 1016 002c 7B6A     		ldr	r3, [r7, #36]
 1017 002e 03F1080E 		add	lr, r3, #8
 1018 0032 7B6A     		ldr	r3, [r7, #36]
 1019 0034 03F11001 		add	r1, r3, #16
 1020 0038 7B6A     		ldr	r3, [r7, #36]
 1021 003a 03F11800 		add	r0, r3, #24
 1022 003e 7B6A     		ldr	r3, [r7, #36]
 1023 0040 03F12004 		add	r4, r3, #32
 1024 0044 7B6A     		ldr	r3, [r7, #36]
 1025 0046 03F12805 		add	r5, r3, #40
 1026 004a 7B6A     		ldr	r3, [r7, #36]
 1027 004c 03F13006 		add	r6, r3, #48
 1028 0050 7B6A     		ldr	r3, [r7, #36]
 1029 0052 3833     		adds	r3, r3, #56
 1030 0054 BB61     		str	r3, [r7, #24]
 1031 0056 7B6A     		ldr	r3, [r7, #36]
 1032 0058 03F14002 		add	r2, r3, #64
 1033 005c 7A61     		str	r2, [r7, #20]
 1034 005e 7B6A     		ldr	r3, [r7, #36]
 1035 0060 03F1480C 		add	ip, r3, #72
 1036 0064 6346     		mov	r3, ip
 1037 0066 3B61     		str	r3, [r7, #16]
ARM GAS  C:\Users\tpbw4321\AppData\Local\Temp\cczUgNqJ.s 			page 23


 1038 0068 7B6A     		ldr	r3, [r7, #36]
 1039 006a 03F1500C 		add	ip, r3, #80
 1040 006e 6246     		mov	r2, ip
 1041 0070 FA60     		str	r2, [r7, #12]
 1042 0072 7B6A     		ldr	r3, [r7, #36]
 1043 0074 03F1580C 		add	ip, r3, #88
 1044 0078 6346     		mov	r3, ip
 1045 007a BB60     		str	r3, [r7, #8]
 1046 007c 7B6A     		ldr	r3, [r7, #36]
 1047 007e 03F1600C 		add	ip, r3, #96
 1048 0082 6246     		mov	r2, ip
 1049 0084 7A60     		str	r2, [r7, #4]
 1050 0086 7B6A     		ldr	r3, [r7, #36]
 1051 0088 03F16802 		add	r2, r3, #104
 150:src/sensor_data.c **** 			save_file,
 151:src/sensor_data.c **** 			"h2o_level=%lf\n"
 152:src/sensor_data.c **** 			"h2o_stored=%lf\n"
 153:src/sensor_data.c **** 			"ph_level=%lf\n"
 154:src/sensor_data.c **** 			"ph_up_stored=%lf\n"
 155:src/sensor_data.c **** 			"ph_down_stored=%lf\n"
 156:src/sensor_data.c **** 			"ec_level=%lf\n"
 157:src/sensor_data.c **** 			"ec_stored=%lf\n"
 158:src/sensor_data.c **** 			"temp_measured=%lf\n"
 159:src/sensor_data.c **** 			"flow_measured=%lf\n"
 160:src/sensor_data.c **** 			"flow_target=%lf\n"
 161:src/sensor_data.c **** 			"ph_target=%lf\n"
 162:src/sensor_data.c **** 			"ec_target=%lf\n"
 163:src/sensor_data.c **** 			"h2o_target=%lf\n"
 164:src/sensor_data.c **** 			"temp_target=%lf\n"
 165:src/sensor_data.c **** 			"ProductID=%s\n",
 166:src/sensor_data.c **** 			&(sd->h2o_level),
 167:src/sensor_data.c **** 			&(sd->h2o_stored),
 168:src/sensor_data.c **** 			&(sd->ph_level),
 169:src/sensor_data.c **** 			&(sd->ph_up_stored),
 170:src/sensor_data.c **** 			&(sd->ph_down_stored),
 171:src/sensor_data.c **** 			&(sd->ec_level),
 172:src/sensor_data.c **** 			&(sd->ec_stored),
 173:src/sensor_data.c **** 			&(sd->temp_measured),
 174:src/sensor_data.c **** 			&(sd->flow_measured),
 175:src/sensor_data.c **** 			&(sd->flow_target),
 176:src/sensor_data.c **** 			&(sd->ph_target),
 177:src/sensor_data.c **** 			&(sd->ec_target),
 178:src/sensor_data.c **** 			&(sd->h2o_target),
 179:src/sensor_data.c **** 			&(sd->temp_target),
 180:src/sensor_data.c **** 			(sd->ProductID)
 1052              		.loc 1 180 0
 1053 008c 7B6A     		ldr	r3, [r7, #36]
 1054 008e 7033     		adds	r3, r3, #112
 149:src/sensor_data.c **** 			save_file,
 1055              		.loc 1 149 0
 1056 0090 0C93     		str	r3, [sp, #48]
 1057 0092 0B92     		str	r2, [sp, #44]
 1058 0094 7A68     		ldr	r2, [r7, #4]
 1059 0096 0A92     		str	r2, [sp, #40]
 1060 0098 BB68     		ldr	r3, [r7, #8]
 1061 009a 0993     		str	r3, [sp, #36]
 1062 009c FA68     		ldr	r2, [r7, #12]
ARM GAS  C:\Users\tpbw4321\AppData\Local\Temp\cczUgNqJ.s 			page 24


 1063 009e 0892     		str	r2, [sp, #32]
 1064 00a0 3B69     		ldr	r3, [r7, #16]
 1065 00a2 0793     		str	r3, [sp, #28]
 1066 00a4 7A69     		ldr	r2, [r7, #20]
 1067 00a6 0692     		str	r2, [sp, #24]
 1068 00a8 BB69     		ldr	r3, [r7, #24]
 1069 00aa 0593     		str	r3, [sp, #20]
 1070 00ac 0496     		str	r6, [sp, #16]
 1071 00ae 0395     		str	r5, [sp, #12]
 1072 00b0 0294     		str	r4, [sp, #8]
 1073 00b2 0190     		str	r0, [sp, #4]
 1074 00b4 0091     		str	r1, [sp]
 1075 00b6 7346     		mov	r3, lr
 1076 00b8 FA69     		ldr	r2, [r7, #28]
 1077 00ba 0749     		ldr	r1, .L42+12
 1078 00bc F86A     		ldr	r0, [r7, #44]
 1079 00be FFF7FEFF 		bl	fscanf
 1080              	.L40:
 181:src/sensor_data.c **** 		);
 182:src/sensor_data.c **** 	}
 183:src/sensor_data.c **** 	return 0;
 1081              		.loc 1 183 0
 1082 00c2 0023     		movs	r3, #0
 184:src/sensor_data.c **** }
 1083              		.loc 1 184 0
 1084 00c4 1846     		mov	r0, r3
 1085 00c6 3437     		adds	r7, r7, #52
 1086              		.cfi_def_cfa_offset 20
 1087 00c8 BD46     		mov	sp, r7
 1088              		.cfi_def_cfa_register 13
 1089              		@ sp needed
 1090 00ca F0BD     		pop	{r4, r5, r6, r7, pc}
 1091              	.L43:
 1092              		.align	2
 1093              	.L42:
 1094 00cc D4000000 		.word	.LC15
 1095 00d0 D8000000 		.word	.LC16
 1096 00d4 E8000000 		.word	.LC17
 1097 00d8 04010000 		.word	.LC18
 1098              		.cfi_endproc
 1099              	.LFE6:
 1100              		.size	loadData, .-loadData
 1101              		.section	.rodata
 1102 01ea 0000     		.align	2
 1103              	.LC19:
 1104 01ec 7700     		.ascii	"w\000"
 1105              		.section	.text.saveData,"ax",%progbits
 1106              		.align	2
 1107              		.global	saveData
 1108              		.thumb
 1109              		.thumb_func
 1110              		.type	saveData, %function
 1111              	saveData:
 1112              	.LFB7:
 185:src/sensor_data.c **** 
 186:src/sensor_data.c **** int saveData(struct SensorData *sd, char *filename) {
 1113              		.loc 1 186 0
ARM GAS  C:\Users\tpbw4321\AppData\Local\Temp\cczUgNqJ.s 			page 25


 1114              		.cfi_startproc
 1115              		@ args = 0, pretend = 0, frame = 96
 1116              		@ frame_needed = 1, uses_anonymous_args = 0
 1117 0000 2DE9B04F 		push	{r4, r5, r7, r8, r9, r10, fp, lr}
 1118              		.cfi_def_cfa_offset 32
 1119              		.cfi_offset 4, -32
 1120              		.cfi_offset 5, -28
 1121              		.cfi_offset 7, -24
 1122              		.cfi_offset 8, -20
 1123              		.cfi_offset 9, -16
 1124              		.cfi_offset 10, -12
 1125              		.cfi_offset 11, -8
 1126              		.cfi_offset 14, -4
 1127 0004 B4B0     		sub	sp, sp, #208
 1128              		.cfi_def_cfa_offset 240
 1129 0006 1CAF     		add	r7, sp, #112
 1130              		.cfi_def_cfa 7, 128
 1131 0008 7865     		str	r0, [r7, #84]
 1132 000a 3965     		str	r1, [r7, #80]
 187:src/sensor_data.c **** 	FILE *save_file = fopen("save_data.dat", "w");
 1133              		.loc 1 187 0
 1134 000c 4449     		ldr	r1, .L48
 1135 000e 4548     		ldr	r0, .L48+4
 1136 0010 FFF7FEFF 		bl	fopen
 1137 0014 F865     		str	r0, [r7, #92]
 188:src/sensor_data.c **** 	if (!save_file) {
 1138              		.loc 1 188 0
 1139 0016 FB6D     		ldr	r3, [r7, #92]
 1140 0018 002B     		cmp	r3, #0
 1141 001a 06D1     		bne	.L45
 189:src/sensor_data.c **** 		printf("Error opening saved data.\n");
 1142              		.loc 1 189 0
 1143 001c 4248     		ldr	r0, .L48+8
 1144 001e FFF7FEFF 		bl	puts
 190:src/sensor_data.c **** 		setRandomData(sd);
 1145              		.loc 1 190 0
 1146 0022 786D     		ldr	r0, [r7, #84]
 1147 0024 FFF7FEFF 		bl	setRandomData
 1148 0028 73E0     		b	.L46
 1149              	.L45:
 191:src/sensor_data.c **** 	}
 192:src/sensor_data.c **** 	else {
 193:src/sensor_data.c **** 		fprintf(
 1150              		.loc 1 193 0
 1151 002a 7B6D     		ldr	r3, [r7, #84]
 1152 002c 18CB     		ldmia	r3, {r3-r4}
 1153 002e C7E91234 		strd	r3, [r7, #72]
 1154 0032 7B6D     		ldr	r3, [r7, #84]
 1155 0034 D3E90212 		ldrd	r1, [r3, #8]
 1156 0038 C7E91012 		strd	r1, [r7, #64]
 1157 003c 7B6D     		ldr	r3, [r7, #84]
 1158 003e D3E90401 		ldrd	r0, [r3, #16]
 1159 0042 C7E90E01 		strd	r0, [r7, #56]
 1160 0046 7B6D     		ldr	r3, [r7, #84]
 1161 0048 D3E90645 		ldrd	r4, [r3, #24]
 1162 004c C7E90C45 		strd	r4, [r7, #48]
 1163 0050 7B6D     		ldr	r3, [r7, #84]
ARM GAS  C:\Users\tpbw4321\AppData\Local\Temp\cczUgNqJ.s 			page 26


 1164 0052 D3E90889 		ldrd	r8, [r3, #32]
 1165 0056 C7E90A89 		strd	r8, [r7, #40]
 1166 005a 7B6D     		ldr	r3, [r7, #84]
 1167 005c D3E90A9A 		ldrd	r9, [r3, #40]
 1168 0060 C7E9089A 		strd	r9, [r7, #32]
 1169 0064 7B6D     		ldr	r3, [r7, #84]
 1170 0066 D3E90CAB 		ldrd	r10, [r3, #48]
 1171 006a C7E906AB 		strd	r10, [r7, #24]
 1172 006e 7B6D     		ldr	r3, [r7, #84]
 1173 0070 D3E90EBC 		ldrd	fp, [r3, #56]
 1174 0074 C7E904BC 		strd	fp, [r7, #16]
 1175 0078 7B6D     		ldr	r3, [r7, #84]
 1176 007a 03F14004 		add	r4, r3, #64
 1177 007e D4E90034 		ldrd	r3, [r4]
 1178 0082 C7E90234 		strd	r3, [r7, #8]
 1179 0086 7B6D     		ldr	r3, [r7, #84]
 1180 0088 D3E91223 		ldrd	r2, [r3, #72]
 1181 008c C7E90023 		strd	r2, [r7]
 1182 0090 7B6D     		ldr	r3, [r7, #84]
 1183 0092 D3E914AB 		ldrd	r10, [r3, #80]
 1184 0096 7B6D     		ldr	r3, [r7, #84]
 1185 0098 D3E91689 		ldrd	r8, [r3, #88]
 1186 009c 7B6D     		ldr	r3, [r7, #84]
 1187 009e D3E91845 		ldrd	r4, [r3, #96]
 1188 00a2 7B6D     		ldr	r3, [r7, #84]
 1189 00a4 D3E91A12 		ldrd	r1, [r3, #104]
 194:src/sensor_data.c **** 			save_file,
 195:src/sensor_data.c **** 			"h2o_level=%lf\n"
 196:src/sensor_data.c **** 			"h2o_stored=%lf\n"
 197:src/sensor_data.c **** 			"ph_level=%lf\n"
 198:src/sensor_data.c **** 			"ph_up_stored=%lf\n"
 199:src/sensor_data.c **** 			"ph_down_stored=%lf\n"
 200:src/sensor_data.c **** 			"ec_level=%lf\n"
 201:src/sensor_data.c **** 			"ec_stored=%lf\n"
 202:src/sensor_data.c **** 			"temp_measured=%lf\n"
 203:src/sensor_data.c **** 			"flow_measured=%lf\n"
 204:src/sensor_data.c **** 			"flow_target=%lf\n"
 205:src/sensor_data.c **** 			"ph_target=%lf\n"
 206:src/sensor_data.c **** 			"ec_target=%lf\n"
 207:src/sensor_data.c **** 			"h2o_target=%lf\n"
 208:src/sensor_data.c **** 			"temp_target=%lf\n"
 209:src/sensor_data.c **** 			"ProductID=%s\n",
 210:src/sensor_data.c **** 			sd->h2o_level,
 211:src/sensor_data.c **** 			sd->h2o_stored,
 212:src/sensor_data.c **** 			sd->ph_level,
 213:src/sensor_data.c **** 			sd->ph_up_stored,
 214:src/sensor_data.c **** 			sd->ph_down_stored,
 215:src/sensor_data.c **** 			sd->ec_level,
 216:src/sensor_data.c **** 			sd->ec_stored,
 217:src/sensor_data.c **** 			sd->temp_measured,
 218:src/sensor_data.c **** 			sd->flow_measured,
 219:src/sensor_data.c **** 			sd->flow_target,
 220:src/sensor_data.c **** 			sd->ph_target,
 221:src/sensor_data.c **** 			sd->ec_target,
 222:src/sensor_data.c **** 			sd->h2o_target,
 223:src/sensor_data.c **** 			sd->temp_target,
 224:src/sensor_data.c **** 			sd->ProductID
ARM GAS  C:\Users\tpbw4321\AppData\Local\Temp\cczUgNqJ.s 			page 27


 1190              		.loc 1 224 0
 1191 00a8 7B6D     		ldr	r3, [r7, #84]
 1192 00aa 7033     		adds	r3, r3, #112
 193:src/sensor_data.c **** 			save_file,
 1193              		.loc 1 193 0
 1194 00ac 1A93     		str	r3, [sp, #104]
 1195 00ae CDE91812 		strd	r1, [sp, #96]
 1196 00b2 CDE91645 		strd	r4, [sp, #88]
 1197 00b6 CDE91489 		strd	r8, [sp, #80]
 1198 00ba CDE912AB 		strd	r10, [sp, #72]
 1199 00be D7E90023 		ldrd	r2, [r7]
 1200 00c2 CDE91023 		strd	r2, [sp, #64]
 1201 00c6 D7E90234 		ldrd	r3, [r7, #8]
 1202 00ca CDE90E34 		strd	r3, [sp, #56]
 1203 00ce D7E904BC 		ldrd	fp, [r7, #16]
 1204 00d2 CDE90CBC 		strd	fp, [sp, #48]
 1205 00d6 D7E906AB 		ldrd	r10, [r7, #24]
 1206 00da CDE90AAB 		strd	r10, [sp, #40]
 1207 00de D7E9089A 		ldrd	r9, [r7, #32]
 1208 00e2 CDE9089A 		strd	r9, [sp, #32]
 1209 00e6 D7E90A89 		ldrd	r8, [r7, #40]
 1210 00ea CDE90689 		strd	r8, [sp, #24]
 1211 00ee D7E90C45 		ldrd	r4, [r7, #48]
 1212 00f2 CDE90445 		strd	r4, [sp, #16]
 1213 00f6 D7E90E01 		ldrd	r0, [r7, #56]
 1214 00fa CDE90201 		strd	r0, [sp, #8]
 1215 00fe D7E91012 		ldrd	r1, [r7, #64]
 1216 0102 CDE90012 		strd	r1, [sp]
 1217 0106 D7E91223 		ldrd	r2, [r7, #72]
 1218 010a 0849     		ldr	r1, .L48+12
 1219 010c F86D     		ldr	r0, [r7, #92]
 1220 010e FFF7FEFF 		bl	fprintf
 1221              	.L46:
 225:src/sensor_data.c **** 		);
 226:src/sensor_data.c **** 	}
 227:src/sensor_data.c **** 	return 0;
 1222              		.loc 1 227 0
 1223 0112 0023     		movs	r3, #0
 228:src/sensor_data.c **** }
 1224              		.loc 1 228 0
 1225 0114 1846     		mov	r0, r3
 1226 0116 6037     		adds	r7, r7, #96
 1227              		.cfi_def_cfa_offset 32
 1228 0118 BD46     		mov	sp, r7
 1229              		.cfi_def_cfa_register 13
 1230              		@ sp needed
 1231 011a BDE8B08F 		pop	{r4, r5, r7, r8, r9, r10, fp, pc}
 1232              	.L49:
 1233 011e 00BF     		.align	2
 1234              	.L48:
 1235 0120 EC010000 		.word	.LC19
 1236 0124 D8000000 		.word	.LC16
 1237 0128 E8000000 		.word	.LC17
 1238 012c 04010000 		.word	.LC18
 1239              		.cfi_endproc
 1240              	.LFE7:
 1241              		.size	saveData, .-saveData
ARM GAS  C:\Users\tpbw4321\AppData\Local\Temp\cczUgNqJ.s 			page 28


 1242              		.section	.rodata
 1243 01ee 0000     		.align	2
 1244              	.LC20:
 1245 01f0 68326F5F 		.ascii	"h2o_level=%f&h2o_stored=%f&ph_level=%f&ph_up_stored"
 1245      6C657665 
 1245      6C3D2566 
 1245      2668326F 
 1245      5F73746F 
 1246 0223 3D256626 		.ascii	"=%f&ph_down_stored=%f&ec_level=%f&ec_stored=%f&temp"
 1246      70685F64 
 1246      6F776E5F 
 1246      73746F72 
 1246      65643D25 
 1247 0256 5F6D6561 		.ascii	"_measured=%f&flow_measured=%f&flow_target=%f&ph_tar"
 1247      73757265 
 1247      643D2566 
 1247      26666C6F 
 1247      775F6D65 
 1248 0289 6765743D 		.ascii	"get=%f&ec_target=%f&h2o_target=%f&temp_target=%f&Pr"
 1248      25662665 
 1248      635F7461 
 1248      72676574 
 1248      3D256626 
 1249 02bc 6F647563 		.ascii	"oductID=%s&\000"
 1249      7449443D 
 1249      25732600 
 1250              		.section	.text.getGETstr,"ax",%progbits
 1251              		.align	2
 1252              		.global	getGETstr
 1253              		.thumb
 1254              		.thumb_func
 1255              		.type	getGETstr, %function
 1256              	getGETstr:
 1257              	.LFB8:
 229:src/sensor_data.c **** 
 230:src/sensor_data.c **** //Gets a string of data.
 231:src/sensor_data.c **** void getGETstr(char *buf, struct SensorData *sd) {
 1258              		.loc 1 231 0
 1259              		.cfi_startproc
 1260              		@ args = 0, pretend = 0, frame = 88
 1261              		@ frame_needed = 1, uses_anonymous_args = 0
 1262 0000 2DE9B04F 		push	{r4, r5, r7, r8, r9, r10, fp, lr}
 1263              		.cfi_def_cfa_offset 32
 1264              		.cfi_offset 4, -32
 1265              		.cfi_offset 5, -28
 1266              		.cfi_offset 7, -24
 1267              		.cfi_offset 8, -20
 1268              		.cfi_offset 9, -16
 1269              		.cfi_offset 10, -12
 1270              		.cfi_offset 11, -8
 1271              		.cfi_offset 14, -4
 1272 0004 B2B0     		sub	sp, sp, #200
 1273              		.cfi_def_cfa_offset 232
 1274 0006 1CAF     		add	r7, sp, #112
 1275              		.cfi_def_cfa 7, 120
 1276 0008 7865     		str	r0, [r7, #84]
 1277 000a 3965     		str	r1, [r7, #80]
ARM GAS  C:\Users\tpbw4321\AppData\Local\Temp\cczUgNqJ.s 			page 29


 232:src/sensor_data.c **** 	sprintf(
 1278              		.loc 1 232 0
 1279 000c 3B6D     		ldr	r3, [r7, #80]
 1280 000e 18CB     		ldmia	r3, {r3-r4}
 1281 0010 C7E91234 		strd	r3, [r7, #72]
 1282 0014 3B6D     		ldr	r3, [r7, #80]
 1283 0016 D3E90212 		ldrd	r1, [r3, #8]
 1284 001a C7E91012 		strd	r1, [r7, #64]
 1285 001e 3B6D     		ldr	r3, [r7, #80]
 1286 0020 D3E90401 		ldrd	r0, [r3, #16]
 1287 0024 C7E90E01 		strd	r0, [r7, #56]
 1288 0028 3B6D     		ldr	r3, [r7, #80]
 1289 002a D3E90645 		ldrd	r4, [r3, #24]
 1290 002e C7E90C45 		strd	r4, [r7, #48]
 1291 0032 3B6D     		ldr	r3, [r7, #80]
 1292 0034 D3E90889 		ldrd	r8, [r3, #32]
 1293 0038 C7E90A89 		strd	r8, [r7, #40]
 1294 003c 3B6D     		ldr	r3, [r7, #80]
 1295 003e D3E90A9A 		ldrd	r9, [r3, #40]
 1296 0042 C7E9089A 		strd	r9, [r7, #32]
 1297 0046 3B6D     		ldr	r3, [r7, #80]
 1298 0048 D3E90CAB 		ldrd	r10, [r3, #48]
 1299 004c C7E906AB 		strd	r10, [r7, #24]
 1300 0050 3B6D     		ldr	r3, [r7, #80]
 1301 0052 D3E90EBC 		ldrd	fp, [r3, #56]
 1302 0056 C7E904BC 		strd	fp, [r7, #16]
 1303 005a 3B6D     		ldr	r3, [r7, #80]
 1304 005c 03F14004 		add	r4, r3, #64
 1305 0060 D4E90034 		ldrd	r3, [r4]
 1306 0064 C7E90234 		strd	r3, [r7, #8]
 1307 0068 3B6D     		ldr	r3, [r7, #80]
 1308 006a D3E91223 		ldrd	r2, [r3, #72]
 1309 006e C7E90023 		strd	r2, [r7]
 1310 0072 3B6D     		ldr	r3, [r7, #80]
 1311 0074 D3E914AB 		ldrd	r10, [r3, #80]
 1312 0078 3B6D     		ldr	r3, [r7, #80]
 1313 007a D3E91689 		ldrd	r8, [r3, #88]
 1314 007e 3B6D     		ldr	r3, [r7, #80]
 1315 0080 D3E91845 		ldrd	r4, [r3, #96]
 1316 0084 3B6D     		ldr	r3, [r7, #80]
 1317 0086 D3E91A12 		ldrd	r1, [r3, #104]
 233:src/sensor_data.c **** 		buf,
 234:src/sensor_data.c **** 		"h2o_level=%f&"
 235:src/sensor_data.c **** 		"h2o_stored=%f&"
 236:src/sensor_data.c **** 		"ph_level=%f&"
 237:src/sensor_data.c **** 		"ph_up_stored=%f&"
 238:src/sensor_data.c **** 		"ph_down_stored=%f&"
 239:src/sensor_data.c **** 		"ec_level=%f&"
 240:src/sensor_data.c **** 		"ec_stored=%f&"
 241:src/sensor_data.c **** 		"temp_measured=%f&"
 242:src/sensor_data.c **** 		"flow_measured=%f&"
 243:src/sensor_data.c **** 		"flow_target=%f&"
 244:src/sensor_data.c **** 		"ph_target=%f&"
 245:src/sensor_data.c **** 		"ec_target=%f&"
 246:src/sensor_data.c **** 		"h2o_target=%f&"
 247:src/sensor_data.c **** 		"temp_target=%f&"
 248:src/sensor_data.c **** 		"ProductID=%s&"
ARM GAS  C:\Users\tpbw4321\AppData\Local\Temp\cczUgNqJ.s 			page 30


 249:src/sensor_data.c **** 		"",
 250:src/sensor_data.c **** 		sd->h2o_level,
 251:src/sensor_data.c **** 		sd->h2o_stored,
 252:src/sensor_data.c **** 		sd->ph_level,
 253:src/sensor_data.c **** 		sd->ph_up_stored,
 254:src/sensor_data.c **** 		sd->ph_down_stored,
 255:src/sensor_data.c **** 		sd->ec_level,
 256:src/sensor_data.c **** 		sd->ec_stored,
 257:src/sensor_data.c **** 		sd->temp_measured,
 258:src/sensor_data.c **** 		sd->flow_measured,
 259:src/sensor_data.c **** 		sd->flow_target,
 260:src/sensor_data.c **** 		sd->ph_target,
 261:src/sensor_data.c **** 		sd->ec_target,
 262:src/sensor_data.c **** 		sd->h2o_target,
 263:src/sensor_data.c **** 		sd->temp_target,
 264:src/sensor_data.c **** 		sd->ProductID
 1318              		.loc 1 264 0
 1319 008a 3B6D     		ldr	r3, [r7, #80]
 1320 008c 7033     		adds	r3, r3, #112
 232:src/sensor_data.c **** 	sprintf(
 1321              		.loc 1 232 0
 1322 008e 1A93     		str	r3, [sp, #104]
 1323 0090 CDE91812 		strd	r1, [sp, #96]
 1324 0094 CDE91645 		strd	r4, [sp, #88]
 1325 0098 CDE91489 		strd	r8, [sp, #80]
 1326 009c CDE912AB 		strd	r10, [sp, #72]
 1327 00a0 D7E90023 		ldrd	r2, [r7]
 1328 00a4 CDE91023 		strd	r2, [sp, #64]
 1329 00a8 D7E90234 		ldrd	r3, [r7, #8]
 1330 00ac CDE90E34 		strd	r3, [sp, #56]
 1331 00b0 D7E904BC 		ldrd	fp, [r7, #16]
 1332 00b4 CDE90CBC 		strd	fp, [sp, #48]
 1333 00b8 D7E906AB 		ldrd	r10, [r7, #24]
 1334 00bc CDE90AAB 		strd	r10, [sp, #40]
 1335 00c0 D7E9089A 		ldrd	r9, [r7, #32]
 1336 00c4 CDE9089A 		strd	r9, [sp, #32]
 1337 00c8 D7E90A89 		ldrd	r8, [r7, #40]
 1338 00cc CDE90689 		strd	r8, [sp, #24]
 1339 00d0 D7E90C45 		ldrd	r4, [r7, #48]
 1340 00d4 CDE90445 		strd	r4, [sp, #16]
 1341 00d8 D7E90E01 		ldrd	r0, [r7, #56]
 1342 00dc CDE90201 		strd	r0, [sp, #8]
 1343 00e0 D7E91012 		ldrd	r1, [r7, #64]
 1344 00e4 CDE90012 		strd	r1, [sp]
 1345 00e8 D7E91223 		ldrd	r2, [r7, #72]
 1346 00ec 0449     		ldr	r1, .L51
 1347 00ee 786D     		ldr	r0, [r7, #84]
 1348 00f0 FFF7FEFF 		bl	sprintf
 265:src/sensor_data.c **** 	);
 266:src/sensor_data.c **** }
 1349              		.loc 1 266 0
 1350 00f4 00BF     		nop
 1351 00f6 5837     		adds	r7, r7, #88
 1352              		.cfi_def_cfa_offset 32
 1353 00f8 BD46     		mov	sp, r7
 1354              		.cfi_def_cfa_register 13
 1355              		@ sp needed
ARM GAS  C:\Users\tpbw4321\AppData\Local\Temp\cczUgNqJ.s 			page 31


 1356 00fa BDE8B08F 		pop	{r4, r5, r7, r8, r9, r10, fp, pc}
 1357              	.L52:
 1358 00fe 00BF     		.align	2
 1359              	.L51:
 1360 0100 F0010000 		.word	.LC20
 1361              		.cfi_endproc
 1362              	.LFE8:
 1363              		.size	getGETstr, .-getGETstr
 1364              		.text
 1365              	.Letext0:
 1366              		.file 2 ".\\include/Protocol.h"
 1367              		.file 3 ".\\include/sensor_data.h"
 1368              		.file 4 "c:\\program files (x86)\\cypress\\psoc creator\\4.2\\psoc creator\\import\\gnu\\arm\\5.4.
 1369              		.file 5 "c:\\program files (x86)\\cypress\\psoc creator\\4.2\\psoc creator\\import\\gnu\\arm\\5.4.
 1370              		.file 6 "c:\\program files (x86)\\cypress\\psoc creator\\4.2\\psoc creator\\import\\gnu\\arm\\5.4.
 1371              		.file 7 "c:\\program files (x86)\\cypress\\psoc creator\\4.2\\psoc creator\\import\\gnu\\arm\\5.4.
 1372              		.file 8 "c:\\program files (x86)\\cypress\\psoc creator\\4.2\\psoc creator\\import\\gnu\\arm\\5.4.
 1373              		.file 9 "c:\\program files (x86)\\cypress\\psoc creator\\4.2\\psoc creator\\import\\gnu\\arm\\5.4.