ARM GAS  C:\Users\tpbw4321\AppData\Local\Temp\ccxyUSIv.s 			page 1


   1              		.syntax unified
   2              		.cpu cortex-m3
   3              		.fpu softvfp
   4              		.eabi_attribute 20, 1
   5              		.eabi_attribute 21, 1
   6              		.eabi_attribute 23, 3
   7              		.eabi_attribute 24, 1
   8              		.eabi_attribute 25, 1
   9              		.eabi_attribute 26, 1
  10              		.eabi_attribute 30, 6
  11              		.eabi_attribute 34, 1
  12              		.eabi_attribute 18, 4
  13              		.thumb
  14              		.syntax unified
  15              		.file	"SensorDataComTimer.c"
  16              		.text
  17              	.Ltext0:
  18              		.cfi_sections	.debug_frame
  19              		.global	SensorDataComTimer_initVar
  20              		.bss
  21              		.type	SensorDataComTimer_initVar, %object
  22              		.size	SensorDataComTimer_initVar, 1
  23              	SensorDataComTimer_initVar:
  24 0000 00       		.space	1
  25              		.section	.text.SensorDataComTimer_Init,"ax",%progbits
  26              		.align	2
  27              		.global	SensorDataComTimer_Init
  28              		.thumb
  29              		.thumb_func
  30              		.type	SensorDataComTimer_Init, %function
  31              	SensorDataComTimer_Init:
  32              	.LFB0:
  33              		.file 1 "Generated_Source\\PSoC5\\SensorDataComTimer.c"
   1:Generated_Source\PSoC5/SensorDataComTimer.c **** /*******************************************************************************
   2:Generated_Source\PSoC5/SensorDataComTimer.c **** * File Name: SensorDataComTimer.c
   3:Generated_Source\PSoC5/SensorDataComTimer.c **** * Version 2.80
   4:Generated_Source\PSoC5/SensorDataComTimer.c **** *
   5:Generated_Source\PSoC5/SensorDataComTimer.c **** * Description:
   6:Generated_Source\PSoC5/SensorDataComTimer.c **** *  The Timer component consists of a 8, 16, 24 or 32-bit timer with
   7:Generated_Source\PSoC5/SensorDataComTimer.c **** *  a selectable period between 2 and 2^Width - 1.  The timer may free run
   8:Generated_Source\PSoC5/SensorDataComTimer.c **** *  or be used as a capture timer as well.  The capture can be initiated
   9:Generated_Source\PSoC5/SensorDataComTimer.c **** *  by a positive or negative edge signal as well as via software.
  10:Generated_Source\PSoC5/SensorDataComTimer.c **** *  A trigger input can be programmed to enable the timer on rising edge
  11:Generated_Source\PSoC5/SensorDataComTimer.c **** *  falling edge, either edge or continous run.
  12:Generated_Source\PSoC5/SensorDataComTimer.c **** *  Interrupts may be generated due to a terminal count condition
  13:Generated_Source\PSoC5/SensorDataComTimer.c **** *  or a capture event.
  14:Generated_Source\PSoC5/SensorDataComTimer.c **** *
  15:Generated_Source\PSoC5/SensorDataComTimer.c **** * Note:
  16:Generated_Source\PSoC5/SensorDataComTimer.c **** *
  17:Generated_Source\PSoC5/SensorDataComTimer.c **** ********************************************************************************
  18:Generated_Source\PSoC5/SensorDataComTimer.c **** * Copyright 2008-2017, Cypress Semiconductor Corporation.  All rights reserved.
  19:Generated_Source\PSoC5/SensorDataComTimer.c **** * You may use this file only in accordance with the license, terms, conditions,
  20:Generated_Source\PSoC5/SensorDataComTimer.c **** * disclaimers, and limitations in the end user license agreement accompanying
  21:Generated_Source\PSoC5/SensorDataComTimer.c **** * the software package with which this file was provided.
  22:Generated_Source\PSoC5/SensorDataComTimer.c **** ********************************************************************************/
  23:Generated_Source\PSoC5/SensorDataComTimer.c **** 
  24:Generated_Source\PSoC5/SensorDataComTimer.c **** #include "SensorDataComTimer.h"
ARM GAS  C:\Users\tpbw4321\AppData\Local\Temp\ccxyUSIv.s 			page 2


  25:Generated_Source\PSoC5/SensorDataComTimer.c **** 
  26:Generated_Source\PSoC5/SensorDataComTimer.c **** uint8 SensorDataComTimer_initVar = 0u;
  27:Generated_Source\PSoC5/SensorDataComTimer.c **** 
  28:Generated_Source\PSoC5/SensorDataComTimer.c **** 
  29:Generated_Source\PSoC5/SensorDataComTimer.c **** /*******************************************************************************
  30:Generated_Source\PSoC5/SensorDataComTimer.c **** * Function Name: SensorDataComTimer_Init
  31:Generated_Source\PSoC5/SensorDataComTimer.c **** ********************************************************************************
  32:Generated_Source\PSoC5/SensorDataComTimer.c **** *
  33:Generated_Source\PSoC5/SensorDataComTimer.c **** * Summary:
  34:Generated_Source\PSoC5/SensorDataComTimer.c **** *  Initialize to the schematic state
  35:Generated_Source\PSoC5/SensorDataComTimer.c **** *
  36:Generated_Source\PSoC5/SensorDataComTimer.c **** * Parameters:
  37:Generated_Source\PSoC5/SensorDataComTimer.c **** *  void
  38:Generated_Source\PSoC5/SensorDataComTimer.c **** *
  39:Generated_Source\PSoC5/SensorDataComTimer.c **** * Return:
  40:Generated_Source\PSoC5/SensorDataComTimer.c **** *  void
  41:Generated_Source\PSoC5/SensorDataComTimer.c **** *
  42:Generated_Source\PSoC5/SensorDataComTimer.c **** *******************************************************************************/
  43:Generated_Source\PSoC5/SensorDataComTimer.c **** void SensorDataComTimer_Init(void) 
  44:Generated_Source\PSoC5/SensorDataComTimer.c **** {
  34              		.loc 1 44 0
  35              		.cfi_startproc
  36              		@ args = 0, pretend = 0, frame = 8
  37              		@ frame_needed = 1, uses_anonymous_args = 0
  38 0000 80B5     		push	{r7, lr}
  39              		.cfi_def_cfa_offset 8
  40              		.cfi_offset 7, -8
  41              		.cfi_offset 14, -4
  42 0002 82B0     		sub	sp, sp, #8
  43              		.cfi_def_cfa_offset 16
  44 0004 00AF     		add	r7, sp, #0
  45              		.cfi_def_cfa_register 7
  45:Generated_Source\PSoC5/SensorDataComTimer.c ****     #if(!SensorDataComTimer_UsingFixedFunction)
  46:Generated_Source\PSoC5/SensorDataComTimer.c ****             /* Interrupt State Backup for Critical Region*/
  47:Generated_Source\PSoC5/SensorDataComTimer.c ****             uint8 SensorDataComTimer_interruptState;
  48:Generated_Source\PSoC5/SensorDataComTimer.c ****     #endif /* Interrupt state back up for Fixed Function only */
  49:Generated_Source\PSoC5/SensorDataComTimer.c **** 
  50:Generated_Source\PSoC5/SensorDataComTimer.c ****     #if (SensorDataComTimer_UsingFixedFunction)
  51:Generated_Source\PSoC5/SensorDataComTimer.c ****         /* Clear all bits but the enable bit (if it's already set) for Timer operation */
  52:Generated_Source\PSoC5/SensorDataComTimer.c ****         SensorDataComTimer_CONTROL &= SensorDataComTimer_CTRL_ENABLE;
  53:Generated_Source\PSoC5/SensorDataComTimer.c **** 
  54:Generated_Source\PSoC5/SensorDataComTimer.c ****         /* Clear the mode bits for continuous run mode */
  55:Generated_Source\PSoC5/SensorDataComTimer.c ****         #if (CY_PSOC5A)
  56:Generated_Source\PSoC5/SensorDataComTimer.c ****             SensorDataComTimer_CONTROL2 &= ((uint8)(~SensorDataComTimer_CTRL_MODE_MASK));
  57:Generated_Source\PSoC5/SensorDataComTimer.c ****         #endif /* Clear bits in CONTROL2 only in PSOC5A */
  58:Generated_Source\PSoC5/SensorDataComTimer.c **** 
  59:Generated_Source\PSoC5/SensorDataComTimer.c ****         #if (CY_PSOC3 || CY_PSOC5LP)
  60:Generated_Source\PSoC5/SensorDataComTimer.c ****             SensorDataComTimer_CONTROL3 &= ((uint8)(~SensorDataComTimer_CTRL_MODE_MASK));
  61:Generated_Source\PSoC5/SensorDataComTimer.c ****         #endif /* CONTROL3 register exists only in PSoC3 OR PSoC5LP */
  62:Generated_Source\PSoC5/SensorDataComTimer.c **** 
  63:Generated_Source\PSoC5/SensorDataComTimer.c ****         /* Check if One Shot mode is enabled i.e. RunMode !=0*/
  64:Generated_Source\PSoC5/SensorDataComTimer.c ****         #if (SensorDataComTimer_RunModeUsed != 0x0u)
  65:Generated_Source\PSoC5/SensorDataComTimer.c ****             /* Set 3rd bit of Control register to enable one shot mode */
  66:Generated_Source\PSoC5/SensorDataComTimer.c ****             SensorDataComTimer_CONTROL |= 0x04u;
  67:Generated_Source\PSoC5/SensorDataComTimer.c ****         #endif /* One Shot enabled only when RunModeUsed is not Continuous*/
  68:Generated_Source\PSoC5/SensorDataComTimer.c **** 
  69:Generated_Source\PSoC5/SensorDataComTimer.c ****         #if (SensorDataComTimer_RunModeUsed == 2)
ARM GAS  C:\Users\tpbw4321\AppData\Local\Temp\ccxyUSIv.s 			page 3


  70:Generated_Source\PSoC5/SensorDataComTimer.c ****             #if (CY_PSOC5A)
  71:Generated_Source\PSoC5/SensorDataComTimer.c ****                 /* Set last 2 bits of control2 register if one shot(halt on
  72:Generated_Source\PSoC5/SensorDataComTimer.c ****                 interrupt) is enabled*/
  73:Generated_Source\PSoC5/SensorDataComTimer.c ****                 SensorDataComTimer_CONTROL2 |= 0x03u;
  74:Generated_Source\PSoC5/SensorDataComTimer.c ****             #endif /* Set One-Shot Halt on Interrupt bit in CONTROL2 for PSoC5A */
  75:Generated_Source\PSoC5/SensorDataComTimer.c **** 
  76:Generated_Source\PSoC5/SensorDataComTimer.c ****             #if (CY_PSOC3 || CY_PSOC5LP)
  77:Generated_Source\PSoC5/SensorDataComTimer.c ****                 /* Set last 2 bits of control3 register if one shot(halt on
  78:Generated_Source\PSoC5/SensorDataComTimer.c ****                 interrupt) is enabled*/
  79:Generated_Source\PSoC5/SensorDataComTimer.c ****                 SensorDataComTimer_CONTROL3 |= 0x03u;
  80:Generated_Source\PSoC5/SensorDataComTimer.c ****             #endif /* Set One-Shot Halt on Interrupt bit in CONTROL3 for PSoC3 or PSoC5LP */
  81:Generated_Source\PSoC5/SensorDataComTimer.c **** 
  82:Generated_Source\PSoC5/SensorDataComTimer.c ****         #endif /* Remove section if One Shot Halt on Interrupt is not enabled */
  83:Generated_Source\PSoC5/SensorDataComTimer.c **** 
  84:Generated_Source\PSoC5/SensorDataComTimer.c ****         #if (SensorDataComTimer_UsingHWEnable != 0)
  85:Generated_Source\PSoC5/SensorDataComTimer.c ****             #if (CY_PSOC5A)
  86:Generated_Source\PSoC5/SensorDataComTimer.c ****                 /* Set the default Run Mode of the Timer to Continuous */
  87:Generated_Source\PSoC5/SensorDataComTimer.c ****                 SensorDataComTimer_CONTROL2 |= SensorDataComTimer_CTRL_MODE_PULSEWIDTH;
  88:Generated_Source\PSoC5/SensorDataComTimer.c ****             #endif /* Set Continuous Run Mode in CONTROL2 for PSoC5A */
  89:Generated_Source\PSoC5/SensorDataComTimer.c **** 
  90:Generated_Source\PSoC5/SensorDataComTimer.c ****             #if (CY_PSOC3 || CY_PSOC5LP)
  91:Generated_Source\PSoC5/SensorDataComTimer.c ****                 /* Clear and Set ROD and COD bits of CFG2 register */
  92:Generated_Source\PSoC5/SensorDataComTimer.c ****                 SensorDataComTimer_CONTROL3 &= ((uint8)(~SensorDataComTimer_CTRL_RCOD_MASK));
  93:Generated_Source\PSoC5/SensorDataComTimer.c ****                 SensorDataComTimer_CONTROL3 |= SensorDataComTimer_CTRL_RCOD;
  94:Generated_Source\PSoC5/SensorDataComTimer.c **** 
  95:Generated_Source\PSoC5/SensorDataComTimer.c ****                 /* Clear and Enable the HW enable bit in CFG2 register */
  96:Generated_Source\PSoC5/SensorDataComTimer.c ****                 SensorDataComTimer_CONTROL3 &= ((uint8)(~SensorDataComTimer_CTRL_ENBL_MASK));
  97:Generated_Source\PSoC5/SensorDataComTimer.c ****                 SensorDataComTimer_CONTROL3 |= SensorDataComTimer_CTRL_ENBL;
  98:Generated_Source\PSoC5/SensorDataComTimer.c **** 
  99:Generated_Source\PSoC5/SensorDataComTimer.c ****                 /* Set the default Run Mode of the Timer to Continuous */
 100:Generated_Source\PSoC5/SensorDataComTimer.c ****                 SensorDataComTimer_CONTROL3 |= SensorDataComTimer_CTRL_MODE_CONTINUOUS;
 101:Generated_Source\PSoC5/SensorDataComTimer.c ****             #endif /* Set Continuous Run Mode in CONTROL3 for PSoC3ES3 or PSoC5A */
 102:Generated_Source\PSoC5/SensorDataComTimer.c **** 
 103:Generated_Source\PSoC5/SensorDataComTimer.c ****         #endif /* Configure Run Mode with hardware enable */
 104:Generated_Source\PSoC5/SensorDataComTimer.c **** 
 105:Generated_Source\PSoC5/SensorDataComTimer.c ****         /* Clear and Set SYNCTC and SYNCCMP bits of RT1 register */
 106:Generated_Source\PSoC5/SensorDataComTimer.c ****         SensorDataComTimer_RT1 &= ((uint8)(~SensorDataComTimer_RT1_MASK));
 107:Generated_Source\PSoC5/SensorDataComTimer.c ****         SensorDataComTimer_RT1 |= SensorDataComTimer_SYNC;
 108:Generated_Source\PSoC5/SensorDataComTimer.c **** 
 109:Generated_Source\PSoC5/SensorDataComTimer.c ****         /*Enable DSI Sync all all inputs of the Timer*/
 110:Generated_Source\PSoC5/SensorDataComTimer.c ****         SensorDataComTimer_RT1 &= ((uint8)(~SensorDataComTimer_SYNCDSI_MASK));
 111:Generated_Source\PSoC5/SensorDataComTimer.c ****         SensorDataComTimer_RT1 |= SensorDataComTimer_SYNCDSI_EN;
 112:Generated_Source\PSoC5/SensorDataComTimer.c **** 
 113:Generated_Source\PSoC5/SensorDataComTimer.c ****         /* Set the IRQ to use the status register interrupts */
 114:Generated_Source\PSoC5/SensorDataComTimer.c ****         SensorDataComTimer_CONTROL2 |= SensorDataComTimer_CTRL2_IRQ_SEL;
 115:Generated_Source\PSoC5/SensorDataComTimer.c ****     #endif /* Configuring registers of fixed function implementation */
 116:Generated_Source\PSoC5/SensorDataComTimer.c **** 
 117:Generated_Source\PSoC5/SensorDataComTimer.c ****     /* Set Initial values from Configuration */
 118:Generated_Source\PSoC5/SensorDataComTimer.c ****     SensorDataComTimer_WritePeriod(SensorDataComTimer_INIT_PERIOD);
  46              		.loc 1 118 0
  47 0006 44F61F60 		movw	r0, #19999
  48 000a FFF7FEFF 		bl	SensorDataComTimer_WritePeriod
 119:Generated_Source\PSoC5/SensorDataComTimer.c ****     SensorDataComTimer_WriteCounter(SensorDataComTimer_INIT_PERIOD);
  49              		.loc 1 119 0
  50 000e 44F61F60 		movw	r0, #19999
  51 0012 FFF7FEFF 		bl	SensorDataComTimer_WriteCounter
 120:Generated_Source\PSoC5/SensorDataComTimer.c **** 
ARM GAS  C:\Users\tpbw4321\AppData\Local\Temp\ccxyUSIv.s 			page 4


 121:Generated_Source\PSoC5/SensorDataComTimer.c ****     #if (SensorDataComTimer_UsingHWCaptureCounter)/* Capture counter is enabled */
 122:Generated_Source\PSoC5/SensorDataComTimer.c ****         SensorDataComTimer_CAPTURE_COUNT_CTRL |= SensorDataComTimer_CNTR_ENABLE;
 123:Generated_Source\PSoC5/SensorDataComTimer.c ****         SensorDataComTimer_SetCaptureCount(SensorDataComTimer_INIT_CAPTURE_COUNT);
 124:Generated_Source\PSoC5/SensorDataComTimer.c ****     #endif /* Configure capture counter value */
 125:Generated_Source\PSoC5/SensorDataComTimer.c **** 
 126:Generated_Source\PSoC5/SensorDataComTimer.c ****     #if (!SensorDataComTimer_UsingFixedFunction)
 127:Generated_Source\PSoC5/SensorDataComTimer.c ****         #if (SensorDataComTimer_SoftwareCaptureMode)
 128:Generated_Source\PSoC5/SensorDataComTimer.c ****             SensorDataComTimer_SetCaptureMode(SensorDataComTimer_INIT_CAPTURE_MODE);
 129:Generated_Source\PSoC5/SensorDataComTimer.c ****         #endif /* Set Capture Mode for UDB implementation if capture mode is software controlled */
 130:Generated_Source\PSoC5/SensorDataComTimer.c **** 
 131:Generated_Source\PSoC5/SensorDataComTimer.c ****         #if (SensorDataComTimer_SoftwareTriggerMode)
 132:Generated_Source\PSoC5/SensorDataComTimer.c ****             #if (!SensorDataComTimer_UDB_CONTROL_REG_REMOVED)
 133:Generated_Source\PSoC5/SensorDataComTimer.c ****                 if (0u == (SensorDataComTimer_CONTROL & SensorDataComTimer__B_TIMER__TM_SOFTWARE))
 134:Generated_Source\PSoC5/SensorDataComTimer.c ****                 {
 135:Generated_Source\PSoC5/SensorDataComTimer.c ****                     SensorDataComTimer_SetTriggerMode(SensorDataComTimer_INIT_TRIGGER_MODE);
 136:Generated_Source\PSoC5/SensorDataComTimer.c ****                 }
 137:Generated_Source\PSoC5/SensorDataComTimer.c ****             #endif /* (!SensorDataComTimer_UDB_CONTROL_REG_REMOVED) */
 138:Generated_Source\PSoC5/SensorDataComTimer.c ****         #endif /* Set trigger mode for UDB Implementation if trigger mode is software controlled */
 139:Generated_Source\PSoC5/SensorDataComTimer.c **** 
 140:Generated_Source\PSoC5/SensorDataComTimer.c ****         /* CyEnterCriticalRegion and CyExitCriticalRegion are used to mark following region critica
 141:Generated_Source\PSoC5/SensorDataComTimer.c ****         /* Enter Critical Region*/
 142:Generated_Source\PSoC5/SensorDataComTimer.c ****         SensorDataComTimer_interruptState = CyEnterCriticalSection();
  52              		.loc 1 142 0
  53 0016 FFF7FEFF 		bl	CyEnterCriticalSection
  54 001a 0346     		mov	r3, r0
  55 001c FB71     		strb	r3, [r7, #7]
 143:Generated_Source\PSoC5/SensorDataComTimer.c **** 
 144:Generated_Source\PSoC5/SensorDataComTimer.c ****         /* Use the interrupt output of the status register for IRQ output */
 145:Generated_Source\PSoC5/SensorDataComTimer.c ****         SensorDataComTimer_STATUS_AUX_CTRL |= SensorDataComTimer_STATUS_ACTL_INT_EN_MASK;
  56              		.loc 1 145 0
  57 001e 0A4A     		ldr	r2, .L2
  58 0020 094B     		ldr	r3, .L2
  59 0022 1B78     		ldrb	r3, [r3]
  60 0024 DBB2     		uxtb	r3, r3
  61 0026 43F01003 		orr	r3, r3, #16
  62 002a DBB2     		uxtb	r3, r3
  63 002c 1370     		strb	r3, [r2]
 146:Generated_Source\PSoC5/SensorDataComTimer.c **** 
 147:Generated_Source\PSoC5/SensorDataComTimer.c ****         /* Exit Critical Region*/
 148:Generated_Source\PSoC5/SensorDataComTimer.c ****         CyExitCriticalSection(SensorDataComTimer_interruptState);
  64              		.loc 1 148 0
  65 002e FB79     		ldrb	r3, [r7, #7]	@ zero_extendqisi2
  66 0030 1846     		mov	r0, r3
  67 0032 FFF7FEFF 		bl	CyExitCriticalSection
 149:Generated_Source\PSoC5/SensorDataComTimer.c **** 
 150:Generated_Source\PSoC5/SensorDataComTimer.c ****         #if (SensorDataComTimer_EnableTriggerMode)
 151:Generated_Source\PSoC5/SensorDataComTimer.c ****             SensorDataComTimer_EnableTrigger();
 152:Generated_Source\PSoC5/SensorDataComTimer.c ****         #endif /* Set Trigger enable bit for UDB implementation in the control register*/
 153:Generated_Source\PSoC5/SensorDataComTimer.c **** 		
 154:Generated_Source\PSoC5/SensorDataComTimer.c **** 		
 155:Generated_Source\PSoC5/SensorDataComTimer.c ****         #if (SensorDataComTimer_InterruptOnCaptureCount && !SensorDataComTimer_UDB_CONTROL_REG_REMO
 156:Generated_Source\PSoC5/SensorDataComTimer.c ****             SensorDataComTimer_SetInterruptCount(SensorDataComTimer_INIT_INT_CAPTURE_COUNT);
 157:Generated_Source\PSoC5/SensorDataComTimer.c ****         #endif /* Set interrupt count in UDB implementation if interrupt count feature is checked.*
 158:Generated_Source\PSoC5/SensorDataComTimer.c **** 
 159:Generated_Source\PSoC5/SensorDataComTimer.c ****         SensorDataComTimer_ClearFIFO();
  68              		.loc 1 159 0
  69 0036 FFF7FEFF 		bl	SensorDataComTimer_ClearFIFO
ARM GAS  C:\Users\tpbw4321\AppData\Local\Temp\ccxyUSIv.s 			page 5


 160:Generated_Source\PSoC5/SensorDataComTimer.c ****     #endif /* Configure additional features of UDB implementation */
 161:Generated_Source\PSoC5/SensorDataComTimer.c **** 
 162:Generated_Source\PSoC5/SensorDataComTimer.c ****     SensorDataComTimer_SetInterruptMode(SensorDataComTimer_INIT_INTERRUPT_MODE);
  70              		.loc 1 162 0
  71 003a 0020     		movs	r0, #0
  72 003c FFF7FEFF 		bl	SensorDataComTimer_SetInterruptMode
 163:Generated_Source\PSoC5/SensorDataComTimer.c **** }
  73              		.loc 1 163 0
  74 0040 00BF     		nop
  75 0042 0837     		adds	r7, r7, #8
  76              		.cfi_def_cfa_offset 8
  77 0044 BD46     		mov	sp, r7
  78              		.cfi_def_cfa_register 13
  79              		@ sp needed
  80 0046 80BD     		pop	{r7, pc}
  81              	.L3:
  82              		.align	2
  83              	.L2:
  84 0048 99640040 		.word	1073767577
  85              		.cfi_endproc
  86              	.LFE0:
  87              		.size	SensorDataComTimer_Init, .-SensorDataComTimer_Init
  88              		.section	.text.SensorDataComTimer_Enable,"ax",%progbits
  89              		.align	2
  90              		.global	SensorDataComTimer_Enable
  91              		.thumb
  92              		.thumb_func
  93              		.type	SensorDataComTimer_Enable, %function
  94              	SensorDataComTimer_Enable:
  95              	.LFB1:
 164:Generated_Source\PSoC5/SensorDataComTimer.c **** 
 165:Generated_Source\PSoC5/SensorDataComTimer.c **** 
 166:Generated_Source\PSoC5/SensorDataComTimer.c **** /*******************************************************************************
 167:Generated_Source\PSoC5/SensorDataComTimer.c **** * Function Name: SensorDataComTimer_Enable
 168:Generated_Source\PSoC5/SensorDataComTimer.c **** ********************************************************************************
 169:Generated_Source\PSoC5/SensorDataComTimer.c **** *
 170:Generated_Source\PSoC5/SensorDataComTimer.c **** * Summary:
 171:Generated_Source\PSoC5/SensorDataComTimer.c **** *  Enable the Timer
 172:Generated_Source\PSoC5/SensorDataComTimer.c **** *
 173:Generated_Source\PSoC5/SensorDataComTimer.c **** * Parameters:
 174:Generated_Source\PSoC5/SensorDataComTimer.c **** *  void
 175:Generated_Source\PSoC5/SensorDataComTimer.c **** *
 176:Generated_Source\PSoC5/SensorDataComTimer.c **** * Return:
 177:Generated_Source\PSoC5/SensorDataComTimer.c **** *  void
 178:Generated_Source\PSoC5/SensorDataComTimer.c **** *
 179:Generated_Source\PSoC5/SensorDataComTimer.c **** *******************************************************************************/
 180:Generated_Source\PSoC5/SensorDataComTimer.c **** void SensorDataComTimer_Enable(void) 
 181:Generated_Source\PSoC5/SensorDataComTimer.c **** {
  96              		.loc 1 181 0
  97              		.cfi_startproc
  98              		@ args = 0, pretend = 0, frame = 0
  99              		@ frame_needed = 1, uses_anonymous_args = 0
 100              		@ link register save eliminated.
 101 0000 80B4     		push	{r7}
 102              		.cfi_def_cfa_offset 4
 103              		.cfi_offset 7, -4
 104 0002 00AF     		add	r7, sp, #0
ARM GAS  C:\Users\tpbw4321\AppData\Local\Temp\ccxyUSIv.s 			page 6


 105              		.cfi_def_cfa_register 7
 182:Generated_Source\PSoC5/SensorDataComTimer.c ****     /* Globally Enable the Fixed Function Block chosen */
 183:Generated_Source\PSoC5/SensorDataComTimer.c ****     #if (SensorDataComTimer_UsingFixedFunction)
 184:Generated_Source\PSoC5/SensorDataComTimer.c ****         SensorDataComTimer_GLOBAL_ENABLE |= SensorDataComTimer_BLOCK_EN_MASK;
 185:Generated_Source\PSoC5/SensorDataComTimer.c ****         SensorDataComTimer_GLOBAL_STBY_ENABLE |= SensorDataComTimer_BLOCK_STBY_EN_MASK;
 186:Generated_Source\PSoC5/SensorDataComTimer.c ****     #endif /* Set Enable bit for enabling Fixed function timer*/
 187:Generated_Source\PSoC5/SensorDataComTimer.c **** 
 188:Generated_Source\PSoC5/SensorDataComTimer.c ****     /* Remove assignment if control register is removed */
 189:Generated_Source\PSoC5/SensorDataComTimer.c ****     #if (!SensorDataComTimer_UDB_CONTROL_REG_REMOVED || SensorDataComTimer_UsingFixedFunction)
 190:Generated_Source\PSoC5/SensorDataComTimer.c ****         SensorDataComTimer_CONTROL |= SensorDataComTimer_CTRL_ENABLE;
 106              		.loc 1 190 0
 107 0004 054A     		ldr	r2, .L5
 108 0006 054B     		ldr	r3, .L5
 109 0008 1B78     		ldrb	r3, [r3]
 110 000a DBB2     		uxtb	r3, r3
 111 000c 63F07F03 		orn	r3, r3, #127
 112 0010 DBB2     		uxtb	r3, r3
 113 0012 1370     		strb	r3, [r2]
 191:Generated_Source\PSoC5/SensorDataComTimer.c ****     #endif /* Remove assignment if control register is removed */
 192:Generated_Source\PSoC5/SensorDataComTimer.c **** }
 114              		.loc 1 192 0
 115 0014 00BF     		nop
 116 0016 BD46     		mov	sp, r7
 117              		.cfi_def_cfa_register 13
 118              		@ sp needed
 119 0018 80BC     		pop	{r7}
 120              		.cfi_restore 7
 121              		.cfi_def_cfa_offset 0
 122 001a 7047     		bx	lr
 123              	.L6:
 124              		.align	2
 125              	.L5:
 126 001c 77650040 		.word	1073767799
 127              		.cfi_endproc
 128              	.LFE1:
 129              		.size	SensorDataComTimer_Enable, .-SensorDataComTimer_Enable
 130              		.section	.text.SensorDataComTimer_Start,"ax",%progbits
 131              		.align	2
 132              		.global	SensorDataComTimer_Start
 133              		.thumb
 134              		.thumb_func
 135              		.type	SensorDataComTimer_Start, %function
 136              	SensorDataComTimer_Start:
 137              	.LFB2:
 193:Generated_Source\PSoC5/SensorDataComTimer.c **** 
 194:Generated_Source\PSoC5/SensorDataComTimer.c **** 
 195:Generated_Source\PSoC5/SensorDataComTimer.c **** /*******************************************************************************
 196:Generated_Source\PSoC5/SensorDataComTimer.c **** * Function Name: SensorDataComTimer_Start
 197:Generated_Source\PSoC5/SensorDataComTimer.c **** ********************************************************************************
 198:Generated_Source\PSoC5/SensorDataComTimer.c **** *
 199:Generated_Source\PSoC5/SensorDataComTimer.c **** * Summary:
 200:Generated_Source\PSoC5/SensorDataComTimer.c **** *  The start function initializes the timer with the default values, the
 201:Generated_Source\PSoC5/SensorDataComTimer.c **** *  enables the timerto begin counting.  It does not enable interrupts,
 202:Generated_Source\PSoC5/SensorDataComTimer.c **** *  the EnableInt command should be called if interrupt generation is required.
 203:Generated_Source\PSoC5/SensorDataComTimer.c **** *
 204:Generated_Source\PSoC5/SensorDataComTimer.c **** * Parameters:
 205:Generated_Source\PSoC5/SensorDataComTimer.c **** *  void
ARM GAS  C:\Users\tpbw4321\AppData\Local\Temp\ccxyUSIv.s 			page 7


 206:Generated_Source\PSoC5/SensorDataComTimer.c **** *
 207:Generated_Source\PSoC5/SensorDataComTimer.c **** * Return:
 208:Generated_Source\PSoC5/SensorDataComTimer.c **** *  void
 209:Generated_Source\PSoC5/SensorDataComTimer.c **** *
 210:Generated_Source\PSoC5/SensorDataComTimer.c **** * Global variables:
 211:Generated_Source\PSoC5/SensorDataComTimer.c **** *  SensorDataComTimer_initVar: Is modified when this function is called for the
 212:Generated_Source\PSoC5/SensorDataComTimer.c **** *   first time. Is used to ensure that initialization happens only once.
 213:Generated_Source\PSoC5/SensorDataComTimer.c **** *
 214:Generated_Source\PSoC5/SensorDataComTimer.c **** *******************************************************************************/
 215:Generated_Source\PSoC5/SensorDataComTimer.c **** void SensorDataComTimer_Start(void) 
 216:Generated_Source\PSoC5/SensorDataComTimer.c **** {
 138              		.loc 1 216 0
 139              		.cfi_startproc
 140              		@ args = 0, pretend = 0, frame = 0
 141              		@ frame_needed = 1, uses_anonymous_args = 0
 142 0000 80B5     		push	{r7, lr}
 143              		.cfi_def_cfa_offset 8
 144              		.cfi_offset 7, -8
 145              		.cfi_offset 14, -4
 146 0002 00AF     		add	r7, sp, #0
 147              		.cfi_def_cfa_register 7
 217:Generated_Source\PSoC5/SensorDataComTimer.c ****     if(SensorDataComTimer_initVar == 0u)
 148              		.loc 1 217 0
 149 0004 064B     		ldr	r3, .L9
 150 0006 1B78     		ldrb	r3, [r3]	@ zero_extendqisi2
 151 0008 002B     		cmp	r3, #0
 152 000a 04D1     		bne	.L8
 218:Generated_Source\PSoC5/SensorDataComTimer.c ****     {
 219:Generated_Source\PSoC5/SensorDataComTimer.c ****         SensorDataComTimer_Init();
 153              		.loc 1 219 0
 154 000c FFF7FEFF 		bl	SensorDataComTimer_Init
 220:Generated_Source\PSoC5/SensorDataComTimer.c **** 
 221:Generated_Source\PSoC5/SensorDataComTimer.c ****         SensorDataComTimer_initVar = 1u;   /* Clear this bit for Initialization */
 155              		.loc 1 221 0
 156 0010 034B     		ldr	r3, .L9
 157 0012 0122     		movs	r2, #1
 158 0014 1A70     		strb	r2, [r3]
 159              	.L8:
 222:Generated_Source\PSoC5/SensorDataComTimer.c ****     }
 223:Generated_Source\PSoC5/SensorDataComTimer.c **** 
 224:Generated_Source\PSoC5/SensorDataComTimer.c ****     /* Enable the Timer */
 225:Generated_Source\PSoC5/SensorDataComTimer.c ****     SensorDataComTimer_Enable();
 160              		.loc 1 225 0
 161 0016 FFF7FEFF 		bl	SensorDataComTimer_Enable
 226:Generated_Source\PSoC5/SensorDataComTimer.c **** }
 162              		.loc 1 226 0
 163 001a 00BF     		nop
 164 001c 80BD     		pop	{r7, pc}
 165              	.L10:
 166 001e 00BF     		.align	2
 167              	.L9:
 168 0020 00000000 		.word	SensorDataComTimer_initVar
 169              		.cfi_endproc
 170              	.LFE2:
 171              		.size	SensorDataComTimer_Start, .-SensorDataComTimer_Start
 172              		.section	.text.SensorDataComTimer_Stop,"ax",%progbits
 173              		.align	2
ARM GAS  C:\Users\tpbw4321\AppData\Local\Temp\ccxyUSIv.s 			page 8


 174              		.global	SensorDataComTimer_Stop
 175              		.thumb
 176              		.thumb_func
 177              		.type	SensorDataComTimer_Stop, %function
 178              	SensorDataComTimer_Stop:
 179              	.LFB3:
 227:Generated_Source\PSoC5/SensorDataComTimer.c **** 
 228:Generated_Source\PSoC5/SensorDataComTimer.c **** 
 229:Generated_Source\PSoC5/SensorDataComTimer.c **** /*******************************************************************************
 230:Generated_Source\PSoC5/SensorDataComTimer.c **** * Function Name: SensorDataComTimer_Stop
 231:Generated_Source\PSoC5/SensorDataComTimer.c **** ********************************************************************************
 232:Generated_Source\PSoC5/SensorDataComTimer.c **** *
 233:Generated_Source\PSoC5/SensorDataComTimer.c **** * Summary:
 234:Generated_Source\PSoC5/SensorDataComTimer.c **** *  The stop function halts the timer, but does not change any modes or disable
 235:Generated_Source\PSoC5/SensorDataComTimer.c **** *  interrupts.
 236:Generated_Source\PSoC5/SensorDataComTimer.c **** *
 237:Generated_Source\PSoC5/SensorDataComTimer.c **** * Parameters:
 238:Generated_Source\PSoC5/SensorDataComTimer.c **** *  void
 239:Generated_Source\PSoC5/SensorDataComTimer.c **** *
 240:Generated_Source\PSoC5/SensorDataComTimer.c **** * Return:
 241:Generated_Source\PSoC5/SensorDataComTimer.c **** *  void
 242:Generated_Source\PSoC5/SensorDataComTimer.c **** *
 243:Generated_Source\PSoC5/SensorDataComTimer.c **** * Side Effects: If the Enable mode is set to Hardware only then this function
 244:Generated_Source\PSoC5/SensorDataComTimer.c **** *               has no effect on the operation of the timer.
 245:Generated_Source\PSoC5/SensorDataComTimer.c **** *
 246:Generated_Source\PSoC5/SensorDataComTimer.c **** *******************************************************************************/
 247:Generated_Source\PSoC5/SensorDataComTimer.c **** void SensorDataComTimer_Stop(void) 
 248:Generated_Source\PSoC5/SensorDataComTimer.c **** {
 180              		.loc 1 248 0
 181              		.cfi_startproc
 182              		@ args = 0, pretend = 0, frame = 0
 183              		@ frame_needed = 1, uses_anonymous_args = 0
 184              		@ link register save eliminated.
 185 0000 80B4     		push	{r7}
 186              		.cfi_def_cfa_offset 4
 187              		.cfi_offset 7, -4
 188 0002 00AF     		add	r7, sp, #0
 189              		.cfi_def_cfa_register 7
 249:Generated_Source\PSoC5/SensorDataComTimer.c ****     /* Disable Timer */
 250:Generated_Source\PSoC5/SensorDataComTimer.c ****     #if(!SensorDataComTimer_UDB_CONTROL_REG_REMOVED || SensorDataComTimer_UsingFixedFunction)
 251:Generated_Source\PSoC5/SensorDataComTimer.c ****         SensorDataComTimer_CONTROL &= ((uint8)(~SensorDataComTimer_CTRL_ENABLE));
 190              		.loc 1 251 0
 191 0004 054A     		ldr	r2, .L12
 192 0006 054B     		ldr	r3, .L12
 193 0008 1B78     		ldrb	r3, [r3]
 194 000a DBB2     		uxtb	r3, r3
 195 000c 03F07F03 		and	r3, r3, #127
 196 0010 DBB2     		uxtb	r3, r3
 197 0012 1370     		strb	r3, [r2]
 252:Generated_Source\PSoC5/SensorDataComTimer.c ****     #endif /* Remove assignment if control register is removed */
 253:Generated_Source\PSoC5/SensorDataComTimer.c **** 
 254:Generated_Source\PSoC5/SensorDataComTimer.c ****     /* Globally disable the Fixed Function Block chosen */
 255:Generated_Source\PSoC5/SensorDataComTimer.c ****     #if (SensorDataComTimer_UsingFixedFunction)
 256:Generated_Source\PSoC5/SensorDataComTimer.c ****         SensorDataComTimer_GLOBAL_ENABLE &= ((uint8)(~SensorDataComTimer_BLOCK_EN_MASK));
 257:Generated_Source\PSoC5/SensorDataComTimer.c ****         SensorDataComTimer_GLOBAL_STBY_ENABLE &= ((uint8)(~SensorDataComTimer_BLOCK_STBY_EN_MASK));
 258:Generated_Source\PSoC5/SensorDataComTimer.c ****     #endif /* Disable global enable for the Timer Fixed function block to stop the Timer*/
 259:Generated_Source\PSoC5/SensorDataComTimer.c **** }
ARM GAS  C:\Users\tpbw4321\AppData\Local\Temp\ccxyUSIv.s 			page 9


 198              		.loc 1 259 0
 199 0014 00BF     		nop
 200 0016 BD46     		mov	sp, r7
 201              		.cfi_def_cfa_register 13
 202              		@ sp needed
 203 0018 80BC     		pop	{r7}
 204              		.cfi_restore 7
 205              		.cfi_def_cfa_offset 0
 206 001a 7047     		bx	lr
 207              	.L13:
 208              		.align	2
 209              	.L12:
 210 001c 77650040 		.word	1073767799
 211              		.cfi_endproc
 212              	.LFE3:
 213              		.size	SensorDataComTimer_Stop, .-SensorDataComTimer_Stop
 214              		.section	.text.SensorDataComTimer_SetInterruptMode,"ax",%progbits
 215              		.align	2
 216              		.global	SensorDataComTimer_SetInterruptMode
 217              		.thumb
 218              		.thumb_func
 219              		.type	SensorDataComTimer_SetInterruptMode, %function
 220              	SensorDataComTimer_SetInterruptMode:
 221              	.LFB4:
 260:Generated_Source\PSoC5/SensorDataComTimer.c **** 
 261:Generated_Source\PSoC5/SensorDataComTimer.c **** 
 262:Generated_Source\PSoC5/SensorDataComTimer.c **** /*******************************************************************************
 263:Generated_Source\PSoC5/SensorDataComTimer.c **** * Function Name: SensorDataComTimer_SetInterruptMode
 264:Generated_Source\PSoC5/SensorDataComTimer.c **** ********************************************************************************
 265:Generated_Source\PSoC5/SensorDataComTimer.c **** *
 266:Generated_Source\PSoC5/SensorDataComTimer.c **** * Summary:
 267:Generated_Source\PSoC5/SensorDataComTimer.c **** *  This function selects which of the interrupt inputs may cause an interrupt.
 268:Generated_Source\PSoC5/SensorDataComTimer.c **** *  The twosources are caputure and terminal.  One, both or neither may
 269:Generated_Source\PSoC5/SensorDataComTimer.c **** *  be selected.
 270:Generated_Source\PSoC5/SensorDataComTimer.c **** *
 271:Generated_Source\PSoC5/SensorDataComTimer.c **** * Parameters:
 272:Generated_Source\PSoC5/SensorDataComTimer.c **** *  interruptMode:   This parameter is used to enable interrups on either/or
 273:Generated_Source\PSoC5/SensorDataComTimer.c **** *                   terminal count or capture.
 274:Generated_Source\PSoC5/SensorDataComTimer.c **** *
 275:Generated_Source\PSoC5/SensorDataComTimer.c **** * Return:
 276:Generated_Source\PSoC5/SensorDataComTimer.c **** *  void
 277:Generated_Source\PSoC5/SensorDataComTimer.c **** *
 278:Generated_Source\PSoC5/SensorDataComTimer.c **** *******************************************************************************/
 279:Generated_Source\PSoC5/SensorDataComTimer.c **** void SensorDataComTimer_SetInterruptMode(uint8 interruptMode) 
 280:Generated_Source\PSoC5/SensorDataComTimer.c **** {
 222              		.loc 1 280 0
 223              		.cfi_startproc
 224              		@ args = 0, pretend = 0, frame = 8
 225              		@ frame_needed = 1, uses_anonymous_args = 0
 226              		@ link register save eliminated.
 227 0000 80B4     		push	{r7}
 228              		.cfi_def_cfa_offset 4
 229              		.cfi_offset 7, -4
 230 0002 83B0     		sub	sp, sp, #12
 231              		.cfi_def_cfa_offset 16
 232 0004 00AF     		add	r7, sp, #0
 233              		.cfi_def_cfa_register 7
ARM GAS  C:\Users\tpbw4321\AppData\Local\Temp\ccxyUSIv.s 			page 10


 234 0006 0346     		mov	r3, r0
 235 0008 FB71     		strb	r3, [r7, #7]
 281:Generated_Source\PSoC5/SensorDataComTimer.c ****     SensorDataComTimer_STATUS_MASK = interruptMode;
 236              		.loc 1 281 0
 237 000a 044A     		ldr	r2, .L15
 238 000c FB79     		ldrb	r3, [r7, #7]
 239 000e 1370     		strb	r3, [r2]
 282:Generated_Source\PSoC5/SensorDataComTimer.c **** }
 240              		.loc 1 282 0
 241 0010 00BF     		nop
 242 0012 0C37     		adds	r7, r7, #12
 243              		.cfi_def_cfa_offset 4
 244 0014 BD46     		mov	sp, r7
 245              		.cfi_def_cfa_register 13
 246              		@ sp needed
 247 0016 80BC     		pop	{r7}
 248              		.cfi_restore 7
 249              		.cfi_def_cfa_offset 0
 250 0018 7047     		bx	lr
 251              	.L16:
 252 001a 00BF     		.align	2
 253              	.L15:
 254 001c 89640040 		.word	1073767561
 255              		.cfi_endproc
 256              	.LFE4:
 257              		.size	SensorDataComTimer_SetInterruptMode, .-SensorDataComTimer_SetInterruptMode
 258              		.section	.text.SensorDataComTimer_SoftwareCapture,"ax",%progbits
 259              		.align	2
 260              		.global	SensorDataComTimer_SoftwareCapture
 261              		.thumb
 262              		.thumb_func
 263              		.type	SensorDataComTimer_SoftwareCapture, %function
 264              	SensorDataComTimer_SoftwareCapture:
 265              	.LFB5:
 283:Generated_Source\PSoC5/SensorDataComTimer.c **** 
 284:Generated_Source\PSoC5/SensorDataComTimer.c **** 
 285:Generated_Source\PSoC5/SensorDataComTimer.c **** /*******************************************************************************
 286:Generated_Source\PSoC5/SensorDataComTimer.c **** * Function Name: SensorDataComTimer_SoftwareCapture
 287:Generated_Source\PSoC5/SensorDataComTimer.c **** ********************************************************************************
 288:Generated_Source\PSoC5/SensorDataComTimer.c **** *
 289:Generated_Source\PSoC5/SensorDataComTimer.c **** * Summary:
 290:Generated_Source\PSoC5/SensorDataComTimer.c **** *  This function forces a capture independent of the capture signal.
 291:Generated_Source\PSoC5/SensorDataComTimer.c **** *
 292:Generated_Source\PSoC5/SensorDataComTimer.c **** * Parameters:
 293:Generated_Source\PSoC5/SensorDataComTimer.c **** *  void
 294:Generated_Source\PSoC5/SensorDataComTimer.c **** *
 295:Generated_Source\PSoC5/SensorDataComTimer.c **** * Return:
 296:Generated_Source\PSoC5/SensorDataComTimer.c **** *  void
 297:Generated_Source\PSoC5/SensorDataComTimer.c **** *
 298:Generated_Source\PSoC5/SensorDataComTimer.c **** * Side Effects:
 299:Generated_Source\PSoC5/SensorDataComTimer.c **** *  An existing hardware capture could be overwritten.
 300:Generated_Source\PSoC5/SensorDataComTimer.c **** *
 301:Generated_Source\PSoC5/SensorDataComTimer.c **** *******************************************************************************/
 302:Generated_Source\PSoC5/SensorDataComTimer.c **** void SensorDataComTimer_SoftwareCapture(void) 
 303:Generated_Source\PSoC5/SensorDataComTimer.c **** {
 266              		.loc 1 303 0
 267              		.cfi_startproc
ARM GAS  C:\Users\tpbw4321\AppData\Local\Temp\ccxyUSIv.s 			page 11


 268              		@ args = 0, pretend = 0, frame = 0
 269              		@ frame_needed = 1, uses_anonymous_args = 0
 270              		@ link register save eliminated.
 271 0000 80B4     		push	{r7}
 272              		.cfi_def_cfa_offset 4
 273              		.cfi_offset 7, -4
 274 0002 00AF     		add	r7, sp, #0
 275              		.cfi_def_cfa_register 7
 304:Generated_Source\PSoC5/SensorDataComTimer.c ****     /* Generate a software capture by reading the counter register */
 305:Generated_Source\PSoC5/SensorDataComTimer.c ****     #if(SensorDataComTimer_UsingFixedFunction)
 306:Generated_Source\PSoC5/SensorDataComTimer.c ****         (void)CY_GET_REG16(SensorDataComTimer_COUNTER_LSB_PTR);
 307:Generated_Source\PSoC5/SensorDataComTimer.c ****     #else
 308:Generated_Source\PSoC5/SensorDataComTimer.c ****         (void)CY_GET_REG8(SensorDataComTimer_COUNTER_LSB_PTR_8BIT);
 276              		.loc 1 308 0
 277 0004 024B     		ldr	r3, .L18
 278 0006 1B78     		ldrb	r3, [r3]
 309:Generated_Source\PSoC5/SensorDataComTimer.c ****     #endif/* (SensorDataComTimer_UsingFixedFunction) */
 310:Generated_Source\PSoC5/SensorDataComTimer.c ****     /* Capture Data is now in the FIFO */
 311:Generated_Source\PSoC5/SensorDataComTimer.c **** }
 279              		.loc 1 311 0
 280 0008 00BF     		nop
 281 000a BD46     		mov	sp, r7
 282              		.cfi_def_cfa_register 13
 283              		@ sp needed
 284 000c 80BC     		pop	{r7}
 285              		.cfi_restore 7
 286              		.cfi_def_cfa_offset 0
 287 000e 7047     		bx	lr
 288              	.L19:
 289              		.align	2
 290              	.L18:
 291 0010 07640040 		.word	1073767431
 292              		.cfi_endproc
 293              	.LFE5:
 294              		.size	SensorDataComTimer_SoftwareCapture, .-SensorDataComTimer_SoftwareCapture
 295              		.section	.text.SensorDataComTimer_ReadStatusRegister,"ax",%progbits
 296              		.align	2
 297              		.global	SensorDataComTimer_ReadStatusRegister
 298              		.thumb
 299              		.thumb_func
 300              		.type	SensorDataComTimer_ReadStatusRegister, %function
 301              	SensorDataComTimer_ReadStatusRegister:
 302              	.LFB6:
 312:Generated_Source\PSoC5/SensorDataComTimer.c **** 
 313:Generated_Source\PSoC5/SensorDataComTimer.c **** 
 314:Generated_Source\PSoC5/SensorDataComTimer.c **** /*******************************************************************************
 315:Generated_Source\PSoC5/SensorDataComTimer.c **** * Function Name: SensorDataComTimer_ReadStatusRegister
 316:Generated_Source\PSoC5/SensorDataComTimer.c **** ********************************************************************************
 317:Generated_Source\PSoC5/SensorDataComTimer.c **** *
 318:Generated_Source\PSoC5/SensorDataComTimer.c **** * Summary:
 319:Generated_Source\PSoC5/SensorDataComTimer.c **** *  Reads the status register and returns it's state. This function should use
 320:Generated_Source\PSoC5/SensorDataComTimer.c **** *  defined types for the bit-field information as the bits in this register may
 321:Generated_Source\PSoC5/SensorDataComTimer.c **** *  be permuteable.
 322:Generated_Source\PSoC5/SensorDataComTimer.c **** *
 323:Generated_Source\PSoC5/SensorDataComTimer.c **** * Parameters:
 324:Generated_Source\PSoC5/SensorDataComTimer.c **** *  void
 325:Generated_Source\PSoC5/SensorDataComTimer.c **** *
ARM GAS  C:\Users\tpbw4321\AppData\Local\Temp\ccxyUSIv.s 			page 12


 326:Generated_Source\PSoC5/SensorDataComTimer.c **** * Return:
 327:Generated_Source\PSoC5/SensorDataComTimer.c **** *  The contents of the status register
 328:Generated_Source\PSoC5/SensorDataComTimer.c **** *
 329:Generated_Source\PSoC5/SensorDataComTimer.c **** * Side Effects:
 330:Generated_Source\PSoC5/SensorDataComTimer.c **** *  Status register bits may be clear on read.
 331:Generated_Source\PSoC5/SensorDataComTimer.c **** *
 332:Generated_Source\PSoC5/SensorDataComTimer.c **** *******************************************************************************/
 333:Generated_Source\PSoC5/SensorDataComTimer.c **** uint8   SensorDataComTimer_ReadStatusRegister(void) 
 334:Generated_Source\PSoC5/SensorDataComTimer.c **** {
 303              		.loc 1 334 0
 304              		.cfi_startproc
 305              		@ args = 0, pretend = 0, frame = 0
 306              		@ frame_needed = 1, uses_anonymous_args = 0
 307              		@ link register save eliminated.
 308 0000 80B4     		push	{r7}
 309              		.cfi_def_cfa_offset 4
 310              		.cfi_offset 7, -4
 311 0002 00AF     		add	r7, sp, #0
 312              		.cfi_def_cfa_register 7
 335:Generated_Source\PSoC5/SensorDataComTimer.c ****     return (SensorDataComTimer_STATUS);
 313              		.loc 1 335 0
 314 0004 034B     		ldr	r3, .L22
 315 0006 1B78     		ldrb	r3, [r3]
 316 0008 DBB2     		uxtb	r3, r3
 336:Generated_Source\PSoC5/SensorDataComTimer.c **** }
 317              		.loc 1 336 0
 318 000a 1846     		mov	r0, r3
 319 000c BD46     		mov	sp, r7
 320              		.cfi_def_cfa_register 13
 321              		@ sp needed
 322 000e 80BC     		pop	{r7}
 323              		.cfi_restore 7
 324              		.cfi_def_cfa_offset 0
 325 0010 7047     		bx	lr
 326              	.L23:
 327 0012 00BF     		.align	2
 328              	.L22:
 329 0014 69640040 		.word	1073767529
 330              		.cfi_endproc
 331              	.LFE6:
 332              		.size	SensorDataComTimer_ReadStatusRegister, .-SensorDataComTimer_ReadStatusRegister
 333              		.section	.text.SensorDataComTimer_ReadControlRegister,"ax",%progbits
 334              		.align	2
 335              		.global	SensorDataComTimer_ReadControlRegister
 336              		.thumb
 337              		.thumb_func
 338              		.type	SensorDataComTimer_ReadControlRegister, %function
 339              	SensorDataComTimer_ReadControlRegister:
 340              	.LFB7:
 337:Generated_Source\PSoC5/SensorDataComTimer.c **** 
 338:Generated_Source\PSoC5/SensorDataComTimer.c **** 
 339:Generated_Source\PSoC5/SensorDataComTimer.c **** #if (!SensorDataComTimer_UDB_CONTROL_REG_REMOVED) /* Remove API if control register is unused */
 340:Generated_Source\PSoC5/SensorDataComTimer.c **** 
 341:Generated_Source\PSoC5/SensorDataComTimer.c **** 
 342:Generated_Source\PSoC5/SensorDataComTimer.c **** /*******************************************************************************
 343:Generated_Source\PSoC5/SensorDataComTimer.c **** * Function Name: SensorDataComTimer_ReadControlRegister
 344:Generated_Source\PSoC5/SensorDataComTimer.c **** ********************************************************************************
ARM GAS  C:\Users\tpbw4321\AppData\Local\Temp\ccxyUSIv.s 			page 13


 345:Generated_Source\PSoC5/SensorDataComTimer.c **** *
 346:Generated_Source\PSoC5/SensorDataComTimer.c **** * Summary:
 347:Generated_Source\PSoC5/SensorDataComTimer.c **** *  Reads the control register and returns it's value.
 348:Generated_Source\PSoC5/SensorDataComTimer.c **** *
 349:Generated_Source\PSoC5/SensorDataComTimer.c **** * Parameters:
 350:Generated_Source\PSoC5/SensorDataComTimer.c **** *  void
 351:Generated_Source\PSoC5/SensorDataComTimer.c **** *
 352:Generated_Source\PSoC5/SensorDataComTimer.c **** * Return:
 353:Generated_Source\PSoC5/SensorDataComTimer.c **** *  The contents of the control register
 354:Generated_Source\PSoC5/SensorDataComTimer.c **** *
 355:Generated_Source\PSoC5/SensorDataComTimer.c **** *******************************************************************************/
 356:Generated_Source\PSoC5/SensorDataComTimer.c **** uint8 SensorDataComTimer_ReadControlRegister(void) 
 357:Generated_Source\PSoC5/SensorDataComTimer.c **** {
 341              		.loc 1 357 0
 342              		.cfi_startproc
 343              		@ args = 0, pretend = 0, frame = 0
 344              		@ frame_needed = 1, uses_anonymous_args = 0
 345              		@ link register save eliminated.
 346 0000 80B4     		push	{r7}
 347              		.cfi_def_cfa_offset 4
 348              		.cfi_offset 7, -4
 349 0002 00AF     		add	r7, sp, #0
 350              		.cfi_def_cfa_register 7
 358:Generated_Source\PSoC5/SensorDataComTimer.c ****     #if (!SensorDataComTimer_UDB_CONTROL_REG_REMOVED) 
 359:Generated_Source\PSoC5/SensorDataComTimer.c ****         return ((uint8)SensorDataComTimer_CONTROL);
 351              		.loc 1 359 0
 352 0004 034B     		ldr	r3, .L26
 353 0006 1B78     		ldrb	r3, [r3]
 354 0008 DBB2     		uxtb	r3, r3
 360:Generated_Source\PSoC5/SensorDataComTimer.c ****     #else
 361:Generated_Source\PSoC5/SensorDataComTimer.c ****         return (0);
 362:Generated_Source\PSoC5/SensorDataComTimer.c ****     #endif /* (!SensorDataComTimer_UDB_CONTROL_REG_REMOVED) */
 363:Generated_Source\PSoC5/SensorDataComTimer.c **** }
 355              		.loc 1 363 0
 356 000a 1846     		mov	r0, r3
 357 000c BD46     		mov	sp, r7
 358              		.cfi_def_cfa_register 13
 359              		@ sp needed
 360 000e 80BC     		pop	{r7}
 361              		.cfi_restore 7
 362              		.cfi_def_cfa_offset 0
 363 0010 7047     		bx	lr
 364              	.L27:
 365 0012 00BF     		.align	2
 366              	.L26:
 367 0014 77650040 		.word	1073767799
 368              		.cfi_endproc
 369              	.LFE7:
 370              		.size	SensorDataComTimer_ReadControlRegister, .-SensorDataComTimer_ReadControlRegister
 371              		.section	.text.SensorDataComTimer_WriteControlRegister,"ax",%progbits
 372              		.align	2
 373              		.global	SensorDataComTimer_WriteControlRegister
 374              		.thumb
 375              		.thumb_func
 376              		.type	SensorDataComTimer_WriteControlRegister, %function
 377              	SensorDataComTimer_WriteControlRegister:
 378              	.LFB8:
ARM GAS  C:\Users\tpbw4321\AppData\Local\Temp\ccxyUSIv.s 			page 14


 364:Generated_Source\PSoC5/SensorDataComTimer.c **** 
 365:Generated_Source\PSoC5/SensorDataComTimer.c **** 
 366:Generated_Source\PSoC5/SensorDataComTimer.c **** /*******************************************************************************
 367:Generated_Source\PSoC5/SensorDataComTimer.c **** * Function Name: SensorDataComTimer_WriteControlRegister
 368:Generated_Source\PSoC5/SensorDataComTimer.c **** ********************************************************************************
 369:Generated_Source\PSoC5/SensorDataComTimer.c **** *
 370:Generated_Source\PSoC5/SensorDataComTimer.c **** * Summary:
 371:Generated_Source\PSoC5/SensorDataComTimer.c **** *  Sets the bit-field of the control register.
 372:Generated_Source\PSoC5/SensorDataComTimer.c **** *
 373:Generated_Source\PSoC5/SensorDataComTimer.c **** * Parameters:
 374:Generated_Source\PSoC5/SensorDataComTimer.c **** *  control: The contents of the control register
 375:Generated_Source\PSoC5/SensorDataComTimer.c **** *
 376:Generated_Source\PSoC5/SensorDataComTimer.c **** * Return:
 377:Generated_Source\PSoC5/SensorDataComTimer.c **** *
 378:Generated_Source\PSoC5/SensorDataComTimer.c **** *******************************************************************************/
 379:Generated_Source\PSoC5/SensorDataComTimer.c **** void SensorDataComTimer_WriteControlRegister(uint8 control) 
 380:Generated_Source\PSoC5/SensorDataComTimer.c **** {
 379              		.loc 1 380 0
 380              		.cfi_startproc
 381              		@ args = 0, pretend = 0, frame = 8
 382              		@ frame_needed = 1, uses_anonymous_args = 0
 383              		@ link register save eliminated.
 384 0000 80B4     		push	{r7}
 385              		.cfi_def_cfa_offset 4
 386              		.cfi_offset 7, -4
 387 0002 83B0     		sub	sp, sp, #12
 388              		.cfi_def_cfa_offset 16
 389 0004 00AF     		add	r7, sp, #0
 390              		.cfi_def_cfa_register 7
 391 0006 0346     		mov	r3, r0
 392 0008 FB71     		strb	r3, [r7, #7]
 381:Generated_Source\PSoC5/SensorDataComTimer.c ****     #if (!SensorDataComTimer_UDB_CONTROL_REG_REMOVED) 
 382:Generated_Source\PSoC5/SensorDataComTimer.c ****         SensorDataComTimer_CONTROL = control;
 393              		.loc 1 382 0
 394 000a 044A     		ldr	r2, .L29
 395 000c FB79     		ldrb	r3, [r7, #7]
 396 000e 1370     		strb	r3, [r2]
 383:Generated_Source\PSoC5/SensorDataComTimer.c ****     #else
 384:Generated_Source\PSoC5/SensorDataComTimer.c ****         control = 0u;
 385:Generated_Source\PSoC5/SensorDataComTimer.c ****     #endif /* (!SensorDataComTimer_UDB_CONTROL_REG_REMOVED) */
 386:Generated_Source\PSoC5/SensorDataComTimer.c **** }
 397              		.loc 1 386 0
 398 0010 00BF     		nop
 399 0012 0C37     		adds	r7, r7, #12
 400              		.cfi_def_cfa_offset 4
 401 0014 BD46     		mov	sp, r7
 402              		.cfi_def_cfa_register 13
 403              		@ sp needed
 404 0016 80BC     		pop	{r7}
 405              		.cfi_restore 7
 406              		.cfi_def_cfa_offset 0
 407 0018 7047     		bx	lr
 408              	.L30:
 409 001a 00BF     		.align	2
 410              	.L29:
 411 001c 77650040 		.word	1073767799
 412              		.cfi_endproc
ARM GAS  C:\Users\tpbw4321\AppData\Local\Temp\ccxyUSIv.s 			page 15


 413              	.LFE8:
 414              		.size	SensorDataComTimer_WriteControlRegister, .-SensorDataComTimer_WriteControlRegister
 415              		.section	.text.SensorDataComTimer_ReadPeriod,"ax",%progbits
 416              		.align	2
 417              		.global	SensorDataComTimer_ReadPeriod
 418              		.thumb
 419              		.thumb_func
 420              		.type	SensorDataComTimer_ReadPeriod, %function
 421              	SensorDataComTimer_ReadPeriod:
 422              	.LFB9:
 387:Generated_Source\PSoC5/SensorDataComTimer.c **** 
 388:Generated_Source\PSoC5/SensorDataComTimer.c **** #endif /* Remove API if control register is unused */
 389:Generated_Source\PSoC5/SensorDataComTimer.c **** 
 390:Generated_Source\PSoC5/SensorDataComTimer.c **** 
 391:Generated_Source\PSoC5/SensorDataComTimer.c **** /*******************************************************************************
 392:Generated_Source\PSoC5/SensorDataComTimer.c **** * Function Name: SensorDataComTimer_ReadPeriod
 393:Generated_Source\PSoC5/SensorDataComTimer.c **** ********************************************************************************
 394:Generated_Source\PSoC5/SensorDataComTimer.c **** *
 395:Generated_Source\PSoC5/SensorDataComTimer.c **** * Summary:
 396:Generated_Source\PSoC5/SensorDataComTimer.c **** *  This function returns the current value of the Period.
 397:Generated_Source\PSoC5/SensorDataComTimer.c **** *
 398:Generated_Source\PSoC5/SensorDataComTimer.c **** * Parameters:
 399:Generated_Source\PSoC5/SensorDataComTimer.c **** *  void
 400:Generated_Source\PSoC5/SensorDataComTimer.c **** *
 401:Generated_Source\PSoC5/SensorDataComTimer.c **** * Return:
 402:Generated_Source\PSoC5/SensorDataComTimer.c **** *  The present value of the counter.
 403:Generated_Source\PSoC5/SensorDataComTimer.c **** *
 404:Generated_Source\PSoC5/SensorDataComTimer.c **** *******************************************************************************/
 405:Generated_Source\PSoC5/SensorDataComTimer.c **** uint32 SensorDataComTimer_ReadPeriod(void) 
 406:Generated_Source\PSoC5/SensorDataComTimer.c **** {
 423              		.loc 1 406 0
 424              		.cfi_startproc
 425              		@ args = 0, pretend = 0, frame = 0
 426              		@ frame_needed = 1, uses_anonymous_args = 0
 427              		@ link register save eliminated.
 428 0000 80B4     		push	{r7}
 429              		.cfi_def_cfa_offset 4
 430              		.cfi_offset 7, -4
 431 0002 00AF     		add	r7, sp, #0
 432              		.cfi_def_cfa_register 7
 407:Generated_Source\PSoC5/SensorDataComTimer.c ****    #if(SensorDataComTimer_UsingFixedFunction)
 408:Generated_Source\PSoC5/SensorDataComTimer.c ****        return ((uint32)CY_GET_REG16(SensorDataComTimer_PERIOD_LSB_PTR));
 409:Generated_Source\PSoC5/SensorDataComTimer.c ****    #else
 410:Generated_Source\PSoC5/SensorDataComTimer.c ****        return (CY_GET_REG24(SensorDataComTimer_PERIOD_LSB_PTR));
 433              		.loc 1 410 0
 434 0004 034B     		ldr	r3, .L33
 435 0006 1B68     		ldr	r3, [r3]
 436 0008 23F07F43 		bic	r3, r3, #-16777216
 411:Generated_Source\PSoC5/SensorDataComTimer.c ****    #endif /* (SensorDataComTimer_UsingFixedFunction) */
 412:Generated_Source\PSoC5/SensorDataComTimer.c **** }
 437              		.loc 1 412 0
 438 000c 1846     		mov	r0, r3
 439 000e BD46     		mov	sp, r7
 440              		.cfi_def_cfa_register 13
 441              		@ sp needed
 442 0010 80BC     		pop	{r7}
 443              		.cfi_restore 7
ARM GAS  C:\Users\tpbw4321\AppData\Local\Temp\ccxyUSIv.s 			page 16


 444              		.cfi_def_cfa_offset 0
 445 0012 7047     		bx	lr
 446              	.L34:
 447              		.align	2
 448              	.L33:
 449 0014 27640040 		.word	1073767463
 450              		.cfi_endproc
 451              	.LFE9:
 452              		.size	SensorDataComTimer_ReadPeriod, .-SensorDataComTimer_ReadPeriod
 453              		.section	.text.SensorDataComTimer_WritePeriod,"ax",%progbits
 454              		.align	2
 455              		.global	SensorDataComTimer_WritePeriod
 456              		.thumb
 457              		.thumb_func
 458              		.type	SensorDataComTimer_WritePeriod, %function
 459              	SensorDataComTimer_WritePeriod:
 460              	.LFB10:
 413:Generated_Source\PSoC5/SensorDataComTimer.c **** 
 414:Generated_Source\PSoC5/SensorDataComTimer.c **** 
 415:Generated_Source\PSoC5/SensorDataComTimer.c **** /*******************************************************************************
 416:Generated_Source\PSoC5/SensorDataComTimer.c **** * Function Name: SensorDataComTimer_WritePeriod
 417:Generated_Source\PSoC5/SensorDataComTimer.c **** ********************************************************************************
 418:Generated_Source\PSoC5/SensorDataComTimer.c **** *
 419:Generated_Source\PSoC5/SensorDataComTimer.c **** * Summary:
 420:Generated_Source\PSoC5/SensorDataComTimer.c **** *  This function is used to change the period of the counter.  The new period
 421:Generated_Source\PSoC5/SensorDataComTimer.c **** *  will be loaded the next time terminal count is detected.
 422:Generated_Source\PSoC5/SensorDataComTimer.c **** *
 423:Generated_Source\PSoC5/SensorDataComTimer.c **** * Parameters:
 424:Generated_Source\PSoC5/SensorDataComTimer.c **** *  period: This value may be between 1 and (2^Resolution)-1.  A value of 0 will
 425:Generated_Source\PSoC5/SensorDataComTimer.c **** *          result in the counter remaining at zero.
 426:Generated_Source\PSoC5/SensorDataComTimer.c **** *
 427:Generated_Source\PSoC5/SensorDataComTimer.c **** * Return:
 428:Generated_Source\PSoC5/SensorDataComTimer.c **** *  void
 429:Generated_Source\PSoC5/SensorDataComTimer.c **** *
 430:Generated_Source\PSoC5/SensorDataComTimer.c **** *******************************************************************************/
 431:Generated_Source\PSoC5/SensorDataComTimer.c **** void SensorDataComTimer_WritePeriod(uint32 period) 
 432:Generated_Source\PSoC5/SensorDataComTimer.c **** {
 461              		.loc 1 432 0
 462              		.cfi_startproc
 463              		@ args = 0, pretend = 0, frame = 8
 464              		@ frame_needed = 1, uses_anonymous_args = 0
 465 0000 80B5     		push	{r7, lr}
 466              		.cfi_def_cfa_offset 8
 467              		.cfi_offset 7, -8
 468              		.cfi_offset 14, -4
 469 0002 82B0     		sub	sp, sp, #8
 470              		.cfi_def_cfa_offset 16
 471 0004 00AF     		add	r7, sp, #0
 472              		.cfi_def_cfa_register 7
 473 0006 7860     		str	r0, [r7, #4]
 433:Generated_Source\PSoC5/SensorDataComTimer.c ****     #if(SensorDataComTimer_UsingFixedFunction)
 434:Generated_Source\PSoC5/SensorDataComTimer.c ****         uint16 period_temp = (uint16)period;
 435:Generated_Source\PSoC5/SensorDataComTimer.c ****         CY_SET_REG16(SensorDataComTimer_PERIOD_LSB_PTR, period_temp);
 436:Generated_Source\PSoC5/SensorDataComTimer.c ****     #else
 437:Generated_Source\PSoC5/SensorDataComTimer.c ****         CY_SET_REG24(SensorDataComTimer_PERIOD_LSB_PTR, period);
 474              		.loc 1 437 0
 475 0008 7968     		ldr	r1, [r7, #4]
ARM GAS  C:\Users\tpbw4321\AppData\Local\Temp\ccxyUSIv.s 			page 17


 476 000a 0348     		ldr	r0, .L36
 477 000c FFF7FEFF 		bl	CySetReg24
 438:Generated_Source\PSoC5/SensorDataComTimer.c ****     #endif /*Write Period value with appropriate resolution suffix depending on UDB or fixed functi
 439:Generated_Source\PSoC5/SensorDataComTimer.c **** }
 478              		.loc 1 439 0
 479 0010 00BF     		nop
 480 0012 0837     		adds	r7, r7, #8
 481              		.cfi_def_cfa_offset 8
 482 0014 BD46     		mov	sp, r7
 483              		.cfi_def_cfa_register 13
 484              		@ sp needed
 485 0016 80BD     		pop	{r7, pc}
 486              	.L37:
 487              		.align	2
 488              	.L36:
 489 0018 27640040 		.word	1073767463
 490              		.cfi_endproc
 491              	.LFE10:
 492              		.size	SensorDataComTimer_WritePeriod, .-SensorDataComTimer_WritePeriod
 493              		.section	.text.SensorDataComTimer_ReadCapture,"ax",%progbits
 494              		.align	2
 495              		.global	SensorDataComTimer_ReadCapture
 496              		.thumb
 497              		.thumb_func
 498              		.type	SensorDataComTimer_ReadCapture, %function
 499              	SensorDataComTimer_ReadCapture:
 500              	.LFB11:
 440:Generated_Source\PSoC5/SensorDataComTimer.c **** 
 441:Generated_Source\PSoC5/SensorDataComTimer.c **** 
 442:Generated_Source\PSoC5/SensorDataComTimer.c **** /*******************************************************************************
 443:Generated_Source\PSoC5/SensorDataComTimer.c **** * Function Name: SensorDataComTimer_ReadCapture
 444:Generated_Source\PSoC5/SensorDataComTimer.c **** ********************************************************************************
 445:Generated_Source\PSoC5/SensorDataComTimer.c **** *
 446:Generated_Source\PSoC5/SensorDataComTimer.c **** * Summary:
 447:Generated_Source\PSoC5/SensorDataComTimer.c **** *  This function returns the last value captured.
 448:Generated_Source\PSoC5/SensorDataComTimer.c **** *
 449:Generated_Source\PSoC5/SensorDataComTimer.c **** * Parameters:
 450:Generated_Source\PSoC5/SensorDataComTimer.c **** *  void
 451:Generated_Source\PSoC5/SensorDataComTimer.c **** *
 452:Generated_Source\PSoC5/SensorDataComTimer.c **** * Return:
 453:Generated_Source\PSoC5/SensorDataComTimer.c **** *  Present Capture value.
 454:Generated_Source\PSoC5/SensorDataComTimer.c **** *
 455:Generated_Source\PSoC5/SensorDataComTimer.c **** *******************************************************************************/
 456:Generated_Source\PSoC5/SensorDataComTimer.c **** uint32 SensorDataComTimer_ReadCapture(void) 
 457:Generated_Source\PSoC5/SensorDataComTimer.c **** {
 501              		.loc 1 457 0
 502              		.cfi_startproc
 503              		@ args = 0, pretend = 0, frame = 0
 504              		@ frame_needed = 1, uses_anonymous_args = 0
 505              		@ link register save eliminated.
 506 0000 80B4     		push	{r7}
 507              		.cfi_def_cfa_offset 4
 508              		.cfi_offset 7, -4
 509 0002 00AF     		add	r7, sp, #0
 510              		.cfi_def_cfa_register 7
 458:Generated_Source\PSoC5/SensorDataComTimer.c ****    #if(SensorDataComTimer_UsingFixedFunction)
 459:Generated_Source\PSoC5/SensorDataComTimer.c ****        return ((uint32)CY_GET_REG16(SensorDataComTimer_CAPTURE_LSB_PTR));
ARM GAS  C:\Users\tpbw4321\AppData\Local\Temp\ccxyUSIv.s 			page 18


 460:Generated_Source\PSoC5/SensorDataComTimer.c ****    #else
 461:Generated_Source\PSoC5/SensorDataComTimer.c ****        return (CY_GET_REG24(SensorDataComTimer_CAPTURE_LSB_PTR));
 511              		.loc 1 461 0
 512 0004 034B     		ldr	r3, .L40
 513 0006 1B68     		ldr	r3, [r3]
 514 0008 23F07F43 		bic	r3, r3, #-16777216
 462:Generated_Source\PSoC5/SensorDataComTimer.c ****    #endif /* (SensorDataComTimer_UsingFixedFunction) */
 463:Generated_Source\PSoC5/SensorDataComTimer.c **** }
 515              		.loc 1 463 0
 516 000c 1846     		mov	r0, r3
 517 000e BD46     		mov	sp, r7
 518              		.cfi_def_cfa_register 13
 519              		@ sp needed
 520 0010 80BC     		pop	{r7}
 521              		.cfi_restore 7
 522              		.cfi_def_cfa_offset 0
 523 0012 7047     		bx	lr
 524              	.L41:
 525              		.align	2
 526              	.L40:
 527 0014 47640040 		.word	1073767495
 528              		.cfi_endproc
 529              	.LFE11:
 530              		.size	SensorDataComTimer_ReadCapture, .-SensorDataComTimer_ReadCapture
 531              		.section	.text.SensorDataComTimer_WriteCounter,"ax",%progbits
 532              		.align	2
 533              		.global	SensorDataComTimer_WriteCounter
 534              		.thumb
 535              		.thumb_func
 536              		.type	SensorDataComTimer_WriteCounter, %function
 537              	SensorDataComTimer_WriteCounter:
 538              	.LFB12:
 464:Generated_Source\PSoC5/SensorDataComTimer.c **** 
 465:Generated_Source\PSoC5/SensorDataComTimer.c **** 
 466:Generated_Source\PSoC5/SensorDataComTimer.c **** /*******************************************************************************
 467:Generated_Source\PSoC5/SensorDataComTimer.c **** * Function Name: SensorDataComTimer_WriteCounter
 468:Generated_Source\PSoC5/SensorDataComTimer.c **** ********************************************************************************
 469:Generated_Source\PSoC5/SensorDataComTimer.c **** *
 470:Generated_Source\PSoC5/SensorDataComTimer.c **** * Summary:
 471:Generated_Source\PSoC5/SensorDataComTimer.c **** *  This funtion is used to set the counter to a specific value
 472:Generated_Source\PSoC5/SensorDataComTimer.c **** *
 473:Generated_Source\PSoC5/SensorDataComTimer.c **** * Parameters:
 474:Generated_Source\PSoC5/SensorDataComTimer.c **** *  counter:  New counter value.
 475:Generated_Source\PSoC5/SensorDataComTimer.c **** *
 476:Generated_Source\PSoC5/SensorDataComTimer.c **** * Return:
 477:Generated_Source\PSoC5/SensorDataComTimer.c **** *  void
 478:Generated_Source\PSoC5/SensorDataComTimer.c **** *
 479:Generated_Source\PSoC5/SensorDataComTimer.c **** *******************************************************************************/
 480:Generated_Source\PSoC5/SensorDataComTimer.c **** void SensorDataComTimer_WriteCounter(uint32 counter) 
 481:Generated_Source\PSoC5/SensorDataComTimer.c **** {
 539              		.loc 1 481 0
 540              		.cfi_startproc
 541              		@ args = 0, pretend = 0, frame = 8
 542              		@ frame_needed = 1, uses_anonymous_args = 0
 543 0000 80B5     		push	{r7, lr}
 544              		.cfi_def_cfa_offset 8
 545              		.cfi_offset 7, -8
ARM GAS  C:\Users\tpbw4321\AppData\Local\Temp\ccxyUSIv.s 			page 19


 546              		.cfi_offset 14, -4
 547 0002 82B0     		sub	sp, sp, #8
 548              		.cfi_def_cfa_offset 16
 549 0004 00AF     		add	r7, sp, #0
 550              		.cfi_def_cfa_register 7
 551 0006 7860     		str	r0, [r7, #4]
 482:Generated_Source\PSoC5/SensorDataComTimer.c ****    #if(SensorDataComTimer_UsingFixedFunction)
 483:Generated_Source\PSoC5/SensorDataComTimer.c ****         /* This functionality is removed until a FixedFunction HW update to
 484:Generated_Source\PSoC5/SensorDataComTimer.c ****          * allow this register to be written
 485:Generated_Source\PSoC5/SensorDataComTimer.c ****          */
 486:Generated_Source\PSoC5/SensorDataComTimer.c ****         CY_SET_REG16(SensorDataComTimer_COUNTER_LSB_PTR, (uint16)counter);
 487:Generated_Source\PSoC5/SensorDataComTimer.c ****         
 488:Generated_Source\PSoC5/SensorDataComTimer.c ****     #else
 489:Generated_Source\PSoC5/SensorDataComTimer.c ****         CY_SET_REG24(SensorDataComTimer_COUNTER_LSB_PTR, counter);
 552              		.loc 1 489 0
 553 0008 7968     		ldr	r1, [r7, #4]
 554 000a 0348     		ldr	r0, .L43
 555 000c FFF7FEFF 		bl	CySetReg24
 490:Generated_Source\PSoC5/SensorDataComTimer.c ****     #endif /* Set Write Counter only for the UDB implementation (Write Counter not available in fix
 491:Generated_Source\PSoC5/SensorDataComTimer.c **** }
 556              		.loc 1 491 0
 557 0010 00BF     		nop
 558 0012 0837     		adds	r7, r7, #8
 559              		.cfi_def_cfa_offset 8
 560 0014 BD46     		mov	sp, r7
 561              		.cfi_def_cfa_register 13
 562              		@ sp needed
 563 0016 80BD     		pop	{r7, pc}
 564              	.L44:
 565              		.align	2
 566              	.L43:
 567 0018 07640040 		.word	1073767431
 568              		.cfi_endproc
 569              	.LFE12:
 570              		.size	SensorDataComTimer_WriteCounter, .-SensorDataComTimer_WriteCounter
 571              		.section	.text.SensorDataComTimer_ReadCounter,"ax",%progbits
 572              		.align	2
 573              		.global	SensorDataComTimer_ReadCounter
 574              		.thumb
 575              		.thumb_func
 576              		.type	SensorDataComTimer_ReadCounter, %function
 577              	SensorDataComTimer_ReadCounter:
 578              	.LFB13:
 492:Generated_Source\PSoC5/SensorDataComTimer.c **** 
 493:Generated_Source\PSoC5/SensorDataComTimer.c **** 
 494:Generated_Source\PSoC5/SensorDataComTimer.c **** /*******************************************************************************
 495:Generated_Source\PSoC5/SensorDataComTimer.c **** * Function Name: SensorDataComTimer_ReadCounter
 496:Generated_Source\PSoC5/SensorDataComTimer.c **** ********************************************************************************
 497:Generated_Source\PSoC5/SensorDataComTimer.c **** *
 498:Generated_Source\PSoC5/SensorDataComTimer.c **** * Summary:
 499:Generated_Source\PSoC5/SensorDataComTimer.c **** *  This function returns the current counter value.
 500:Generated_Source\PSoC5/SensorDataComTimer.c **** *
 501:Generated_Source\PSoC5/SensorDataComTimer.c **** * Parameters:
 502:Generated_Source\PSoC5/SensorDataComTimer.c **** *  void
 503:Generated_Source\PSoC5/SensorDataComTimer.c **** *
 504:Generated_Source\PSoC5/SensorDataComTimer.c **** * Return:
 505:Generated_Source\PSoC5/SensorDataComTimer.c **** *  Present compare value.
ARM GAS  C:\Users\tpbw4321\AppData\Local\Temp\ccxyUSIv.s 			page 20


 506:Generated_Source\PSoC5/SensorDataComTimer.c **** *
 507:Generated_Source\PSoC5/SensorDataComTimer.c **** *******************************************************************************/
 508:Generated_Source\PSoC5/SensorDataComTimer.c **** uint32 SensorDataComTimer_ReadCounter(void) 
 509:Generated_Source\PSoC5/SensorDataComTimer.c **** {
 579              		.loc 1 509 0
 580              		.cfi_startproc
 581              		@ args = 0, pretend = 0, frame = 0
 582              		@ frame_needed = 1, uses_anonymous_args = 0
 583              		@ link register save eliminated.
 584 0000 80B4     		push	{r7}
 585              		.cfi_def_cfa_offset 4
 586              		.cfi_offset 7, -4
 587 0002 00AF     		add	r7, sp, #0
 588              		.cfi_def_cfa_register 7
 510:Generated_Source\PSoC5/SensorDataComTimer.c ****     /* Force capture by reading Accumulator */
 511:Generated_Source\PSoC5/SensorDataComTimer.c ****     /* Must first do a software capture to be able to read the counter */
 512:Generated_Source\PSoC5/SensorDataComTimer.c ****     /* It is up to the user code to make sure there isn't already captured data in the FIFO */
 513:Generated_Source\PSoC5/SensorDataComTimer.c ****     #if(SensorDataComTimer_UsingFixedFunction)
 514:Generated_Source\PSoC5/SensorDataComTimer.c ****         (void)CY_GET_REG16(SensorDataComTimer_COUNTER_LSB_PTR);
 515:Generated_Source\PSoC5/SensorDataComTimer.c ****     #else
 516:Generated_Source\PSoC5/SensorDataComTimer.c ****         (void)CY_GET_REG8(SensorDataComTimer_COUNTER_LSB_PTR_8BIT);
 589              		.loc 1 516 0
 590 0004 044B     		ldr	r3, .L47
 591 0006 1B78     		ldrb	r3, [r3]
 517:Generated_Source\PSoC5/SensorDataComTimer.c ****     #endif/* (SensorDataComTimer_UsingFixedFunction) */
 518:Generated_Source\PSoC5/SensorDataComTimer.c **** 
 519:Generated_Source\PSoC5/SensorDataComTimer.c ****     /* Read the data from the FIFO (or capture register for Fixed Function)*/
 520:Generated_Source\PSoC5/SensorDataComTimer.c ****     #if(SensorDataComTimer_UsingFixedFunction)
 521:Generated_Source\PSoC5/SensorDataComTimer.c ****         return ((uint32)CY_GET_REG16(SensorDataComTimer_CAPTURE_LSB_PTR));
 522:Generated_Source\PSoC5/SensorDataComTimer.c ****     #else
 523:Generated_Source\PSoC5/SensorDataComTimer.c ****         return (CY_GET_REG24(SensorDataComTimer_CAPTURE_LSB_PTR));
 592              		.loc 1 523 0
 593 0008 044B     		ldr	r3, .L47+4
 594 000a 1B68     		ldr	r3, [r3]
 595 000c 23F07F43 		bic	r3, r3, #-16777216
 524:Generated_Source\PSoC5/SensorDataComTimer.c ****     #endif /* (SensorDataComTimer_UsingFixedFunction) */
 525:Generated_Source\PSoC5/SensorDataComTimer.c **** }
 596              		.loc 1 525 0
 597 0010 1846     		mov	r0, r3
 598 0012 BD46     		mov	sp, r7
 599              		.cfi_def_cfa_register 13
 600              		@ sp needed
 601 0014 80BC     		pop	{r7}
 602              		.cfi_restore 7
 603              		.cfi_def_cfa_offset 0
 604 0016 7047     		bx	lr
 605              	.L48:
 606              		.align	2
 607              	.L47:
 608 0018 07640040 		.word	1073767431
 609 001c 47640040 		.word	1073767495
 610              		.cfi_endproc
 611              	.LFE13:
 612              		.size	SensorDataComTimer_ReadCounter, .-SensorDataComTimer_ReadCounter
 613              		.section	.text.SensorDataComTimer_ClearFIFO,"ax",%progbits
 614              		.align	2
 615              		.global	SensorDataComTimer_ClearFIFO
ARM GAS  C:\Users\tpbw4321\AppData\Local\Temp\ccxyUSIv.s 			page 21


 616              		.thumb
 617              		.thumb_func
 618              		.type	SensorDataComTimer_ClearFIFO, %function
 619              	SensorDataComTimer_ClearFIFO:
 620              	.LFB14:
 526:Generated_Source\PSoC5/SensorDataComTimer.c **** 
 527:Generated_Source\PSoC5/SensorDataComTimer.c **** 
 528:Generated_Source\PSoC5/SensorDataComTimer.c **** #if(!SensorDataComTimer_UsingFixedFunction) /* UDB Specific Functions */
 529:Generated_Source\PSoC5/SensorDataComTimer.c **** 
 530:Generated_Source\PSoC5/SensorDataComTimer.c ****     
 531:Generated_Source\PSoC5/SensorDataComTimer.c **** /*******************************************************************************
 532:Generated_Source\PSoC5/SensorDataComTimer.c ****  * The functions below this point are only available using the UDB
 533:Generated_Source\PSoC5/SensorDataComTimer.c ****  * implementation.  If a feature is selected, then the API is enabled.
 534:Generated_Source\PSoC5/SensorDataComTimer.c ****  ******************************************************************************/
 535:Generated_Source\PSoC5/SensorDataComTimer.c **** 
 536:Generated_Source\PSoC5/SensorDataComTimer.c **** 
 537:Generated_Source\PSoC5/SensorDataComTimer.c **** #if (SensorDataComTimer_SoftwareCaptureMode)
 538:Generated_Source\PSoC5/SensorDataComTimer.c **** 
 539:Generated_Source\PSoC5/SensorDataComTimer.c **** 
 540:Generated_Source\PSoC5/SensorDataComTimer.c **** /*******************************************************************************
 541:Generated_Source\PSoC5/SensorDataComTimer.c **** * Function Name: SensorDataComTimer_SetCaptureMode
 542:Generated_Source\PSoC5/SensorDataComTimer.c **** ********************************************************************************
 543:Generated_Source\PSoC5/SensorDataComTimer.c **** *
 544:Generated_Source\PSoC5/SensorDataComTimer.c **** * Summary:
 545:Generated_Source\PSoC5/SensorDataComTimer.c **** *  This function sets the capture mode to either rising or falling edge.
 546:Generated_Source\PSoC5/SensorDataComTimer.c **** *
 547:Generated_Source\PSoC5/SensorDataComTimer.c **** * Parameters:
 548:Generated_Source\PSoC5/SensorDataComTimer.c **** *  captureMode: This parameter sets the capture mode of the UDB capture feature
 549:Generated_Source\PSoC5/SensorDataComTimer.c **** *  The parameter values are defined using the
 550:Generated_Source\PSoC5/SensorDataComTimer.c **** *  #define SensorDataComTimer__B_TIMER__CM_NONE 0
 551:Generated_Source\PSoC5/SensorDataComTimer.c **** #define SensorDataComTimer__B_TIMER__CM_RISINGEDGE 1
 552:Generated_Source\PSoC5/SensorDataComTimer.c **** #define SensorDataComTimer__B_TIMER__CM_FALLINGEDGE 2
 553:Generated_Source\PSoC5/SensorDataComTimer.c **** #define SensorDataComTimer__B_TIMER__CM_EITHEREDGE 3
 554:Generated_Source\PSoC5/SensorDataComTimer.c **** #define SensorDataComTimer__B_TIMER__CM_SOFTWARE 4
 555:Generated_Source\PSoC5/SensorDataComTimer.c ****  identifiers
 556:Generated_Source\PSoC5/SensorDataComTimer.c **** *  The following are the possible values of the parameter
 557:Generated_Source\PSoC5/SensorDataComTimer.c **** *  SensorDataComTimer__B_TIMER__CM_NONE        - Set Capture mode to None
 558:Generated_Source\PSoC5/SensorDataComTimer.c **** *  SensorDataComTimer__B_TIMER__CM_RISINGEDGE  - Rising edge of Capture input
 559:Generated_Source\PSoC5/SensorDataComTimer.c **** *  SensorDataComTimer__B_TIMER__CM_FALLINGEDGE - Falling edge of Capture input
 560:Generated_Source\PSoC5/SensorDataComTimer.c **** *  SensorDataComTimer__B_TIMER__CM_EITHEREDGE  - Either edge of Capture input
 561:Generated_Source\PSoC5/SensorDataComTimer.c **** *
 562:Generated_Source\PSoC5/SensorDataComTimer.c **** * Return:
 563:Generated_Source\PSoC5/SensorDataComTimer.c **** *  void
 564:Generated_Source\PSoC5/SensorDataComTimer.c **** *
 565:Generated_Source\PSoC5/SensorDataComTimer.c **** *******************************************************************************/
 566:Generated_Source\PSoC5/SensorDataComTimer.c **** void SensorDataComTimer_SetCaptureMode(uint8 captureMode) 
 567:Generated_Source\PSoC5/SensorDataComTimer.c **** {
 568:Generated_Source\PSoC5/SensorDataComTimer.c ****     /* This must only set to two bits of the control register associated */
 569:Generated_Source\PSoC5/SensorDataComTimer.c ****     captureMode = ((uint8)((uint8)captureMode << SensorDataComTimer_CTRL_CAP_MODE_SHIFT));
 570:Generated_Source\PSoC5/SensorDataComTimer.c ****     captureMode &= (SensorDataComTimer_CTRL_CAP_MODE_MASK);
 571:Generated_Source\PSoC5/SensorDataComTimer.c **** 
 572:Generated_Source\PSoC5/SensorDataComTimer.c ****     #if (!SensorDataComTimer_UDB_CONTROL_REG_REMOVED)
 573:Generated_Source\PSoC5/SensorDataComTimer.c ****         /* Clear the Current Setting */
 574:Generated_Source\PSoC5/SensorDataComTimer.c ****         SensorDataComTimer_CONTROL &= ((uint8)(~SensorDataComTimer_CTRL_CAP_MODE_MASK));
 575:Generated_Source\PSoC5/SensorDataComTimer.c **** 
 576:Generated_Source\PSoC5/SensorDataComTimer.c ****         /* Write The New Setting */
 577:Generated_Source\PSoC5/SensorDataComTimer.c ****         SensorDataComTimer_CONTROL |= captureMode;
ARM GAS  C:\Users\tpbw4321\AppData\Local\Temp\ccxyUSIv.s 			page 22


 578:Generated_Source\PSoC5/SensorDataComTimer.c ****     #endif /* (!SensorDataComTimer_UDB_CONTROL_REG_REMOVED) */
 579:Generated_Source\PSoC5/SensorDataComTimer.c **** }
 580:Generated_Source\PSoC5/SensorDataComTimer.c **** #endif /* Remove API if Capture Mode is not Software Controlled */
 581:Generated_Source\PSoC5/SensorDataComTimer.c **** 
 582:Generated_Source\PSoC5/SensorDataComTimer.c **** 
 583:Generated_Source\PSoC5/SensorDataComTimer.c **** #if (SensorDataComTimer_SoftwareTriggerMode)
 584:Generated_Source\PSoC5/SensorDataComTimer.c **** 
 585:Generated_Source\PSoC5/SensorDataComTimer.c **** 
 586:Generated_Source\PSoC5/SensorDataComTimer.c **** /*******************************************************************************
 587:Generated_Source\PSoC5/SensorDataComTimer.c **** * Function Name: SensorDataComTimer_SetTriggerMode
 588:Generated_Source\PSoC5/SensorDataComTimer.c **** ********************************************************************************
 589:Generated_Source\PSoC5/SensorDataComTimer.c **** *
 590:Generated_Source\PSoC5/SensorDataComTimer.c **** * Summary:
 591:Generated_Source\PSoC5/SensorDataComTimer.c **** *  This function sets the trigger input mode
 592:Generated_Source\PSoC5/SensorDataComTimer.c **** *
 593:Generated_Source\PSoC5/SensorDataComTimer.c **** * Parameters:
 594:Generated_Source\PSoC5/SensorDataComTimer.c **** *  triggerMode: Pass one of the pre-defined Trigger Modes (except Software)
 595:Generated_Source\PSoC5/SensorDataComTimer.c ****     #define SensorDataComTimer__B_TIMER__TM_NONE 0x00u
 596:Generated_Source\PSoC5/SensorDataComTimer.c ****     #define SensorDataComTimer__B_TIMER__TM_RISINGEDGE 0x04u
 597:Generated_Source\PSoC5/SensorDataComTimer.c ****     #define SensorDataComTimer__B_TIMER__TM_FALLINGEDGE 0x08u
 598:Generated_Source\PSoC5/SensorDataComTimer.c ****     #define SensorDataComTimer__B_TIMER__TM_EITHEREDGE 0x0Cu
 599:Generated_Source\PSoC5/SensorDataComTimer.c ****     #define SensorDataComTimer__B_TIMER__TM_SOFTWARE 0x10u
 600:Generated_Source\PSoC5/SensorDataComTimer.c **** *
 601:Generated_Source\PSoC5/SensorDataComTimer.c **** * Return:
 602:Generated_Source\PSoC5/SensorDataComTimer.c **** *  void
 603:Generated_Source\PSoC5/SensorDataComTimer.c **** *
 604:Generated_Source\PSoC5/SensorDataComTimer.c **** *******************************************************************************/
 605:Generated_Source\PSoC5/SensorDataComTimer.c **** void SensorDataComTimer_SetTriggerMode(uint8 triggerMode) 
 606:Generated_Source\PSoC5/SensorDataComTimer.c **** {
 607:Generated_Source\PSoC5/SensorDataComTimer.c ****     /* This must only set to two bits of the control register associated */
 608:Generated_Source\PSoC5/SensorDataComTimer.c ****     triggerMode &= SensorDataComTimer_CTRL_TRIG_MODE_MASK;
 609:Generated_Source\PSoC5/SensorDataComTimer.c **** 
 610:Generated_Source\PSoC5/SensorDataComTimer.c ****     #if (!SensorDataComTimer_UDB_CONTROL_REG_REMOVED)   /* Remove assignment if control register is
 611:Generated_Source\PSoC5/SensorDataComTimer.c ****     
 612:Generated_Source\PSoC5/SensorDataComTimer.c ****         /* Clear the Current Setting */
 613:Generated_Source\PSoC5/SensorDataComTimer.c ****         SensorDataComTimer_CONTROL &= ((uint8)(~SensorDataComTimer_CTRL_TRIG_MODE_MASK));
 614:Generated_Source\PSoC5/SensorDataComTimer.c **** 
 615:Generated_Source\PSoC5/SensorDataComTimer.c ****         /* Write The New Setting */
 616:Generated_Source\PSoC5/SensorDataComTimer.c ****         SensorDataComTimer_CONTROL |= (triggerMode | SensorDataComTimer__B_TIMER__TM_SOFTWARE);
 617:Generated_Source\PSoC5/SensorDataComTimer.c ****     #endif /* Remove code section if control register is not used */
 618:Generated_Source\PSoC5/SensorDataComTimer.c **** }
 619:Generated_Source\PSoC5/SensorDataComTimer.c **** #endif /* Remove API if Trigger Mode is not Software Controlled */
 620:Generated_Source\PSoC5/SensorDataComTimer.c **** 
 621:Generated_Source\PSoC5/SensorDataComTimer.c **** #if (SensorDataComTimer_EnableTriggerMode)
 622:Generated_Source\PSoC5/SensorDataComTimer.c **** 
 623:Generated_Source\PSoC5/SensorDataComTimer.c **** 
 624:Generated_Source\PSoC5/SensorDataComTimer.c **** /*******************************************************************************
 625:Generated_Source\PSoC5/SensorDataComTimer.c **** * Function Name: SensorDataComTimer_EnableTrigger
 626:Generated_Source\PSoC5/SensorDataComTimer.c **** ********************************************************************************
 627:Generated_Source\PSoC5/SensorDataComTimer.c **** *
 628:Generated_Source\PSoC5/SensorDataComTimer.c **** * Summary:
 629:Generated_Source\PSoC5/SensorDataComTimer.c **** *  Sets the control bit enabling Hardware Trigger mode
 630:Generated_Source\PSoC5/SensorDataComTimer.c **** *
 631:Generated_Source\PSoC5/SensorDataComTimer.c **** * Parameters:
 632:Generated_Source\PSoC5/SensorDataComTimer.c **** *  void
 633:Generated_Source\PSoC5/SensorDataComTimer.c **** *
 634:Generated_Source\PSoC5/SensorDataComTimer.c **** * Return:
ARM GAS  C:\Users\tpbw4321\AppData\Local\Temp\ccxyUSIv.s 			page 23


 635:Generated_Source\PSoC5/SensorDataComTimer.c **** *  void
 636:Generated_Source\PSoC5/SensorDataComTimer.c **** *
 637:Generated_Source\PSoC5/SensorDataComTimer.c **** *******************************************************************************/
 638:Generated_Source\PSoC5/SensorDataComTimer.c **** void SensorDataComTimer_EnableTrigger(void) 
 639:Generated_Source\PSoC5/SensorDataComTimer.c **** {
 640:Generated_Source\PSoC5/SensorDataComTimer.c ****     #if (!SensorDataComTimer_UDB_CONTROL_REG_REMOVED)   /* Remove assignment if control register is
 641:Generated_Source\PSoC5/SensorDataComTimer.c ****         SensorDataComTimer_CONTROL |= SensorDataComTimer_CTRL_TRIG_EN;
 642:Generated_Source\PSoC5/SensorDataComTimer.c ****     #endif /* Remove code section if control register is not used */
 643:Generated_Source\PSoC5/SensorDataComTimer.c **** }
 644:Generated_Source\PSoC5/SensorDataComTimer.c **** 
 645:Generated_Source\PSoC5/SensorDataComTimer.c **** 
 646:Generated_Source\PSoC5/SensorDataComTimer.c **** /*******************************************************************************
 647:Generated_Source\PSoC5/SensorDataComTimer.c **** * Function Name: SensorDataComTimer_DisableTrigger
 648:Generated_Source\PSoC5/SensorDataComTimer.c **** ********************************************************************************
 649:Generated_Source\PSoC5/SensorDataComTimer.c **** *
 650:Generated_Source\PSoC5/SensorDataComTimer.c **** * Summary:
 651:Generated_Source\PSoC5/SensorDataComTimer.c **** *  Clears the control bit enabling Hardware Trigger mode
 652:Generated_Source\PSoC5/SensorDataComTimer.c **** *
 653:Generated_Source\PSoC5/SensorDataComTimer.c **** * Parameters:
 654:Generated_Source\PSoC5/SensorDataComTimer.c **** *  void
 655:Generated_Source\PSoC5/SensorDataComTimer.c **** *
 656:Generated_Source\PSoC5/SensorDataComTimer.c **** * Return:
 657:Generated_Source\PSoC5/SensorDataComTimer.c **** *  void
 658:Generated_Source\PSoC5/SensorDataComTimer.c **** *
 659:Generated_Source\PSoC5/SensorDataComTimer.c **** *******************************************************************************/
 660:Generated_Source\PSoC5/SensorDataComTimer.c **** void SensorDataComTimer_DisableTrigger(void) 
 661:Generated_Source\PSoC5/SensorDataComTimer.c **** {
 662:Generated_Source\PSoC5/SensorDataComTimer.c ****     #if (!SensorDataComTimer_UDB_CONTROL_REG_REMOVED )   /* Remove assignment if control register i
 663:Generated_Source\PSoC5/SensorDataComTimer.c ****         SensorDataComTimer_CONTROL &= ((uint8)(~SensorDataComTimer_CTRL_TRIG_EN));
 664:Generated_Source\PSoC5/SensorDataComTimer.c ****     #endif /* Remove code section if control register is not used */
 665:Generated_Source\PSoC5/SensorDataComTimer.c **** }
 666:Generated_Source\PSoC5/SensorDataComTimer.c **** #endif /* Remove API is Trigger Mode is set to None */
 667:Generated_Source\PSoC5/SensorDataComTimer.c **** 
 668:Generated_Source\PSoC5/SensorDataComTimer.c **** #if(SensorDataComTimer_InterruptOnCaptureCount)
 669:Generated_Source\PSoC5/SensorDataComTimer.c **** 
 670:Generated_Source\PSoC5/SensorDataComTimer.c **** 
 671:Generated_Source\PSoC5/SensorDataComTimer.c **** /*******************************************************************************
 672:Generated_Source\PSoC5/SensorDataComTimer.c **** * Function Name: SensorDataComTimer_SetInterruptCount
 673:Generated_Source\PSoC5/SensorDataComTimer.c **** ********************************************************************************
 674:Generated_Source\PSoC5/SensorDataComTimer.c **** *
 675:Generated_Source\PSoC5/SensorDataComTimer.c **** * Summary:
 676:Generated_Source\PSoC5/SensorDataComTimer.c **** *  This function sets the capture count before an interrupt is triggered.
 677:Generated_Source\PSoC5/SensorDataComTimer.c **** *
 678:Generated_Source\PSoC5/SensorDataComTimer.c **** * Parameters:
 679:Generated_Source\PSoC5/SensorDataComTimer.c **** *  interruptCount:  A value between 0 and 3 is valid.  If the value is 0, then
 680:Generated_Source\PSoC5/SensorDataComTimer.c **** *                   an interrupt will occur each time a capture occurs.
 681:Generated_Source\PSoC5/SensorDataComTimer.c **** *                   A value of 1 to 3 will cause the interrupt
 682:Generated_Source\PSoC5/SensorDataComTimer.c **** *                   to delay by the same number of captures.
 683:Generated_Source\PSoC5/SensorDataComTimer.c **** *
 684:Generated_Source\PSoC5/SensorDataComTimer.c **** * Return:
 685:Generated_Source\PSoC5/SensorDataComTimer.c **** *  void
 686:Generated_Source\PSoC5/SensorDataComTimer.c **** *
 687:Generated_Source\PSoC5/SensorDataComTimer.c **** *******************************************************************************/
 688:Generated_Source\PSoC5/SensorDataComTimer.c **** void SensorDataComTimer_SetInterruptCount(uint8 interruptCount) 
 689:Generated_Source\PSoC5/SensorDataComTimer.c **** {
 690:Generated_Source\PSoC5/SensorDataComTimer.c ****     /* This must only set to two bits of the control register associated */
 691:Generated_Source\PSoC5/SensorDataComTimer.c ****     interruptCount &= SensorDataComTimer_CTRL_INTCNT_MASK;
ARM GAS  C:\Users\tpbw4321\AppData\Local\Temp\ccxyUSIv.s 			page 24


 692:Generated_Source\PSoC5/SensorDataComTimer.c **** 
 693:Generated_Source\PSoC5/SensorDataComTimer.c ****     #if (!SensorDataComTimer_UDB_CONTROL_REG_REMOVED)
 694:Generated_Source\PSoC5/SensorDataComTimer.c ****         /* Clear the Current Setting */
 695:Generated_Source\PSoC5/SensorDataComTimer.c ****         SensorDataComTimer_CONTROL &= ((uint8)(~SensorDataComTimer_CTRL_INTCNT_MASK));
 696:Generated_Source\PSoC5/SensorDataComTimer.c ****         /* Write The New Setting */
 697:Generated_Source\PSoC5/SensorDataComTimer.c ****         SensorDataComTimer_CONTROL |= interruptCount;
 698:Generated_Source\PSoC5/SensorDataComTimer.c ****     #endif /* (!SensorDataComTimer_UDB_CONTROL_REG_REMOVED) */
 699:Generated_Source\PSoC5/SensorDataComTimer.c **** }
 700:Generated_Source\PSoC5/SensorDataComTimer.c **** #endif /* SensorDataComTimer_InterruptOnCaptureCount */
 701:Generated_Source\PSoC5/SensorDataComTimer.c **** 
 702:Generated_Source\PSoC5/SensorDataComTimer.c **** 
 703:Generated_Source\PSoC5/SensorDataComTimer.c **** #if (SensorDataComTimer_UsingHWCaptureCounter)
 704:Generated_Source\PSoC5/SensorDataComTimer.c **** 
 705:Generated_Source\PSoC5/SensorDataComTimer.c **** 
 706:Generated_Source\PSoC5/SensorDataComTimer.c **** /*******************************************************************************
 707:Generated_Source\PSoC5/SensorDataComTimer.c **** * Function Name: SensorDataComTimer_SetCaptureCount
 708:Generated_Source\PSoC5/SensorDataComTimer.c **** ********************************************************************************
 709:Generated_Source\PSoC5/SensorDataComTimer.c **** *
 710:Generated_Source\PSoC5/SensorDataComTimer.c **** * Summary:
 711:Generated_Source\PSoC5/SensorDataComTimer.c **** *  This function sets the capture count
 712:Generated_Source\PSoC5/SensorDataComTimer.c **** *
 713:Generated_Source\PSoC5/SensorDataComTimer.c **** * Parameters:
 714:Generated_Source\PSoC5/SensorDataComTimer.c **** *  captureCount: A value between 2 and 127 inclusive is valid.  A value of 1
 715:Generated_Source\PSoC5/SensorDataComTimer.c **** *                to 127 will cause the interrupt to delay by the same number of
 716:Generated_Source\PSoC5/SensorDataComTimer.c **** *                captures.
 717:Generated_Source\PSoC5/SensorDataComTimer.c **** *
 718:Generated_Source\PSoC5/SensorDataComTimer.c **** * Return:
 719:Generated_Source\PSoC5/SensorDataComTimer.c **** *  void
 720:Generated_Source\PSoC5/SensorDataComTimer.c **** *
 721:Generated_Source\PSoC5/SensorDataComTimer.c **** *******************************************************************************/
 722:Generated_Source\PSoC5/SensorDataComTimer.c **** void SensorDataComTimer_SetCaptureCount(uint8 captureCount) 
 723:Generated_Source\PSoC5/SensorDataComTimer.c **** {
 724:Generated_Source\PSoC5/SensorDataComTimer.c ****     SensorDataComTimer_CAP_COUNT = captureCount;
 725:Generated_Source\PSoC5/SensorDataComTimer.c **** }
 726:Generated_Source\PSoC5/SensorDataComTimer.c **** 
 727:Generated_Source\PSoC5/SensorDataComTimer.c **** 
 728:Generated_Source\PSoC5/SensorDataComTimer.c **** /*******************************************************************************
 729:Generated_Source\PSoC5/SensorDataComTimer.c **** * Function Name: SensorDataComTimer_ReadCaptureCount
 730:Generated_Source\PSoC5/SensorDataComTimer.c **** ********************************************************************************
 731:Generated_Source\PSoC5/SensorDataComTimer.c **** *
 732:Generated_Source\PSoC5/SensorDataComTimer.c **** * Summary:
 733:Generated_Source\PSoC5/SensorDataComTimer.c **** *  This function reads the capture count setting
 734:Generated_Source\PSoC5/SensorDataComTimer.c **** *
 735:Generated_Source\PSoC5/SensorDataComTimer.c **** * Parameters:
 736:Generated_Source\PSoC5/SensorDataComTimer.c **** *  void
 737:Generated_Source\PSoC5/SensorDataComTimer.c **** *
 738:Generated_Source\PSoC5/SensorDataComTimer.c **** * Return:
 739:Generated_Source\PSoC5/SensorDataComTimer.c **** *  Returns the Capture Count Setting
 740:Generated_Source\PSoC5/SensorDataComTimer.c **** *
 741:Generated_Source\PSoC5/SensorDataComTimer.c **** *******************************************************************************/
 742:Generated_Source\PSoC5/SensorDataComTimer.c **** uint8 SensorDataComTimer_ReadCaptureCount(void) 
 743:Generated_Source\PSoC5/SensorDataComTimer.c **** {
 744:Generated_Source\PSoC5/SensorDataComTimer.c ****     return ((uint8)SensorDataComTimer_CAP_COUNT);
 745:Generated_Source\PSoC5/SensorDataComTimer.c **** }
 746:Generated_Source\PSoC5/SensorDataComTimer.c **** #endif /* SensorDataComTimer_UsingHWCaptureCounter */
 747:Generated_Source\PSoC5/SensorDataComTimer.c **** 
 748:Generated_Source\PSoC5/SensorDataComTimer.c **** 
ARM GAS  C:\Users\tpbw4321\AppData\Local\Temp\ccxyUSIv.s 			page 25


 749:Generated_Source\PSoC5/SensorDataComTimer.c **** /*******************************************************************************
 750:Generated_Source\PSoC5/SensorDataComTimer.c **** * Function Name: SensorDataComTimer_ClearFIFO
 751:Generated_Source\PSoC5/SensorDataComTimer.c **** ********************************************************************************
 752:Generated_Source\PSoC5/SensorDataComTimer.c **** *
 753:Generated_Source\PSoC5/SensorDataComTimer.c **** * Summary:
 754:Generated_Source\PSoC5/SensorDataComTimer.c **** *  This function clears all capture data from the capture FIFO
 755:Generated_Source\PSoC5/SensorDataComTimer.c **** *
 756:Generated_Source\PSoC5/SensorDataComTimer.c **** * Parameters:
 757:Generated_Source\PSoC5/SensorDataComTimer.c **** *  void
 758:Generated_Source\PSoC5/SensorDataComTimer.c **** *
 759:Generated_Source\PSoC5/SensorDataComTimer.c **** * Return:
 760:Generated_Source\PSoC5/SensorDataComTimer.c **** *  void
 761:Generated_Source\PSoC5/SensorDataComTimer.c **** *
 762:Generated_Source\PSoC5/SensorDataComTimer.c **** *******************************************************************************/
 763:Generated_Source\PSoC5/SensorDataComTimer.c **** void SensorDataComTimer_ClearFIFO(void) 
 764:Generated_Source\PSoC5/SensorDataComTimer.c **** {
 621              		.loc 1 764 0
 622              		.cfi_startproc
 623              		@ args = 0, pretend = 0, frame = 0
 624              		@ frame_needed = 1, uses_anonymous_args = 0
 625 0000 80B5     		push	{r7, lr}
 626              		.cfi_def_cfa_offset 8
 627              		.cfi_offset 7, -8
 628              		.cfi_offset 14, -4
 629 0002 00AF     		add	r7, sp, #0
 630              		.cfi_def_cfa_register 7
 765:Generated_Source\PSoC5/SensorDataComTimer.c ****     while(0u != (SensorDataComTimer_ReadStatusRegister() & SensorDataComTimer_STATUS_FIFONEMP))
 631              		.loc 1 765 0
 632 0004 01E0     		b	.L50
 633              	.L51:
 766:Generated_Source\PSoC5/SensorDataComTimer.c ****     {
 767:Generated_Source\PSoC5/SensorDataComTimer.c ****         (void)SensorDataComTimer_ReadCapture();
 634              		.loc 1 767 0
 635 0006 FFF7FEFF 		bl	SensorDataComTimer_ReadCapture
 636              	.L50:
 765:Generated_Source\PSoC5/SensorDataComTimer.c ****     while(0u != (SensorDataComTimer_ReadStatusRegister() & SensorDataComTimer_STATUS_FIFONEMP))
 637              		.loc 1 765 0
 638 000a FFF7FEFF 		bl	SensorDataComTimer_ReadStatusRegister
 639 000e 0346     		mov	r3, r0
 640 0010 03F00803 		and	r3, r3, #8
 641 0014 002B     		cmp	r3, #0
 642 0016 F6D1     		bne	.L51
 768:Generated_Source\PSoC5/SensorDataComTimer.c ****     }
 769:Generated_Source\PSoC5/SensorDataComTimer.c **** }
 643              		.loc 1 769 0
 644 0018 00BF     		nop
 645 001a 80BD     		pop	{r7, pc}
 646              		.cfi_endproc
 647              	.LFE14:
 648              		.size	SensorDataComTimer_ClearFIFO, .-SensorDataComTimer_ClearFIFO
 649              		.text
 650              	.Letext0:
 651              		.file 2 "Generated_Source\\PSoC5\\cytypes.h"