ARM GAS  C:\Users\tpbw4321\AppData\Local\Temp\ccpvo6pw.s 			page 1


   1              		.syntax unified
   2              		.cpu cortex-m3
   3              		.fpu softvfp
   4              		.eabi_attribute 20, 1
   5              		.eabi_attribute 21, 1
   6              		.eabi_attribute 23, 3
   7              		.eabi_attribute 24, 1
   8              		.eabi_attribute 25, 1
   9              		.eabi_attribute 26, 1
  10              		.eabi_attribute 30, 6
  11              		.eabi_attribute 34, 1
  12              		.eabi_attribute 18, 4
  13              		.thumb
  14              		.syntax unified
  15              		.file	"SenseSwitchTimer.c"
  16              		.text
  17              	.Ltext0:
  18              		.cfi_sections	.debug_frame
  19              		.global	SenseSwitchTimer_initVar
  20              		.bss
  21              		.type	SenseSwitchTimer_initVar, %object
  22              		.size	SenseSwitchTimer_initVar, 1
  23              	SenseSwitchTimer_initVar:
  24 0000 00       		.space	1
  25              		.section	.text.SenseSwitchTimer_Init,"ax",%progbits
  26              		.align	2
  27              		.global	SenseSwitchTimer_Init
  28              		.thumb
  29              		.thumb_func
  30              		.type	SenseSwitchTimer_Init, %function
  31              	SenseSwitchTimer_Init:
  32              	.LFB0:
  33              		.file 1 "Generated_Source\\PSoC5\\SenseSwitchTimer.c"
   1:Generated_Source\PSoC5/SenseSwitchTimer.c **** /*******************************************************************************
   2:Generated_Source\PSoC5/SenseSwitchTimer.c **** * File Name: SenseSwitchTimer.c
   3:Generated_Source\PSoC5/SenseSwitchTimer.c **** * Version 2.80
   4:Generated_Source\PSoC5/SenseSwitchTimer.c **** *
   5:Generated_Source\PSoC5/SenseSwitchTimer.c **** * Description:
   6:Generated_Source\PSoC5/SenseSwitchTimer.c **** *  The Timer component consists of a 8, 16, 24 or 32-bit timer with
   7:Generated_Source\PSoC5/SenseSwitchTimer.c **** *  a selectable period between 2 and 2^Width - 1.  The timer may free run
   8:Generated_Source\PSoC5/SenseSwitchTimer.c **** *  or be used as a capture timer as well.  The capture can be initiated
   9:Generated_Source\PSoC5/SenseSwitchTimer.c **** *  by a positive or negative edge signal as well as via software.
  10:Generated_Source\PSoC5/SenseSwitchTimer.c **** *  A trigger input can be programmed to enable the timer on rising edge
  11:Generated_Source\PSoC5/SenseSwitchTimer.c **** *  falling edge, either edge or continous run.
  12:Generated_Source\PSoC5/SenseSwitchTimer.c **** *  Interrupts may be generated due to a terminal count condition
  13:Generated_Source\PSoC5/SenseSwitchTimer.c **** *  or a capture event.
  14:Generated_Source\PSoC5/SenseSwitchTimer.c **** *
  15:Generated_Source\PSoC5/SenseSwitchTimer.c **** * Note:
  16:Generated_Source\PSoC5/SenseSwitchTimer.c **** *
  17:Generated_Source\PSoC5/SenseSwitchTimer.c **** ********************************************************************************
  18:Generated_Source\PSoC5/SenseSwitchTimer.c **** * Copyright 2008-2017, Cypress Semiconductor Corporation.  All rights reserved.
  19:Generated_Source\PSoC5/SenseSwitchTimer.c **** * You may use this file only in accordance with the license, terms, conditions,
  20:Generated_Source\PSoC5/SenseSwitchTimer.c **** * disclaimers, and limitations in the end user license agreement accompanying
  21:Generated_Source\PSoC5/SenseSwitchTimer.c **** * the software package with which this file was provided.
  22:Generated_Source\PSoC5/SenseSwitchTimer.c **** ********************************************************************************/
  23:Generated_Source\PSoC5/SenseSwitchTimer.c **** 
  24:Generated_Source\PSoC5/SenseSwitchTimer.c **** #include "SenseSwitchTimer.h"
ARM GAS  C:\Users\tpbw4321\AppData\Local\Temp\ccpvo6pw.s 			page 2


  25:Generated_Source\PSoC5/SenseSwitchTimer.c **** 
  26:Generated_Source\PSoC5/SenseSwitchTimer.c **** uint8 SenseSwitchTimer_initVar = 0u;
  27:Generated_Source\PSoC5/SenseSwitchTimer.c **** 
  28:Generated_Source\PSoC5/SenseSwitchTimer.c **** 
  29:Generated_Source\PSoC5/SenseSwitchTimer.c **** /*******************************************************************************
  30:Generated_Source\PSoC5/SenseSwitchTimer.c **** * Function Name: SenseSwitchTimer_Init
  31:Generated_Source\PSoC5/SenseSwitchTimer.c **** ********************************************************************************
  32:Generated_Source\PSoC5/SenseSwitchTimer.c **** *
  33:Generated_Source\PSoC5/SenseSwitchTimer.c **** * Summary:
  34:Generated_Source\PSoC5/SenseSwitchTimer.c **** *  Initialize to the schematic state
  35:Generated_Source\PSoC5/SenseSwitchTimer.c **** *
  36:Generated_Source\PSoC5/SenseSwitchTimer.c **** * Parameters:
  37:Generated_Source\PSoC5/SenseSwitchTimer.c **** *  void
  38:Generated_Source\PSoC5/SenseSwitchTimer.c **** *
  39:Generated_Source\PSoC5/SenseSwitchTimer.c **** * Return:
  40:Generated_Source\PSoC5/SenseSwitchTimer.c **** *  void
  41:Generated_Source\PSoC5/SenseSwitchTimer.c **** *
  42:Generated_Source\PSoC5/SenseSwitchTimer.c **** *******************************************************************************/
  43:Generated_Source\PSoC5/SenseSwitchTimer.c **** void SenseSwitchTimer_Init(void) 
  44:Generated_Source\PSoC5/SenseSwitchTimer.c **** {
  34              		.loc 1 44 0
  35              		.cfi_startproc
  36              		@ args = 0, pretend = 0, frame = 0
  37              		@ frame_needed = 1, uses_anonymous_args = 0
  38 0000 80B5     		push	{r7, lr}
  39              		.cfi_def_cfa_offset 8
  40              		.cfi_offset 7, -8
  41              		.cfi_offset 14, -4
  42 0002 00AF     		add	r7, sp, #0
  43              		.cfi_def_cfa_register 7
  45:Generated_Source\PSoC5/SenseSwitchTimer.c ****     #if(!SenseSwitchTimer_UsingFixedFunction)
  46:Generated_Source\PSoC5/SenseSwitchTimer.c ****             /* Interrupt State Backup for Critical Region*/
  47:Generated_Source\PSoC5/SenseSwitchTimer.c ****             uint8 SenseSwitchTimer_interruptState;
  48:Generated_Source\PSoC5/SenseSwitchTimer.c ****     #endif /* Interrupt state back up for Fixed Function only */
  49:Generated_Source\PSoC5/SenseSwitchTimer.c **** 
  50:Generated_Source\PSoC5/SenseSwitchTimer.c ****     #if (SenseSwitchTimer_UsingFixedFunction)
  51:Generated_Source\PSoC5/SenseSwitchTimer.c ****         /* Clear all bits but the enable bit (if it's already set) for Timer operation */
  52:Generated_Source\PSoC5/SenseSwitchTimer.c ****         SenseSwitchTimer_CONTROL &= SenseSwitchTimer_CTRL_ENABLE;
  44              		.loc 1 52 0
  45 0004 264A     		ldr	r2, .L2
  46 0006 264B     		ldr	r3, .L2
  47 0008 1B78     		ldrb	r3, [r3]
  48 000a DBB2     		uxtb	r3, r3
  49 000c 03F00103 		and	r3, r3, #1
  50 0010 DBB2     		uxtb	r3, r3
  51 0012 1370     		strb	r3, [r2]
  53:Generated_Source\PSoC5/SenseSwitchTimer.c **** 
  54:Generated_Source\PSoC5/SenseSwitchTimer.c ****         /* Clear the mode bits for continuous run mode */
  55:Generated_Source\PSoC5/SenseSwitchTimer.c ****         #if (CY_PSOC5A)
  56:Generated_Source\PSoC5/SenseSwitchTimer.c ****             SenseSwitchTimer_CONTROL2 &= ((uint8)(~SenseSwitchTimer_CTRL_MODE_MASK));
  57:Generated_Source\PSoC5/SenseSwitchTimer.c ****         #endif /* Clear bits in CONTROL2 only in PSOC5A */
  58:Generated_Source\PSoC5/SenseSwitchTimer.c **** 
  59:Generated_Source\PSoC5/SenseSwitchTimer.c ****         #if (CY_PSOC3 || CY_PSOC5LP)
  60:Generated_Source\PSoC5/SenseSwitchTimer.c ****             SenseSwitchTimer_CONTROL3 &= ((uint8)(~SenseSwitchTimer_CTRL_MODE_MASK));
  52              		.loc 1 60 0
  53 0014 234A     		ldr	r2, .L2+4
  54 0016 234B     		ldr	r3, .L2+4
ARM GAS  C:\Users\tpbw4321\AppData\Local\Temp\ccpvo6pw.s 			page 3


  55 0018 1B78     		ldrb	r3, [r3]
  56 001a DBB2     		uxtb	r3, r3
  57 001c 23F00303 		bic	r3, r3, #3
  58 0020 DBB2     		uxtb	r3, r3
  59 0022 1370     		strb	r3, [r2]
  61:Generated_Source\PSoC5/SenseSwitchTimer.c ****         #endif /* CONTROL3 register exists only in PSoC3 OR PSoC5LP */
  62:Generated_Source\PSoC5/SenseSwitchTimer.c **** 
  63:Generated_Source\PSoC5/SenseSwitchTimer.c ****         /* Check if One Shot mode is enabled i.e. RunMode !=0*/
  64:Generated_Source\PSoC5/SenseSwitchTimer.c ****         #if (SenseSwitchTimer_RunModeUsed != 0x0u)
  65:Generated_Source\PSoC5/SenseSwitchTimer.c ****             /* Set 3rd bit of Control register to enable one shot mode */
  66:Generated_Source\PSoC5/SenseSwitchTimer.c ****             SenseSwitchTimer_CONTROL |= 0x04u;
  60              		.loc 1 66 0
  61 0024 1E4A     		ldr	r2, .L2
  62 0026 1E4B     		ldr	r3, .L2
  63 0028 1B78     		ldrb	r3, [r3]
  64 002a DBB2     		uxtb	r3, r3
  65 002c 43F00403 		orr	r3, r3, #4
  66 0030 DBB2     		uxtb	r3, r3
  67 0032 1370     		strb	r3, [r2]
  67:Generated_Source\PSoC5/SenseSwitchTimer.c ****         #endif /* One Shot enabled only when RunModeUsed is not Continuous*/
  68:Generated_Source\PSoC5/SenseSwitchTimer.c **** 
  69:Generated_Source\PSoC5/SenseSwitchTimer.c ****         #if (SenseSwitchTimer_RunModeUsed == 2)
  70:Generated_Source\PSoC5/SenseSwitchTimer.c ****             #if (CY_PSOC5A)
  71:Generated_Source\PSoC5/SenseSwitchTimer.c ****                 /* Set last 2 bits of control2 register if one shot(halt on
  72:Generated_Source\PSoC5/SenseSwitchTimer.c ****                 interrupt) is enabled*/
  73:Generated_Source\PSoC5/SenseSwitchTimer.c ****                 SenseSwitchTimer_CONTROL2 |= 0x03u;
  74:Generated_Source\PSoC5/SenseSwitchTimer.c ****             #endif /* Set One-Shot Halt on Interrupt bit in CONTROL2 for PSoC5A */
  75:Generated_Source\PSoC5/SenseSwitchTimer.c **** 
  76:Generated_Source\PSoC5/SenseSwitchTimer.c ****             #if (CY_PSOC3 || CY_PSOC5LP)
  77:Generated_Source\PSoC5/SenseSwitchTimer.c ****                 /* Set last 2 bits of control3 register if one shot(halt on
  78:Generated_Source\PSoC5/SenseSwitchTimer.c ****                 interrupt) is enabled*/
  79:Generated_Source\PSoC5/SenseSwitchTimer.c ****                 SenseSwitchTimer_CONTROL3 |= 0x03u;
  80:Generated_Source\PSoC5/SenseSwitchTimer.c ****             #endif /* Set One-Shot Halt on Interrupt bit in CONTROL3 for PSoC3 or PSoC5LP */
  81:Generated_Source\PSoC5/SenseSwitchTimer.c **** 
  82:Generated_Source\PSoC5/SenseSwitchTimer.c ****         #endif /* Remove section if One Shot Halt on Interrupt is not enabled */
  83:Generated_Source\PSoC5/SenseSwitchTimer.c **** 
  84:Generated_Source\PSoC5/SenseSwitchTimer.c ****         #if (SenseSwitchTimer_UsingHWEnable != 0)
  85:Generated_Source\PSoC5/SenseSwitchTimer.c ****             #if (CY_PSOC5A)
  86:Generated_Source\PSoC5/SenseSwitchTimer.c ****                 /* Set the default Run Mode of the Timer to Continuous */
  87:Generated_Source\PSoC5/SenseSwitchTimer.c ****                 SenseSwitchTimer_CONTROL2 |= SenseSwitchTimer_CTRL_MODE_PULSEWIDTH;
  88:Generated_Source\PSoC5/SenseSwitchTimer.c ****             #endif /* Set Continuous Run Mode in CONTROL2 for PSoC5A */
  89:Generated_Source\PSoC5/SenseSwitchTimer.c **** 
  90:Generated_Source\PSoC5/SenseSwitchTimer.c ****             #if (CY_PSOC3 || CY_PSOC5LP)
  91:Generated_Source\PSoC5/SenseSwitchTimer.c ****                 /* Clear and Set ROD and COD bits of CFG2 register */
  92:Generated_Source\PSoC5/SenseSwitchTimer.c ****                 SenseSwitchTimer_CONTROL3 &= ((uint8)(~SenseSwitchTimer_CTRL_RCOD_MASK));
  93:Generated_Source\PSoC5/SenseSwitchTimer.c ****                 SenseSwitchTimer_CONTROL3 |= SenseSwitchTimer_CTRL_RCOD;
  94:Generated_Source\PSoC5/SenseSwitchTimer.c **** 
  95:Generated_Source\PSoC5/SenseSwitchTimer.c ****                 /* Clear and Enable the HW enable bit in CFG2 register */
  96:Generated_Source\PSoC5/SenseSwitchTimer.c ****                 SenseSwitchTimer_CONTROL3 &= ((uint8)(~SenseSwitchTimer_CTRL_ENBL_MASK));
  97:Generated_Source\PSoC5/SenseSwitchTimer.c ****                 SenseSwitchTimer_CONTROL3 |= SenseSwitchTimer_CTRL_ENBL;
  98:Generated_Source\PSoC5/SenseSwitchTimer.c **** 
  99:Generated_Source\PSoC5/SenseSwitchTimer.c ****                 /* Set the default Run Mode of the Timer to Continuous */
 100:Generated_Source\PSoC5/SenseSwitchTimer.c ****                 SenseSwitchTimer_CONTROL3 |= SenseSwitchTimer_CTRL_MODE_CONTINUOUS;
 101:Generated_Source\PSoC5/SenseSwitchTimer.c ****             #endif /* Set Continuous Run Mode in CONTROL3 for PSoC3ES3 or PSoC5A */
 102:Generated_Source\PSoC5/SenseSwitchTimer.c **** 
 103:Generated_Source\PSoC5/SenseSwitchTimer.c ****         #endif /* Configure Run Mode with hardware enable */
 104:Generated_Source\PSoC5/SenseSwitchTimer.c **** 
ARM GAS  C:\Users\tpbw4321\AppData\Local\Temp\ccpvo6pw.s 			page 4


 105:Generated_Source\PSoC5/SenseSwitchTimer.c ****         /* Clear and Set SYNCTC and SYNCCMP bits of RT1 register */
 106:Generated_Source\PSoC5/SenseSwitchTimer.c ****         SenseSwitchTimer_RT1 &= ((uint8)(~SenseSwitchTimer_RT1_MASK));
  68              		.loc 1 106 0
  69 0034 1C4A     		ldr	r2, .L2+8
  70 0036 1C4B     		ldr	r3, .L2+8
  71 0038 1B78     		ldrb	r3, [r3]
  72 003a DBB2     		uxtb	r3, r3
  73 003c 23F03003 		bic	r3, r3, #48
  74 0040 DBB2     		uxtb	r3, r3
  75 0042 1370     		strb	r3, [r2]
 107:Generated_Source\PSoC5/SenseSwitchTimer.c ****         SenseSwitchTimer_RT1 |= SenseSwitchTimer_SYNC;
  76              		.loc 1 107 0
  77 0044 184A     		ldr	r2, .L2+8
  78 0046 184B     		ldr	r3, .L2+8
  79 0048 1B78     		ldrb	r3, [r3]
  80 004a DBB2     		uxtb	r3, r3
  81 004c 43F03003 		orr	r3, r3, #48
  82 0050 DBB2     		uxtb	r3, r3
  83 0052 1370     		strb	r3, [r2]
 108:Generated_Source\PSoC5/SenseSwitchTimer.c **** 
 109:Generated_Source\PSoC5/SenseSwitchTimer.c ****         /*Enable DSI Sync all all inputs of the Timer*/
 110:Generated_Source\PSoC5/SenseSwitchTimer.c ****         SenseSwitchTimer_RT1 &= ((uint8)(~SenseSwitchTimer_SYNCDSI_MASK));
  84              		.loc 1 110 0
  85 0054 144A     		ldr	r2, .L2+8
  86 0056 144B     		ldr	r3, .L2+8
  87 0058 1B78     		ldrb	r3, [r3]
  88 005a DBB2     		uxtb	r3, r3
  89 005c 23F00F03 		bic	r3, r3, #15
  90 0060 DBB2     		uxtb	r3, r3
  91 0062 1370     		strb	r3, [r2]
 111:Generated_Source\PSoC5/SenseSwitchTimer.c ****         SenseSwitchTimer_RT1 |= SenseSwitchTimer_SYNCDSI_EN;
  92              		.loc 1 111 0
  93 0064 104A     		ldr	r2, .L2+8
  94 0066 104B     		ldr	r3, .L2+8
  95 0068 1B78     		ldrb	r3, [r3]
  96 006a DBB2     		uxtb	r3, r3
  97 006c 43F00F03 		orr	r3, r3, #15
  98 0070 DBB2     		uxtb	r3, r3
  99 0072 1370     		strb	r3, [r2]
 112:Generated_Source\PSoC5/SenseSwitchTimer.c **** 
 113:Generated_Source\PSoC5/SenseSwitchTimer.c ****         /* Set the IRQ to use the status register interrupts */
 114:Generated_Source\PSoC5/SenseSwitchTimer.c ****         SenseSwitchTimer_CONTROL2 |= SenseSwitchTimer_CTRL2_IRQ_SEL;
 100              		.loc 1 114 0
 101 0074 0D4A     		ldr	r2, .L2+12
 102 0076 0D4B     		ldr	r3, .L2+12
 103 0078 1B78     		ldrb	r3, [r3]
 104 007a DBB2     		uxtb	r3, r3
 105 007c 43F00103 		orr	r3, r3, #1
 106 0080 DBB2     		uxtb	r3, r3
 107 0082 1370     		strb	r3, [r2]
 115:Generated_Source\PSoC5/SenseSwitchTimer.c ****     #endif /* Configuring registers of fixed function implementation */
 116:Generated_Source\PSoC5/SenseSwitchTimer.c **** 
 117:Generated_Source\PSoC5/SenseSwitchTimer.c ****     /* Set Initial values from Configuration */
 118:Generated_Source\PSoC5/SenseSwitchTimer.c ****     SenseSwitchTimer_WritePeriod(SenseSwitchTimer_INIT_PERIOD);
 108              		.loc 1 118 0
 109 0084 41F64B50 		movw	r0, #7499
 110 0088 FFF7FEFF 		bl	SenseSwitchTimer_WritePeriod
ARM GAS  C:\Users\tpbw4321\AppData\Local\Temp\ccpvo6pw.s 			page 5


 119:Generated_Source\PSoC5/SenseSwitchTimer.c ****     SenseSwitchTimer_WriteCounter(SenseSwitchTimer_INIT_PERIOD);
 111              		.loc 1 119 0
 112 008c 41F64B50 		movw	r0, #7499
 113 0090 FFF7FEFF 		bl	SenseSwitchTimer_WriteCounter
 120:Generated_Source\PSoC5/SenseSwitchTimer.c **** 
 121:Generated_Source\PSoC5/SenseSwitchTimer.c ****     #if (SenseSwitchTimer_UsingHWCaptureCounter)/* Capture counter is enabled */
 122:Generated_Source\PSoC5/SenseSwitchTimer.c ****         SenseSwitchTimer_CAPTURE_COUNT_CTRL |= SenseSwitchTimer_CNTR_ENABLE;
 123:Generated_Source\PSoC5/SenseSwitchTimer.c ****         SenseSwitchTimer_SetCaptureCount(SenseSwitchTimer_INIT_CAPTURE_COUNT);
 124:Generated_Source\PSoC5/SenseSwitchTimer.c ****     #endif /* Configure capture counter value */
 125:Generated_Source\PSoC5/SenseSwitchTimer.c **** 
 126:Generated_Source\PSoC5/SenseSwitchTimer.c ****     #if (!SenseSwitchTimer_UsingFixedFunction)
 127:Generated_Source\PSoC5/SenseSwitchTimer.c ****         #if (SenseSwitchTimer_SoftwareCaptureMode)
 128:Generated_Source\PSoC5/SenseSwitchTimer.c ****             SenseSwitchTimer_SetCaptureMode(SenseSwitchTimer_INIT_CAPTURE_MODE);
 129:Generated_Source\PSoC5/SenseSwitchTimer.c ****         #endif /* Set Capture Mode for UDB implementation if capture mode is software controlled */
 130:Generated_Source\PSoC5/SenseSwitchTimer.c **** 
 131:Generated_Source\PSoC5/SenseSwitchTimer.c ****         #if (SenseSwitchTimer_SoftwareTriggerMode)
 132:Generated_Source\PSoC5/SenseSwitchTimer.c ****             #if (!SenseSwitchTimer_UDB_CONTROL_REG_REMOVED)
 133:Generated_Source\PSoC5/SenseSwitchTimer.c ****                 if (0u == (SenseSwitchTimer_CONTROL & SenseSwitchTimer__B_TIMER__TM_SOFTWARE))
 134:Generated_Source\PSoC5/SenseSwitchTimer.c ****                 {
 135:Generated_Source\PSoC5/SenseSwitchTimer.c ****                     SenseSwitchTimer_SetTriggerMode(SenseSwitchTimer_INIT_TRIGGER_MODE);
 136:Generated_Source\PSoC5/SenseSwitchTimer.c ****                 }
 137:Generated_Source\PSoC5/SenseSwitchTimer.c ****             #endif /* (!SenseSwitchTimer_UDB_CONTROL_REG_REMOVED) */
 138:Generated_Source\PSoC5/SenseSwitchTimer.c ****         #endif /* Set trigger mode for UDB Implementation if trigger mode is software controlled */
 139:Generated_Source\PSoC5/SenseSwitchTimer.c **** 
 140:Generated_Source\PSoC5/SenseSwitchTimer.c ****         /* CyEnterCriticalRegion and CyExitCriticalRegion are used to mark following region critica
 141:Generated_Source\PSoC5/SenseSwitchTimer.c ****         /* Enter Critical Region*/
 142:Generated_Source\PSoC5/SenseSwitchTimer.c ****         SenseSwitchTimer_interruptState = CyEnterCriticalSection();
 143:Generated_Source\PSoC5/SenseSwitchTimer.c **** 
 144:Generated_Source\PSoC5/SenseSwitchTimer.c ****         /* Use the interrupt output of the status register for IRQ output */
 145:Generated_Source\PSoC5/SenseSwitchTimer.c ****         SenseSwitchTimer_STATUS_AUX_CTRL |= SenseSwitchTimer_STATUS_ACTL_INT_EN_MASK;
 146:Generated_Source\PSoC5/SenseSwitchTimer.c **** 
 147:Generated_Source\PSoC5/SenseSwitchTimer.c ****         /* Exit Critical Region*/
 148:Generated_Source\PSoC5/SenseSwitchTimer.c ****         CyExitCriticalSection(SenseSwitchTimer_interruptState);
 149:Generated_Source\PSoC5/SenseSwitchTimer.c **** 
 150:Generated_Source\PSoC5/SenseSwitchTimer.c ****         #if (SenseSwitchTimer_EnableTriggerMode)
 151:Generated_Source\PSoC5/SenseSwitchTimer.c ****             SenseSwitchTimer_EnableTrigger();
 152:Generated_Source\PSoC5/SenseSwitchTimer.c ****         #endif /* Set Trigger enable bit for UDB implementation in the control register*/
 153:Generated_Source\PSoC5/SenseSwitchTimer.c **** 		
 154:Generated_Source\PSoC5/SenseSwitchTimer.c **** 		
 155:Generated_Source\PSoC5/SenseSwitchTimer.c ****         #if (SenseSwitchTimer_InterruptOnCaptureCount && !SenseSwitchTimer_UDB_CONTROL_REG_REMOVED)
 156:Generated_Source\PSoC5/SenseSwitchTimer.c ****             SenseSwitchTimer_SetInterruptCount(SenseSwitchTimer_INIT_INT_CAPTURE_COUNT);
 157:Generated_Source\PSoC5/SenseSwitchTimer.c ****         #endif /* Set interrupt count in UDB implementation if interrupt count feature is checked.*
 158:Generated_Source\PSoC5/SenseSwitchTimer.c **** 
 159:Generated_Source\PSoC5/SenseSwitchTimer.c ****         SenseSwitchTimer_ClearFIFO();
 160:Generated_Source\PSoC5/SenseSwitchTimer.c ****     #endif /* Configure additional features of UDB implementation */
 161:Generated_Source\PSoC5/SenseSwitchTimer.c **** 
 162:Generated_Source\PSoC5/SenseSwitchTimer.c ****     SenseSwitchTimer_SetInterruptMode(SenseSwitchTimer_INIT_INTERRUPT_MODE);
 114              		.loc 1 162 0
 115 0094 0820     		movs	r0, #8
 116 0096 FFF7FEFF 		bl	SenseSwitchTimer_SetInterruptMode
 163:Generated_Source\PSoC5/SenseSwitchTimer.c **** }
 117              		.loc 1 163 0
 118 009a 00BF     		nop
 119 009c 80BD     		pop	{r7, pc}
 120              	.L3:
 121 009e 00BF     		.align	2
 122              	.L2:
ARM GAS  C:\Users\tpbw4321\AppData\Local\Temp\ccpvo6pw.s 			page 6


 123 00a0 0C4F0040 		.word	1073762060
 124 00a4 0E4F0040 		.word	1073762062
 125 00a8 174F0040 		.word	1073762071
 126 00ac 0D4F0040 		.word	1073762061
 127              		.cfi_endproc
 128              	.LFE0:
 129              		.size	SenseSwitchTimer_Init, .-SenseSwitchTimer_Init
 130              		.section	.text.SenseSwitchTimer_Enable,"ax",%progbits
 131              		.align	2
 132              		.global	SenseSwitchTimer_Enable
 133              		.thumb
 134              		.thumb_func
 135              		.type	SenseSwitchTimer_Enable, %function
 136              	SenseSwitchTimer_Enable:
 137              	.LFB1:
 164:Generated_Source\PSoC5/SenseSwitchTimer.c **** 
 165:Generated_Source\PSoC5/SenseSwitchTimer.c **** 
 166:Generated_Source\PSoC5/SenseSwitchTimer.c **** /*******************************************************************************
 167:Generated_Source\PSoC5/SenseSwitchTimer.c **** * Function Name: SenseSwitchTimer_Enable
 168:Generated_Source\PSoC5/SenseSwitchTimer.c **** ********************************************************************************
 169:Generated_Source\PSoC5/SenseSwitchTimer.c **** *
 170:Generated_Source\PSoC5/SenseSwitchTimer.c **** * Summary:
 171:Generated_Source\PSoC5/SenseSwitchTimer.c **** *  Enable the Timer
 172:Generated_Source\PSoC5/SenseSwitchTimer.c **** *
 173:Generated_Source\PSoC5/SenseSwitchTimer.c **** * Parameters:
 174:Generated_Source\PSoC5/SenseSwitchTimer.c **** *  void
 175:Generated_Source\PSoC5/SenseSwitchTimer.c **** *
 176:Generated_Source\PSoC5/SenseSwitchTimer.c **** * Return:
 177:Generated_Source\PSoC5/SenseSwitchTimer.c **** *  void
 178:Generated_Source\PSoC5/SenseSwitchTimer.c **** *
 179:Generated_Source\PSoC5/SenseSwitchTimer.c **** *******************************************************************************/
 180:Generated_Source\PSoC5/SenseSwitchTimer.c **** void SenseSwitchTimer_Enable(void) 
 181:Generated_Source\PSoC5/SenseSwitchTimer.c **** {
 138              		.loc 1 181 0
 139              		.cfi_startproc
 140              		@ args = 0, pretend = 0, frame = 0
 141              		@ frame_needed = 1, uses_anonymous_args = 0
 142              		@ link register save eliminated.
 143 0000 80B4     		push	{r7}
 144              		.cfi_def_cfa_offset 4
 145              		.cfi_offset 7, -4
 146 0002 00AF     		add	r7, sp, #0
 147              		.cfi_def_cfa_register 7
 182:Generated_Source\PSoC5/SenseSwitchTimer.c ****     /* Globally Enable the Fixed Function Block chosen */
 183:Generated_Source\PSoC5/SenseSwitchTimer.c ****     #if (SenseSwitchTimer_UsingFixedFunction)
 184:Generated_Source\PSoC5/SenseSwitchTimer.c ****         SenseSwitchTimer_GLOBAL_ENABLE |= SenseSwitchTimer_BLOCK_EN_MASK;
 148              		.loc 1 184 0
 149 0004 0D4A     		ldr	r2, .L5
 150 0006 0D4B     		ldr	r3, .L5
 151 0008 1B78     		ldrb	r3, [r3]
 152 000a DBB2     		uxtb	r3, r3
 153 000c 43F00203 		orr	r3, r3, #2
 154 0010 DBB2     		uxtb	r3, r3
 155 0012 1370     		strb	r3, [r2]
 185:Generated_Source\PSoC5/SenseSwitchTimer.c ****         SenseSwitchTimer_GLOBAL_STBY_ENABLE |= SenseSwitchTimer_BLOCK_STBY_EN_MASK;
 156              		.loc 1 185 0
 157 0014 0A4A     		ldr	r2, .L5+4
ARM GAS  C:\Users\tpbw4321\AppData\Local\Temp\ccpvo6pw.s 			page 7


 158 0016 0A4B     		ldr	r3, .L5+4
 159 0018 1B78     		ldrb	r3, [r3]
 160 001a DBB2     		uxtb	r3, r3
 161 001c 43F00203 		orr	r3, r3, #2
 162 0020 DBB2     		uxtb	r3, r3
 163 0022 1370     		strb	r3, [r2]
 186:Generated_Source\PSoC5/SenseSwitchTimer.c ****     #endif /* Set Enable bit for enabling Fixed function timer*/
 187:Generated_Source\PSoC5/SenseSwitchTimer.c **** 
 188:Generated_Source\PSoC5/SenseSwitchTimer.c ****     /* Remove assignment if control register is removed */
 189:Generated_Source\PSoC5/SenseSwitchTimer.c ****     #if (!SenseSwitchTimer_UDB_CONTROL_REG_REMOVED || SenseSwitchTimer_UsingFixedFunction)
 190:Generated_Source\PSoC5/SenseSwitchTimer.c ****         SenseSwitchTimer_CONTROL |= SenseSwitchTimer_CTRL_ENABLE;
 164              		.loc 1 190 0
 165 0024 074A     		ldr	r2, .L5+8
 166 0026 074B     		ldr	r3, .L5+8
 167 0028 1B78     		ldrb	r3, [r3]
 168 002a DBB2     		uxtb	r3, r3
 169 002c 43F00103 		orr	r3, r3, #1
 170 0030 DBB2     		uxtb	r3, r3
 171 0032 1370     		strb	r3, [r2]
 191:Generated_Source\PSoC5/SenseSwitchTimer.c ****     #endif /* Remove assignment if control register is removed */
 192:Generated_Source\PSoC5/SenseSwitchTimer.c **** }
 172              		.loc 1 192 0
 173 0034 00BF     		nop
 174 0036 BD46     		mov	sp, r7
 175              		.cfi_def_cfa_register 13
 176              		@ sp needed
 177 0038 80BC     		pop	{r7}
 178              		.cfi_restore 7
 179              		.cfi_def_cfa_offset 0
 180 003a 7047     		bx	lr
 181              	.L6:
 182              		.align	2
 183              	.L5:
 184 003c A3430040 		.word	1073759139
 185 0040 B3430040 		.word	1073759155
 186 0044 0C4F0040 		.word	1073762060
 187              		.cfi_endproc
 188              	.LFE1:
 189              		.size	SenseSwitchTimer_Enable, .-SenseSwitchTimer_Enable
 190              		.section	.text.SenseSwitchTimer_Start,"ax",%progbits
 191              		.align	2
 192              		.global	SenseSwitchTimer_Start
 193              		.thumb
 194              		.thumb_func
 195              		.type	SenseSwitchTimer_Start, %function
 196              	SenseSwitchTimer_Start:
 197              	.LFB2:
 193:Generated_Source\PSoC5/SenseSwitchTimer.c **** 
 194:Generated_Source\PSoC5/SenseSwitchTimer.c **** 
 195:Generated_Source\PSoC5/SenseSwitchTimer.c **** /*******************************************************************************
 196:Generated_Source\PSoC5/SenseSwitchTimer.c **** * Function Name: SenseSwitchTimer_Start
 197:Generated_Source\PSoC5/SenseSwitchTimer.c **** ********************************************************************************
 198:Generated_Source\PSoC5/SenseSwitchTimer.c **** *
 199:Generated_Source\PSoC5/SenseSwitchTimer.c **** * Summary:
 200:Generated_Source\PSoC5/SenseSwitchTimer.c **** *  The start function initializes the timer with the default values, the
 201:Generated_Source\PSoC5/SenseSwitchTimer.c **** *  enables the timerto begin counting.  It does not enable interrupts,
 202:Generated_Source\PSoC5/SenseSwitchTimer.c **** *  the EnableInt command should be called if interrupt generation is required.
ARM GAS  C:\Users\tpbw4321\AppData\Local\Temp\ccpvo6pw.s 			page 8


 203:Generated_Source\PSoC5/SenseSwitchTimer.c **** *
 204:Generated_Source\PSoC5/SenseSwitchTimer.c **** * Parameters:
 205:Generated_Source\PSoC5/SenseSwitchTimer.c **** *  void
 206:Generated_Source\PSoC5/SenseSwitchTimer.c **** *
 207:Generated_Source\PSoC5/SenseSwitchTimer.c **** * Return:
 208:Generated_Source\PSoC5/SenseSwitchTimer.c **** *  void
 209:Generated_Source\PSoC5/SenseSwitchTimer.c **** *
 210:Generated_Source\PSoC5/SenseSwitchTimer.c **** * Global variables:
 211:Generated_Source\PSoC5/SenseSwitchTimer.c **** *  SenseSwitchTimer_initVar: Is modified when this function is called for the
 212:Generated_Source\PSoC5/SenseSwitchTimer.c **** *   first time. Is used to ensure that initialization happens only once.
 213:Generated_Source\PSoC5/SenseSwitchTimer.c **** *
 214:Generated_Source\PSoC5/SenseSwitchTimer.c **** *******************************************************************************/
 215:Generated_Source\PSoC5/SenseSwitchTimer.c **** void SenseSwitchTimer_Start(void) 
 216:Generated_Source\PSoC5/SenseSwitchTimer.c **** {
 198              		.loc 1 216 0
 199              		.cfi_startproc
 200              		@ args = 0, pretend = 0, frame = 0
 201              		@ frame_needed = 1, uses_anonymous_args = 0
 202 0000 80B5     		push	{r7, lr}
 203              		.cfi_def_cfa_offset 8
 204              		.cfi_offset 7, -8
 205              		.cfi_offset 14, -4
 206 0002 00AF     		add	r7, sp, #0
 207              		.cfi_def_cfa_register 7
 217:Generated_Source\PSoC5/SenseSwitchTimer.c ****     if(SenseSwitchTimer_initVar == 0u)
 208              		.loc 1 217 0
 209 0004 064B     		ldr	r3, .L9
 210 0006 1B78     		ldrb	r3, [r3]	@ zero_extendqisi2
 211 0008 002B     		cmp	r3, #0
 212 000a 04D1     		bne	.L8
 218:Generated_Source\PSoC5/SenseSwitchTimer.c ****     {
 219:Generated_Source\PSoC5/SenseSwitchTimer.c ****         SenseSwitchTimer_Init();
 213              		.loc 1 219 0
 214 000c FFF7FEFF 		bl	SenseSwitchTimer_Init
 220:Generated_Source\PSoC5/SenseSwitchTimer.c **** 
 221:Generated_Source\PSoC5/SenseSwitchTimer.c ****         SenseSwitchTimer_initVar = 1u;   /* Clear this bit for Initialization */
 215              		.loc 1 221 0
 216 0010 034B     		ldr	r3, .L9
 217 0012 0122     		movs	r2, #1
 218 0014 1A70     		strb	r2, [r3]
 219              	.L8:
 222:Generated_Source\PSoC5/SenseSwitchTimer.c ****     }
 223:Generated_Source\PSoC5/SenseSwitchTimer.c **** 
 224:Generated_Source\PSoC5/SenseSwitchTimer.c ****     /* Enable the Timer */
 225:Generated_Source\PSoC5/SenseSwitchTimer.c ****     SenseSwitchTimer_Enable();
 220              		.loc 1 225 0
 221 0016 FFF7FEFF 		bl	SenseSwitchTimer_Enable
 226:Generated_Source\PSoC5/SenseSwitchTimer.c **** }
 222              		.loc 1 226 0
 223 001a 00BF     		nop
 224 001c 80BD     		pop	{r7, pc}
 225              	.L10:
 226 001e 00BF     		.align	2
 227              	.L9:
 228 0020 00000000 		.word	SenseSwitchTimer_initVar
 229              		.cfi_endproc
 230              	.LFE2:
ARM GAS  C:\Users\tpbw4321\AppData\Local\Temp\ccpvo6pw.s 			page 9


 231              		.size	SenseSwitchTimer_Start, .-SenseSwitchTimer_Start
 232              		.section	.text.SenseSwitchTimer_Stop,"ax",%progbits
 233              		.align	2
 234              		.global	SenseSwitchTimer_Stop
 235              		.thumb
 236              		.thumb_func
 237              		.type	SenseSwitchTimer_Stop, %function
 238              	SenseSwitchTimer_Stop:
 239              	.LFB3:
 227:Generated_Source\PSoC5/SenseSwitchTimer.c **** 
 228:Generated_Source\PSoC5/SenseSwitchTimer.c **** 
 229:Generated_Source\PSoC5/SenseSwitchTimer.c **** /*******************************************************************************
 230:Generated_Source\PSoC5/SenseSwitchTimer.c **** * Function Name: SenseSwitchTimer_Stop
 231:Generated_Source\PSoC5/SenseSwitchTimer.c **** ********************************************************************************
 232:Generated_Source\PSoC5/SenseSwitchTimer.c **** *
 233:Generated_Source\PSoC5/SenseSwitchTimer.c **** * Summary:
 234:Generated_Source\PSoC5/SenseSwitchTimer.c **** *  The stop function halts the timer, but does not change any modes or disable
 235:Generated_Source\PSoC5/SenseSwitchTimer.c **** *  interrupts.
 236:Generated_Source\PSoC5/SenseSwitchTimer.c **** *
 237:Generated_Source\PSoC5/SenseSwitchTimer.c **** * Parameters:
 238:Generated_Source\PSoC5/SenseSwitchTimer.c **** *  void
 239:Generated_Source\PSoC5/SenseSwitchTimer.c **** *
 240:Generated_Source\PSoC5/SenseSwitchTimer.c **** * Return:
 241:Generated_Source\PSoC5/SenseSwitchTimer.c **** *  void
 242:Generated_Source\PSoC5/SenseSwitchTimer.c **** *
 243:Generated_Source\PSoC5/SenseSwitchTimer.c **** * Side Effects: If the Enable mode is set to Hardware only then this function
 244:Generated_Source\PSoC5/SenseSwitchTimer.c **** *               has no effect on the operation of the timer.
 245:Generated_Source\PSoC5/SenseSwitchTimer.c **** *
 246:Generated_Source\PSoC5/SenseSwitchTimer.c **** *******************************************************************************/
 247:Generated_Source\PSoC5/SenseSwitchTimer.c **** void SenseSwitchTimer_Stop(void) 
 248:Generated_Source\PSoC5/SenseSwitchTimer.c **** {
 240              		.loc 1 248 0
 241              		.cfi_startproc
 242              		@ args = 0, pretend = 0, frame = 0
 243              		@ frame_needed = 1, uses_anonymous_args = 0
 244              		@ link register save eliminated.
 245 0000 80B4     		push	{r7}
 246              		.cfi_def_cfa_offset 4
 247              		.cfi_offset 7, -4
 248 0002 00AF     		add	r7, sp, #0
 249              		.cfi_def_cfa_register 7
 249:Generated_Source\PSoC5/SenseSwitchTimer.c ****     /* Disable Timer */
 250:Generated_Source\PSoC5/SenseSwitchTimer.c ****     #if(!SenseSwitchTimer_UDB_CONTROL_REG_REMOVED || SenseSwitchTimer_UsingFixedFunction)
 251:Generated_Source\PSoC5/SenseSwitchTimer.c ****         SenseSwitchTimer_CONTROL &= ((uint8)(~SenseSwitchTimer_CTRL_ENABLE));
 250              		.loc 1 251 0
 251 0004 0D4A     		ldr	r2, .L12
 252 0006 0D4B     		ldr	r3, .L12
 253 0008 1B78     		ldrb	r3, [r3]
 254 000a DBB2     		uxtb	r3, r3
 255 000c 23F00103 		bic	r3, r3, #1
 256 0010 DBB2     		uxtb	r3, r3
 257 0012 1370     		strb	r3, [r2]
 252:Generated_Source\PSoC5/SenseSwitchTimer.c ****     #endif /* Remove assignment if control register is removed */
 253:Generated_Source\PSoC5/SenseSwitchTimer.c **** 
 254:Generated_Source\PSoC5/SenseSwitchTimer.c ****     /* Globally disable the Fixed Function Block chosen */
 255:Generated_Source\PSoC5/SenseSwitchTimer.c ****     #if (SenseSwitchTimer_UsingFixedFunction)
 256:Generated_Source\PSoC5/SenseSwitchTimer.c ****         SenseSwitchTimer_GLOBAL_ENABLE &= ((uint8)(~SenseSwitchTimer_BLOCK_EN_MASK));
ARM GAS  C:\Users\tpbw4321\AppData\Local\Temp\ccpvo6pw.s 			page 10


 258              		.loc 1 256 0
 259 0014 0A4A     		ldr	r2, .L12+4
 260 0016 0A4B     		ldr	r3, .L12+4
 261 0018 1B78     		ldrb	r3, [r3]
 262 001a DBB2     		uxtb	r3, r3
 263 001c 23F00203 		bic	r3, r3, #2
 264 0020 DBB2     		uxtb	r3, r3
 265 0022 1370     		strb	r3, [r2]
 257:Generated_Source\PSoC5/SenseSwitchTimer.c ****         SenseSwitchTimer_GLOBAL_STBY_ENABLE &= ((uint8)(~SenseSwitchTimer_BLOCK_STBY_EN_MASK));
 266              		.loc 1 257 0
 267 0024 074A     		ldr	r2, .L12+8
 268 0026 074B     		ldr	r3, .L12+8
 269 0028 1B78     		ldrb	r3, [r3]
 270 002a DBB2     		uxtb	r3, r3
 271 002c 23F00203 		bic	r3, r3, #2
 272 0030 DBB2     		uxtb	r3, r3
 273 0032 1370     		strb	r3, [r2]
 258:Generated_Source\PSoC5/SenseSwitchTimer.c ****     #endif /* Disable global enable for the Timer Fixed function block to stop the Timer*/
 259:Generated_Source\PSoC5/SenseSwitchTimer.c **** }
 274              		.loc 1 259 0
 275 0034 00BF     		nop
 276 0036 BD46     		mov	sp, r7
 277              		.cfi_def_cfa_register 13
 278              		@ sp needed
 279 0038 80BC     		pop	{r7}
 280              		.cfi_restore 7
 281              		.cfi_def_cfa_offset 0
 282 003a 7047     		bx	lr
 283              	.L13:
 284              		.align	2
 285              	.L12:
 286 003c 0C4F0040 		.word	1073762060
 287 0040 A3430040 		.word	1073759139
 288 0044 B3430040 		.word	1073759155
 289              		.cfi_endproc
 290              	.LFE3:
 291              		.size	SenseSwitchTimer_Stop, .-SenseSwitchTimer_Stop
 292              		.section	.text.SenseSwitchTimer_SetInterruptMode,"ax",%progbits
 293              		.align	2
 294              		.global	SenseSwitchTimer_SetInterruptMode
 295              		.thumb
 296              		.thumb_func
 297              		.type	SenseSwitchTimer_SetInterruptMode, %function
 298              	SenseSwitchTimer_SetInterruptMode:
 299              	.LFB4:
 260:Generated_Source\PSoC5/SenseSwitchTimer.c **** 
 261:Generated_Source\PSoC5/SenseSwitchTimer.c **** 
 262:Generated_Source\PSoC5/SenseSwitchTimer.c **** /*******************************************************************************
 263:Generated_Source\PSoC5/SenseSwitchTimer.c **** * Function Name: SenseSwitchTimer_SetInterruptMode
 264:Generated_Source\PSoC5/SenseSwitchTimer.c **** ********************************************************************************
 265:Generated_Source\PSoC5/SenseSwitchTimer.c **** *
 266:Generated_Source\PSoC5/SenseSwitchTimer.c **** * Summary:
 267:Generated_Source\PSoC5/SenseSwitchTimer.c **** *  This function selects which of the interrupt inputs may cause an interrupt.
 268:Generated_Source\PSoC5/SenseSwitchTimer.c **** *  The twosources are caputure and terminal.  One, both or neither may
 269:Generated_Source\PSoC5/SenseSwitchTimer.c **** *  be selected.
 270:Generated_Source\PSoC5/SenseSwitchTimer.c **** *
 271:Generated_Source\PSoC5/SenseSwitchTimer.c **** * Parameters:
ARM GAS  C:\Users\tpbw4321\AppData\Local\Temp\ccpvo6pw.s 			page 11


 272:Generated_Source\PSoC5/SenseSwitchTimer.c **** *  interruptMode:   This parameter is used to enable interrups on either/or
 273:Generated_Source\PSoC5/SenseSwitchTimer.c **** *                   terminal count or capture.
 274:Generated_Source\PSoC5/SenseSwitchTimer.c **** *
 275:Generated_Source\PSoC5/SenseSwitchTimer.c **** * Return:
 276:Generated_Source\PSoC5/SenseSwitchTimer.c **** *  void
 277:Generated_Source\PSoC5/SenseSwitchTimer.c **** *
 278:Generated_Source\PSoC5/SenseSwitchTimer.c **** *******************************************************************************/
 279:Generated_Source\PSoC5/SenseSwitchTimer.c **** void SenseSwitchTimer_SetInterruptMode(uint8 interruptMode) 
 280:Generated_Source\PSoC5/SenseSwitchTimer.c **** {
 300              		.loc 1 280 0
 301              		.cfi_startproc
 302              		@ args = 0, pretend = 0, frame = 8
 303              		@ frame_needed = 1, uses_anonymous_args = 0
 304              		@ link register save eliminated.
 305 0000 80B4     		push	{r7}
 306              		.cfi_def_cfa_offset 4
 307              		.cfi_offset 7, -4
 308 0002 83B0     		sub	sp, sp, #12
 309              		.cfi_def_cfa_offset 16
 310 0004 00AF     		add	r7, sp, #0
 311              		.cfi_def_cfa_register 7
 312 0006 0346     		mov	r3, r0
 313 0008 FB71     		strb	r3, [r7, #7]
 281:Generated_Source\PSoC5/SenseSwitchTimer.c ****     SenseSwitchTimer_STATUS_MASK = interruptMode;
 314              		.loc 1 281 0
 315 000a 044A     		ldr	r2, .L15
 316 000c FB79     		ldrb	r3, [r7, #7]
 317 000e 1370     		strb	r3, [r2]
 282:Generated_Source\PSoC5/SenseSwitchTimer.c **** }
 318              		.loc 1 282 0
 319 0010 00BF     		nop
 320 0012 0C37     		adds	r7, r7, #12
 321              		.cfi_def_cfa_offset 4
 322 0014 BD46     		mov	sp, r7
 323              		.cfi_def_cfa_register 13
 324              		@ sp needed
 325 0016 80BC     		pop	{r7}
 326              		.cfi_restore 7
 327              		.cfi_def_cfa_offset 0
 328 0018 7047     		bx	lr
 329              	.L16:
 330 001a 00BF     		.align	2
 331              	.L15:
 332 001c 0F4F0040 		.word	1073762063
 333              		.cfi_endproc
 334              	.LFE4:
 335              		.size	SenseSwitchTimer_SetInterruptMode, .-SenseSwitchTimer_SetInterruptMode
 336              		.section	.text.SenseSwitchTimer_SoftwareCapture,"ax",%progbits
 337              		.align	2
 338              		.global	SenseSwitchTimer_SoftwareCapture
 339              		.thumb
 340              		.thumb_func
 341              		.type	SenseSwitchTimer_SoftwareCapture, %function
 342              	SenseSwitchTimer_SoftwareCapture:
 343              	.LFB5:
 283:Generated_Source\PSoC5/SenseSwitchTimer.c **** 
 284:Generated_Source\PSoC5/SenseSwitchTimer.c **** 
ARM GAS  C:\Users\tpbw4321\AppData\Local\Temp\ccpvo6pw.s 			page 12


 285:Generated_Source\PSoC5/SenseSwitchTimer.c **** /*******************************************************************************
 286:Generated_Source\PSoC5/SenseSwitchTimer.c **** * Function Name: SenseSwitchTimer_SoftwareCapture
 287:Generated_Source\PSoC5/SenseSwitchTimer.c **** ********************************************************************************
 288:Generated_Source\PSoC5/SenseSwitchTimer.c **** *
 289:Generated_Source\PSoC5/SenseSwitchTimer.c **** * Summary:
 290:Generated_Source\PSoC5/SenseSwitchTimer.c **** *  This function forces a capture independent of the capture signal.
 291:Generated_Source\PSoC5/SenseSwitchTimer.c **** *
 292:Generated_Source\PSoC5/SenseSwitchTimer.c **** * Parameters:
 293:Generated_Source\PSoC5/SenseSwitchTimer.c **** *  void
 294:Generated_Source\PSoC5/SenseSwitchTimer.c **** *
 295:Generated_Source\PSoC5/SenseSwitchTimer.c **** * Return:
 296:Generated_Source\PSoC5/SenseSwitchTimer.c **** *  void
 297:Generated_Source\PSoC5/SenseSwitchTimer.c **** *
 298:Generated_Source\PSoC5/SenseSwitchTimer.c **** * Side Effects:
 299:Generated_Source\PSoC5/SenseSwitchTimer.c **** *  An existing hardware capture could be overwritten.
 300:Generated_Source\PSoC5/SenseSwitchTimer.c **** *
 301:Generated_Source\PSoC5/SenseSwitchTimer.c **** *******************************************************************************/
 302:Generated_Source\PSoC5/SenseSwitchTimer.c **** void SenseSwitchTimer_SoftwareCapture(void) 
 303:Generated_Source\PSoC5/SenseSwitchTimer.c **** {
 344              		.loc 1 303 0
 345              		.cfi_startproc
 346              		@ args = 0, pretend = 0, frame = 0
 347              		@ frame_needed = 1, uses_anonymous_args = 0
 348              		@ link register save eliminated.
 349 0000 80B4     		push	{r7}
 350              		.cfi_def_cfa_offset 4
 351              		.cfi_offset 7, -4
 352 0002 00AF     		add	r7, sp, #0
 353              		.cfi_def_cfa_register 7
 304:Generated_Source\PSoC5/SenseSwitchTimer.c ****     /* Generate a software capture by reading the counter register */
 305:Generated_Source\PSoC5/SenseSwitchTimer.c ****     #if(SenseSwitchTimer_UsingFixedFunction)
 306:Generated_Source\PSoC5/SenseSwitchTimer.c ****         (void)CY_GET_REG16(SenseSwitchTimer_COUNTER_LSB_PTR);
 354              		.loc 1 306 0
 355 0004 024B     		ldr	r3, .L18
 356 0006 1B88     		ldrh	r3, [r3]	@ movhi
 307:Generated_Source\PSoC5/SenseSwitchTimer.c ****     #else
 308:Generated_Source\PSoC5/SenseSwitchTimer.c ****         (void)CY_GET_REG8(SenseSwitchTimer_COUNTER_LSB_PTR_8BIT);
 309:Generated_Source\PSoC5/SenseSwitchTimer.c ****     #endif/* (SenseSwitchTimer_UsingFixedFunction) */
 310:Generated_Source\PSoC5/SenseSwitchTimer.c ****     /* Capture Data is now in the FIFO */
 311:Generated_Source\PSoC5/SenseSwitchTimer.c **** }
 357              		.loc 1 311 0
 358 0008 00BF     		nop
 359 000a BD46     		mov	sp, r7
 360              		.cfi_def_cfa_register 13
 361              		@ sp needed
 362 000c 80BC     		pop	{r7}
 363              		.cfi_restore 7
 364              		.cfi_def_cfa_offset 0
 365 000e 7047     		bx	lr
 366              	.L19:
 367              		.align	2
 368              	.L18:
 369 0010 124F0040 		.word	1073762066
 370              		.cfi_endproc
 371              	.LFE5:
 372              		.size	SenseSwitchTimer_SoftwareCapture, .-SenseSwitchTimer_SoftwareCapture
 373              		.section	.text.SenseSwitchTimer_ReadStatusRegister,"ax",%progbits
ARM GAS  C:\Users\tpbw4321\AppData\Local\Temp\ccpvo6pw.s 			page 13


 374              		.align	2
 375              		.global	SenseSwitchTimer_ReadStatusRegister
 376              		.thumb
 377              		.thumb_func
 378              		.type	SenseSwitchTimer_ReadStatusRegister, %function
 379              	SenseSwitchTimer_ReadStatusRegister:
 380              	.LFB6:
 312:Generated_Source\PSoC5/SenseSwitchTimer.c **** 
 313:Generated_Source\PSoC5/SenseSwitchTimer.c **** 
 314:Generated_Source\PSoC5/SenseSwitchTimer.c **** /*******************************************************************************
 315:Generated_Source\PSoC5/SenseSwitchTimer.c **** * Function Name: SenseSwitchTimer_ReadStatusRegister
 316:Generated_Source\PSoC5/SenseSwitchTimer.c **** ********************************************************************************
 317:Generated_Source\PSoC5/SenseSwitchTimer.c **** *
 318:Generated_Source\PSoC5/SenseSwitchTimer.c **** * Summary:
 319:Generated_Source\PSoC5/SenseSwitchTimer.c **** *  Reads the status register and returns it's state. This function should use
 320:Generated_Source\PSoC5/SenseSwitchTimer.c **** *  defined types for the bit-field information as the bits in this register may
 321:Generated_Source\PSoC5/SenseSwitchTimer.c **** *  be permuteable.
 322:Generated_Source\PSoC5/SenseSwitchTimer.c **** *
 323:Generated_Source\PSoC5/SenseSwitchTimer.c **** * Parameters:
 324:Generated_Source\PSoC5/SenseSwitchTimer.c **** *  void
 325:Generated_Source\PSoC5/SenseSwitchTimer.c **** *
 326:Generated_Source\PSoC5/SenseSwitchTimer.c **** * Return:
 327:Generated_Source\PSoC5/SenseSwitchTimer.c **** *  The contents of the status register
 328:Generated_Source\PSoC5/SenseSwitchTimer.c **** *
 329:Generated_Source\PSoC5/SenseSwitchTimer.c **** * Side Effects:
 330:Generated_Source\PSoC5/SenseSwitchTimer.c **** *  Status register bits may be clear on read.
 331:Generated_Source\PSoC5/SenseSwitchTimer.c **** *
 332:Generated_Source\PSoC5/SenseSwitchTimer.c **** *******************************************************************************/
 333:Generated_Source\PSoC5/SenseSwitchTimer.c **** uint8   SenseSwitchTimer_ReadStatusRegister(void) 
 334:Generated_Source\PSoC5/SenseSwitchTimer.c **** {
 381              		.loc 1 334 0
 382              		.cfi_startproc
 383              		@ args = 0, pretend = 0, frame = 0
 384              		@ frame_needed = 1, uses_anonymous_args = 0
 385              		@ link register save eliminated.
 386 0000 80B4     		push	{r7}
 387              		.cfi_def_cfa_offset 4
 388              		.cfi_offset 7, -4
 389 0002 00AF     		add	r7, sp, #0
 390              		.cfi_def_cfa_register 7
 335:Generated_Source\PSoC5/SenseSwitchTimer.c ****     return (SenseSwitchTimer_STATUS);
 391              		.loc 1 335 0
 392 0004 034B     		ldr	r3, .L22
 393 0006 1B78     		ldrb	r3, [r3]
 394 0008 DBB2     		uxtb	r3, r3
 336:Generated_Source\PSoC5/SenseSwitchTimer.c **** }
 395              		.loc 1 336 0
 396 000a 1846     		mov	r0, r3
 397 000c BD46     		mov	sp, r7
 398              		.cfi_def_cfa_register 13
 399              		@ sp needed
 400 000e 80BC     		pop	{r7}
 401              		.cfi_restore 7
 402              		.cfi_def_cfa_offset 0
 403 0010 7047     		bx	lr
 404              	.L23:
 405 0012 00BF     		.align	2
ARM GAS  C:\Users\tpbw4321\AppData\Local\Temp\ccpvo6pw.s 			page 14


 406              	.L22:
 407 0014 0F4F0040 		.word	1073762063
 408              		.cfi_endproc
 409              	.LFE6:
 410              		.size	SenseSwitchTimer_ReadStatusRegister, .-SenseSwitchTimer_ReadStatusRegister
 411              		.section	.text.SenseSwitchTimer_ReadControlRegister,"ax",%progbits
 412              		.align	2
 413              		.global	SenseSwitchTimer_ReadControlRegister
 414              		.thumb
 415              		.thumb_func
 416              		.type	SenseSwitchTimer_ReadControlRegister, %function
 417              	SenseSwitchTimer_ReadControlRegister:
 418              	.LFB7:
 337:Generated_Source\PSoC5/SenseSwitchTimer.c **** 
 338:Generated_Source\PSoC5/SenseSwitchTimer.c **** 
 339:Generated_Source\PSoC5/SenseSwitchTimer.c **** #if (!SenseSwitchTimer_UDB_CONTROL_REG_REMOVED) /* Remove API if control register is unused */
 340:Generated_Source\PSoC5/SenseSwitchTimer.c **** 
 341:Generated_Source\PSoC5/SenseSwitchTimer.c **** 
 342:Generated_Source\PSoC5/SenseSwitchTimer.c **** /*******************************************************************************
 343:Generated_Source\PSoC5/SenseSwitchTimer.c **** * Function Name: SenseSwitchTimer_ReadControlRegister
 344:Generated_Source\PSoC5/SenseSwitchTimer.c **** ********************************************************************************
 345:Generated_Source\PSoC5/SenseSwitchTimer.c **** *
 346:Generated_Source\PSoC5/SenseSwitchTimer.c **** * Summary:
 347:Generated_Source\PSoC5/SenseSwitchTimer.c **** *  Reads the control register and returns it's value.
 348:Generated_Source\PSoC5/SenseSwitchTimer.c **** *
 349:Generated_Source\PSoC5/SenseSwitchTimer.c **** * Parameters:
 350:Generated_Source\PSoC5/SenseSwitchTimer.c **** *  void
 351:Generated_Source\PSoC5/SenseSwitchTimer.c **** *
 352:Generated_Source\PSoC5/SenseSwitchTimer.c **** * Return:
 353:Generated_Source\PSoC5/SenseSwitchTimer.c **** *  The contents of the control register
 354:Generated_Source\PSoC5/SenseSwitchTimer.c **** *
 355:Generated_Source\PSoC5/SenseSwitchTimer.c **** *******************************************************************************/
 356:Generated_Source\PSoC5/SenseSwitchTimer.c **** uint8 SenseSwitchTimer_ReadControlRegister(void) 
 357:Generated_Source\PSoC5/SenseSwitchTimer.c **** {
 419              		.loc 1 357 0
 420              		.cfi_startproc
 421              		@ args = 0, pretend = 0, frame = 0
 422              		@ frame_needed = 1, uses_anonymous_args = 0
 423              		@ link register save eliminated.
 424 0000 80B4     		push	{r7}
 425              		.cfi_def_cfa_offset 4
 426              		.cfi_offset 7, -4
 427 0002 00AF     		add	r7, sp, #0
 428              		.cfi_def_cfa_register 7
 358:Generated_Source\PSoC5/SenseSwitchTimer.c ****     #if (!SenseSwitchTimer_UDB_CONTROL_REG_REMOVED) 
 359:Generated_Source\PSoC5/SenseSwitchTimer.c ****         return ((uint8)SenseSwitchTimer_CONTROL);
 429              		.loc 1 359 0
 430 0004 034B     		ldr	r3, .L26
 431 0006 1B78     		ldrb	r3, [r3]
 432 0008 DBB2     		uxtb	r3, r3
 360:Generated_Source\PSoC5/SenseSwitchTimer.c ****     #else
 361:Generated_Source\PSoC5/SenseSwitchTimer.c ****         return (0);
 362:Generated_Source\PSoC5/SenseSwitchTimer.c ****     #endif /* (!SenseSwitchTimer_UDB_CONTROL_REG_REMOVED) */
 363:Generated_Source\PSoC5/SenseSwitchTimer.c **** }
 433              		.loc 1 363 0
 434 000a 1846     		mov	r0, r3
 435 000c BD46     		mov	sp, r7
ARM GAS  C:\Users\tpbw4321\AppData\Local\Temp\ccpvo6pw.s 			page 15


 436              		.cfi_def_cfa_register 13
 437              		@ sp needed
 438 000e 80BC     		pop	{r7}
 439              		.cfi_restore 7
 440              		.cfi_def_cfa_offset 0
 441 0010 7047     		bx	lr
 442              	.L27:
 443 0012 00BF     		.align	2
 444              	.L26:
 445 0014 0C4F0040 		.word	1073762060
 446              		.cfi_endproc
 447              	.LFE7:
 448              		.size	SenseSwitchTimer_ReadControlRegister, .-SenseSwitchTimer_ReadControlRegister
 449              		.section	.text.SenseSwitchTimer_WriteControlRegister,"ax",%progbits
 450              		.align	2
 451              		.global	SenseSwitchTimer_WriteControlRegister
 452              		.thumb
 453              		.thumb_func
 454              		.type	SenseSwitchTimer_WriteControlRegister, %function
 455              	SenseSwitchTimer_WriteControlRegister:
 456              	.LFB8:
 364:Generated_Source\PSoC5/SenseSwitchTimer.c **** 
 365:Generated_Source\PSoC5/SenseSwitchTimer.c **** 
 366:Generated_Source\PSoC5/SenseSwitchTimer.c **** /*******************************************************************************
 367:Generated_Source\PSoC5/SenseSwitchTimer.c **** * Function Name: SenseSwitchTimer_WriteControlRegister
 368:Generated_Source\PSoC5/SenseSwitchTimer.c **** ********************************************************************************
 369:Generated_Source\PSoC5/SenseSwitchTimer.c **** *
 370:Generated_Source\PSoC5/SenseSwitchTimer.c **** * Summary:
 371:Generated_Source\PSoC5/SenseSwitchTimer.c **** *  Sets the bit-field of the control register.
 372:Generated_Source\PSoC5/SenseSwitchTimer.c **** *
 373:Generated_Source\PSoC5/SenseSwitchTimer.c **** * Parameters:
 374:Generated_Source\PSoC5/SenseSwitchTimer.c **** *  control: The contents of the control register
 375:Generated_Source\PSoC5/SenseSwitchTimer.c **** *
 376:Generated_Source\PSoC5/SenseSwitchTimer.c **** * Return:
 377:Generated_Source\PSoC5/SenseSwitchTimer.c **** *
 378:Generated_Source\PSoC5/SenseSwitchTimer.c **** *******************************************************************************/
 379:Generated_Source\PSoC5/SenseSwitchTimer.c **** void SenseSwitchTimer_WriteControlRegister(uint8 control) 
 380:Generated_Source\PSoC5/SenseSwitchTimer.c **** {
 457              		.loc 1 380 0
 458              		.cfi_startproc
 459              		@ args = 0, pretend = 0, frame = 8
 460              		@ frame_needed = 1, uses_anonymous_args = 0
 461              		@ link register save eliminated.
 462 0000 80B4     		push	{r7}
 463              		.cfi_def_cfa_offset 4
 464              		.cfi_offset 7, -4
 465 0002 83B0     		sub	sp, sp, #12
 466              		.cfi_def_cfa_offset 16
 467 0004 00AF     		add	r7, sp, #0
 468              		.cfi_def_cfa_register 7
 469 0006 0346     		mov	r3, r0
 470 0008 FB71     		strb	r3, [r7, #7]
 381:Generated_Source\PSoC5/SenseSwitchTimer.c ****     #if (!SenseSwitchTimer_UDB_CONTROL_REG_REMOVED) 
 382:Generated_Source\PSoC5/SenseSwitchTimer.c ****         SenseSwitchTimer_CONTROL = control;
 471              		.loc 1 382 0
 472 000a 044A     		ldr	r2, .L29
 473 000c FB79     		ldrb	r3, [r7, #7]
ARM GAS  C:\Users\tpbw4321\AppData\Local\Temp\ccpvo6pw.s 			page 16


 474 000e 1370     		strb	r3, [r2]
 383:Generated_Source\PSoC5/SenseSwitchTimer.c ****     #else
 384:Generated_Source\PSoC5/SenseSwitchTimer.c ****         control = 0u;
 385:Generated_Source\PSoC5/SenseSwitchTimer.c ****     #endif /* (!SenseSwitchTimer_UDB_CONTROL_REG_REMOVED) */
 386:Generated_Source\PSoC5/SenseSwitchTimer.c **** }
 475              		.loc 1 386 0
 476 0010 00BF     		nop
 477 0012 0C37     		adds	r7, r7, #12
 478              		.cfi_def_cfa_offset 4
 479 0014 BD46     		mov	sp, r7
 480              		.cfi_def_cfa_register 13
 481              		@ sp needed
 482 0016 80BC     		pop	{r7}
 483              		.cfi_restore 7
 484              		.cfi_def_cfa_offset 0
 485 0018 7047     		bx	lr
 486              	.L30:
 487 001a 00BF     		.align	2
 488              	.L29:
 489 001c 0C4F0040 		.word	1073762060
 490              		.cfi_endproc
 491              	.LFE8:
 492              		.size	SenseSwitchTimer_WriteControlRegister, .-SenseSwitchTimer_WriteControlRegister
 493              		.section	.text.SenseSwitchTimer_ReadPeriod,"ax",%progbits
 494              		.align	2
 495              		.global	SenseSwitchTimer_ReadPeriod
 496              		.thumb
 497              		.thumb_func
 498              		.type	SenseSwitchTimer_ReadPeriod, %function
 499              	SenseSwitchTimer_ReadPeriod:
 500              	.LFB9:
 387:Generated_Source\PSoC5/SenseSwitchTimer.c **** 
 388:Generated_Source\PSoC5/SenseSwitchTimer.c **** #endif /* Remove API if control register is unused */
 389:Generated_Source\PSoC5/SenseSwitchTimer.c **** 
 390:Generated_Source\PSoC5/SenseSwitchTimer.c **** 
 391:Generated_Source\PSoC5/SenseSwitchTimer.c **** /*******************************************************************************
 392:Generated_Source\PSoC5/SenseSwitchTimer.c **** * Function Name: SenseSwitchTimer_ReadPeriod
 393:Generated_Source\PSoC5/SenseSwitchTimer.c **** ********************************************************************************
 394:Generated_Source\PSoC5/SenseSwitchTimer.c **** *
 395:Generated_Source\PSoC5/SenseSwitchTimer.c **** * Summary:
 396:Generated_Source\PSoC5/SenseSwitchTimer.c **** *  This function returns the current value of the Period.
 397:Generated_Source\PSoC5/SenseSwitchTimer.c **** *
 398:Generated_Source\PSoC5/SenseSwitchTimer.c **** * Parameters:
 399:Generated_Source\PSoC5/SenseSwitchTimer.c **** *  void
 400:Generated_Source\PSoC5/SenseSwitchTimer.c **** *
 401:Generated_Source\PSoC5/SenseSwitchTimer.c **** * Return:
 402:Generated_Source\PSoC5/SenseSwitchTimer.c **** *  The present value of the counter.
 403:Generated_Source\PSoC5/SenseSwitchTimer.c **** *
 404:Generated_Source\PSoC5/SenseSwitchTimer.c **** *******************************************************************************/
 405:Generated_Source\PSoC5/SenseSwitchTimer.c **** uint16 SenseSwitchTimer_ReadPeriod(void) 
 406:Generated_Source\PSoC5/SenseSwitchTimer.c **** {
 501              		.loc 1 406 0
 502              		.cfi_startproc
 503              		@ args = 0, pretend = 0, frame = 0
 504              		@ frame_needed = 1, uses_anonymous_args = 0
 505              		@ link register save eliminated.
 506 0000 80B4     		push	{r7}
ARM GAS  C:\Users\tpbw4321\AppData\Local\Temp\ccpvo6pw.s 			page 17


 507              		.cfi_def_cfa_offset 4
 508              		.cfi_offset 7, -4
 509 0002 00AF     		add	r7, sp, #0
 510              		.cfi_def_cfa_register 7
 407:Generated_Source\PSoC5/SenseSwitchTimer.c ****    #if(SenseSwitchTimer_UsingFixedFunction)
 408:Generated_Source\PSoC5/SenseSwitchTimer.c ****        return ((uint16)CY_GET_REG16(SenseSwitchTimer_PERIOD_LSB_PTR));
 511              		.loc 1 408 0
 512 0004 034B     		ldr	r3, .L33
 513 0006 1B88     		ldrh	r3, [r3]	@ movhi
 514 0008 9BB2     		uxth	r3, r3
 409:Generated_Source\PSoC5/SenseSwitchTimer.c ****    #else
 410:Generated_Source\PSoC5/SenseSwitchTimer.c ****        return (CY_GET_REG16(SenseSwitchTimer_PERIOD_LSB_PTR));
 411:Generated_Source\PSoC5/SenseSwitchTimer.c ****    #endif /* (SenseSwitchTimer_UsingFixedFunction) */
 412:Generated_Source\PSoC5/SenseSwitchTimer.c **** }
 515              		.loc 1 412 0
 516 000a 1846     		mov	r0, r3
 517 000c BD46     		mov	sp, r7
 518              		.cfi_def_cfa_register 13
 519              		@ sp needed
 520 000e 80BC     		pop	{r7}
 521              		.cfi_restore 7
 522              		.cfi_def_cfa_offset 0
 523 0010 7047     		bx	lr
 524              	.L34:
 525 0012 00BF     		.align	2
 526              	.L33:
 527 0014 104F0040 		.word	1073762064
 528              		.cfi_endproc
 529              	.LFE9:
 530              		.size	SenseSwitchTimer_ReadPeriod, .-SenseSwitchTimer_ReadPeriod
 531              		.section	.text.SenseSwitchTimer_WritePeriod,"ax",%progbits
 532              		.align	2
 533              		.global	SenseSwitchTimer_WritePeriod
 534              		.thumb
 535              		.thumb_func
 536              		.type	SenseSwitchTimer_WritePeriod, %function
 537              	SenseSwitchTimer_WritePeriod:
 538              	.LFB10:
 413:Generated_Source\PSoC5/SenseSwitchTimer.c **** 
 414:Generated_Source\PSoC5/SenseSwitchTimer.c **** 
 415:Generated_Source\PSoC5/SenseSwitchTimer.c **** /*******************************************************************************
 416:Generated_Source\PSoC5/SenseSwitchTimer.c **** * Function Name: SenseSwitchTimer_WritePeriod
 417:Generated_Source\PSoC5/SenseSwitchTimer.c **** ********************************************************************************
 418:Generated_Source\PSoC5/SenseSwitchTimer.c **** *
 419:Generated_Source\PSoC5/SenseSwitchTimer.c **** * Summary:
 420:Generated_Source\PSoC5/SenseSwitchTimer.c **** *  This function is used to change the period of the counter.  The new period
 421:Generated_Source\PSoC5/SenseSwitchTimer.c **** *  will be loaded the next time terminal count is detected.
 422:Generated_Source\PSoC5/SenseSwitchTimer.c **** *
 423:Generated_Source\PSoC5/SenseSwitchTimer.c **** * Parameters:
 424:Generated_Source\PSoC5/SenseSwitchTimer.c **** *  period: This value may be between 1 and (2^Resolution)-1.  A value of 0 will
 425:Generated_Source\PSoC5/SenseSwitchTimer.c **** *          result in the counter remaining at zero.
 426:Generated_Source\PSoC5/SenseSwitchTimer.c **** *
 427:Generated_Source\PSoC5/SenseSwitchTimer.c **** * Return:
 428:Generated_Source\PSoC5/SenseSwitchTimer.c **** *  void
 429:Generated_Source\PSoC5/SenseSwitchTimer.c **** *
 430:Generated_Source\PSoC5/SenseSwitchTimer.c **** *******************************************************************************/
 431:Generated_Source\PSoC5/SenseSwitchTimer.c **** void SenseSwitchTimer_WritePeriod(uint16 period) 
ARM GAS  C:\Users\tpbw4321\AppData\Local\Temp\ccpvo6pw.s 			page 18


 432:Generated_Source\PSoC5/SenseSwitchTimer.c **** {
 539              		.loc 1 432 0
 540              		.cfi_startproc
 541              		@ args = 0, pretend = 0, frame = 16
 542              		@ frame_needed = 1, uses_anonymous_args = 0
 543              		@ link register save eliminated.
 544 0000 80B4     		push	{r7}
 545              		.cfi_def_cfa_offset 4
 546              		.cfi_offset 7, -4
 547 0002 85B0     		sub	sp, sp, #20
 548              		.cfi_def_cfa_offset 24
 549 0004 00AF     		add	r7, sp, #0
 550              		.cfi_def_cfa_register 7
 551 0006 0346     		mov	r3, r0
 552 0008 FB80     		strh	r3, [r7, #6]	@ movhi
 433:Generated_Source\PSoC5/SenseSwitchTimer.c ****     #if(SenseSwitchTimer_UsingFixedFunction)
 434:Generated_Source\PSoC5/SenseSwitchTimer.c ****         uint16 period_temp = (uint16)period;
 553              		.loc 1 434 0
 554 000a FB88     		ldrh	r3, [r7, #6]	@ movhi
 555 000c FB81     		strh	r3, [r7, #14]	@ movhi
 435:Generated_Source\PSoC5/SenseSwitchTimer.c ****         CY_SET_REG16(SenseSwitchTimer_PERIOD_LSB_PTR, period_temp);
 556              		.loc 1 435 0
 557 000e 044A     		ldr	r2, .L36
 558 0010 FB89     		ldrh	r3, [r7, #14]	@ movhi
 559 0012 1380     		strh	r3, [r2]	@ movhi
 436:Generated_Source\PSoC5/SenseSwitchTimer.c ****     #else
 437:Generated_Source\PSoC5/SenseSwitchTimer.c ****         CY_SET_REG16(SenseSwitchTimer_PERIOD_LSB_PTR, period);
 438:Generated_Source\PSoC5/SenseSwitchTimer.c ****     #endif /*Write Period value with appropriate resolution suffix depending on UDB or fixed functi
 439:Generated_Source\PSoC5/SenseSwitchTimer.c **** }
 560              		.loc 1 439 0
 561 0014 00BF     		nop
 562 0016 1437     		adds	r7, r7, #20
 563              		.cfi_def_cfa_offset 4
 564 0018 BD46     		mov	sp, r7
 565              		.cfi_def_cfa_register 13
 566              		@ sp needed
 567 001a 80BC     		pop	{r7}
 568              		.cfi_restore 7
 569              		.cfi_def_cfa_offset 0
 570 001c 7047     		bx	lr
 571              	.L37:
 572 001e 00BF     		.align	2
 573              	.L36:
 574 0020 104F0040 		.word	1073762064
 575              		.cfi_endproc
 576              	.LFE10:
 577              		.size	SenseSwitchTimer_WritePeriod, .-SenseSwitchTimer_WritePeriod
 578              		.section	.text.SenseSwitchTimer_ReadCapture,"ax",%progbits
 579              		.align	2
 580              		.global	SenseSwitchTimer_ReadCapture
 581              		.thumb
 582              		.thumb_func
 583              		.type	SenseSwitchTimer_ReadCapture, %function
 584              	SenseSwitchTimer_ReadCapture:
 585              	.LFB11:
 440:Generated_Source\PSoC5/SenseSwitchTimer.c **** 
 441:Generated_Source\PSoC5/SenseSwitchTimer.c **** 
ARM GAS  C:\Users\tpbw4321\AppData\Local\Temp\ccpvo6pw.s 			page 19


 442:Generated_Source\PSoC5/SenseSwitchTimer.c **** /*******************************************************************************
 443:Generated_Source\PSoC5/SenseSwitchTimer.c **** * Function Name: SenseSwitchTimer_ReadCapture
 444:Generated_Source\PSoC5/SenseSwitchTimer.c **** ********************************************************************************
 445:Generated_Source\PSoC5/SenseSwitchTimer.c **** *
 446:Generated_Source\PSoC5/SenseSwitchTimer.c **** * Summary:
 447:Generated_Source\PSoC5/SenseSwitchTimer.c **** *  This function returns the last value captured.
 448:Generated_Source\PSoC5/SenseSwitchTimer.c **** *
 449:Generated_Source\PSoC5/SenseSwitchTimer.c **** * Parameters:
 450:Generated_Source\PSoC5/SenseSwitchTimer.c **** *  void
 451:Generated_Source\PSoC5/SenseSwitchTimer.c **** *
 452:Generated_Source\PSoC5/SenseSwitchTimer.c **** * Return:
 453:Generated_Source\PSoC5/SenseSwitchTimer.c **** *  Present Capture value.
 454:Generated_Source\PSoC5/SenseSwitchTimer.c **** *
 455:Generated_Source\PSoC5/SenseSwitchTimer.c **** *******************************************************************************/
 456:Generated_Source\PSoC5/SenseSwitchTimer.c **** uint16 SenseSwitchTimer_ReadCapture(void) 
 457:Generated_Source\PSoC5/SenseSwitchTimer.c **** {
 586              		.loc 1 457 0
 587              		.cfi_startproc
 588              		@ args = 0, pretend = 0, frame = 0
 589              		@ frame_needed = 1, uses_anonymous_args = 0
 590              		@ link register save eliminated.
 591 0000 80B4     		push	{r7}
 592              		.cfi_def_cfa_offset 4
 593              		.cfi_offset 7, -4
 594 0002 00AF     		add	r7, sp, #0
 595              		.cfi_def_cfa_register 7
 458:Generated_Source\PSoC5/SenseSwitchTimer.c ****    #if(SenseSwitchTimer_UsingFixedFunction)
 459:Generated_Source\PSoC5/SenseSwitchTimer.c ****        return ((uint16)CY_GET_REG16(SenseSwitchTimer_CAPTURE_LSB_PTR));
 596              		.loc 1 459 0
 597 0004 034B     		ldr	r3, .L40
 598 0006 1B88     		ldrh	r3, [r3]	@ movhi
 599 0008 9BB2     		uxth	r3, r3
 460:Generated_Source\PSoC5/SenseSwitchTimer.c ****    #else
 461:Generated_Source\PSoC5/SenseSwitchTimer.c ****        return (CY_GET_REG16(SenseSwitchTimer_CAPTURE_LSB_PTR));
 462:Generated_Source\PSoC5/SenseSwitchTimer.c ****    #endif /* (SenseSwitchTimer_UsingFixedFunction) */
 463:Generated_Source\PSoC5/SenseSwitchTimer.c **** }
 600              		.loc 1 463 0
 601 000a 1846     		mov	r0, r3
 602 000c BD46     		mov	sp, r7
 603              		.cfi_def_cfa_register 13
 604              		@ sp needed
 605 000e 80BC     		pop	{r7}
 606              		.cfi_restore 7
 607              		.cfi_def_cfa_offset 0
 608 0010 7047     		bx	lr
 609              	.L41:
 610 0012 00BF     		.align	2
 611              	.L40:
 612 0014 144F0040 		.word	1073762068
 613              		.cfi_endproc
 614              	.LFE11:
 615              		.size	SenseSwitchTimer_ReadCapture, .-SenseSwitchTimer_ReadCapture
 616              		.section	.text.SenseSwitchTimer_WriteCounter,"ax",%progbits
 617              		.align	2
 618              		.global	SenseSwitchTimer_WriteCounter
 619              		.thumb
 620              		.thumb_func
ARM GAS  C:\Users\tpbw4321\AppData\Local\Temp\ccpvo6pw.s 			page 20


 621              		.type	SenseSwitchTimer_WriteCounter, %function
 622              	SenseSwitchTimer_WriteCounter:
 623              	.LFB12:
 464:Generated_Source\PSoC5/SenseSwitchTimer.c **** 
 465:Generated_Source\PSoC5/SenseSwitchTimer.c **** 
 466:Generated_Source\PSoC5/SenseSwitchTimer.c **** /*******************************************************************************
 467:Generated_Source\PSoC5/SenseSwitchTimer.c **** * Function Name: SenseSwitchTimer_WriteCounter
 468:Generated_Source\PSoC5/SenseSwitchTimer.c **** ********************************************************************************
 469:Generated_Source\PSoC5/SenseSwitchTimer.c **** *
 470:Generated_Source\PSoC5/SenseSwitchTimer.c **** * Summary:
 471:Generated_Source\PSoC5/SenseSwitchTimer.c **** *  This funtion is used to set the counter to a specific value
 472:Generated_Source\PSoC5/SenseSwitchTimer.c **** *
 473:Generated_Source\PSoC5/SenseSwitchTimer.c **** * Parameters:
 474:Generated_Source\PSoC5/SenseSwitchTimer.c **** *  counter:  New counter value.
 475:Generated_Source\PSoC5/SenseSwitchTimer.c **** *
 476:Generated_Source\PSoC5/SenseSwitchTimer.c **** * Return:
 477:Generated_Source\PSoC5/SenseSwitchTimer.c **** *  void
 478:Generated_Source\PSoC5/SenseSwitchTimer.c **** *
 479:Generated_Source\PSoC5/SenseSwitchTimer.c **** *******************************************************************************/
 480:Generated_Source\PSoC5/SenseSwitchTimer.c **** void SenseSwitchTimer_WriteCounter(uint16 counter) 
 481:Generated_Source\PSoC5/SenseSwitchTimer.c **** {
 624              		.loc 1 481 0
 625              		.cfi_startproc
 626              		@ args = 0, pretend = 0, frame = 8
 627              		@ frame_needed = 1, uses_anonymous_args = 0
 628              		@ link register save eliminated.
 629 0000 80B4     		push	{r7}
 630              		.cfi_def_cfa_offset 4
 631              		.cfi_offset 7, -4
 632 0002 83B0     		sub	sp, sp, #12
 633              		.cfi_def_cfa_offset 16
 634 0004 00AF     		add	r7, sp, #0
 635              		.cfi_def_cfa_register 7
 636 0006 0346     		mov	r3, r0
 637 0008 FB80     		strh	r3, [r7, #6]	@ movhi
 482:Generated_Source\PSoC5/SenseSwitchTimer.c ****    #if(SenseSwitchTimer_UsingFixedFunction)
 483:Generated_Source\PSoC5/SenseSwitchTimer.c ****         /* This functionality is removed until a FixedFunction HW update to
 484:Generated_Source\PSoC5/SenseSwitchTimer.c ****          * allow this register to be written
 485:Generated_Source\PSoC5/SenseSwitchTimer.c ****          */
 486:Generated_Source\PSoC5/SenseSwitchTimer.c ****         CY_SET_REG16(SenseSwitchTimer_COUNTER_LSB_PTR, (uint16)counter);
 638              		.loc 1 486 0
 639 000a 044A     		ldr	r2, .L43
 640 000c FB88     		ldrh	r3, [r7, #6]	@ movhi
 641 000e 1380     		strh	r3, [r2]	@ movhi
 487:Generated_Source\PSoC5/SenseSwitchTimer.c ****         
 488:Generated_Source\PSoC5/SenseSwitchTimer.c ****     #else
 489:Generated_Source\PSoC5/SenseSwitchTimer.c ****         CY_SET_REG16(SenseSwitchTimer_COUNTER_LSB_PTR, counter);
 490:Generated_Source\PSoC5/SenseSwitchTimer.c ****     #endif /* Set Write Counter only for the UDB implementation (Write Counter not available in fix
 491:Generated_Source\PSoC5/SenseSwitchTimer.c **** }
 642              		.loc 1 491 0
 643 0010 00BF     		nop
 644 0012 0C37     		adds	r7, r7, #12
 645              		.cfi_def_cfa_offset 4
 646 0014 BD46     		mov	sp, r7
 647              		.cfi_def_cfa_register 13
 648              		@ sp needed
 649 0016 80BC     		pop	{r7}
ARM GAS  C:\Users\tpbw4321\AppData\Local\Temp\ccpvo6pw.s 			page 21


 650              		.cfi_restore 7
 651              		.cfi_def_cfa_offset 0
 652 0018 7047     		bx	lr
 653              	.L44:
 654 001a 00BF     		.align	2
 655              	.L43:
 656 001c 124F0040 		.word	1073762066
 657              		.cfi_endproc
 658              	.LFE12:
 659              		.size	SenseSwitchTimer_WriteCounter, .-SenseSwitchTimer_WriteCounter
 660              		.section	.text.SenseSwitchTimer_ReadCounter,"ax",%progbits
 661              		.align	2
 662              		.global	SenseSwitchTimer_ReadCounter
 663              		.thumb
 664              		.thumb_func
 665              		.type	SenseSwitchTimer_ReadCounter, %function
 666              	SenseSwitchTimer_ReadCounter:
 667              	.LFB13:
 492:Generated_Source\PSoC5/SenseSwitchTimer.c **** 
 493:Generated_Source\PSoC5/SenseSwitchTimer.c **** 
 494:Generated_Source\PSoC5/SenseSwitchTimer.c **** /*******************************************************************************
 495:Generated_Source\PSoC5/SenseSwitchTimer.c **** * Function Name: SenseSwitchTimer_ReadCounter
 496:Generated_Source\PSoC5/SenseSwitchTimer.c **** ********************************************************************************
 497:Generated_Source\PSoC5/SenseSwitchTimer.c **** *
 498:Generated_Source\PSoC5/SenseSwitchTimer.c **** * Summary:
 499:Generated_Source\PSoC5/SenseSwitchTimer.c **** *  This function returns the current counter value.
 500:Generated_Source\PSoC5/SenseSwitchTimer.c **** *
 501:Generated_Source\PSoC5/SenseSwitchTimer.c **** * Parameters:
 502:Generated_Source\PSoC5/SenseSwitchTimer.c **** *  void
 503:Generated_Source\PSoC5/SenseSwitchTimer.c **** *
 504:Generated_Source\PSoC5/SenseSwitchTimer.c **** * Return:
 505:Generated_Source\PSoC5/SenseSwitchTimer.c **** *  Present compare value.
 506:Generated_Source\PSoC5/SenseSwitchTimer.c **** *
 507:Generated_Source\PSoC5/SenseSwitchTimer.c **** *******************************************************************************/
 508:Generated_Source\PSoC5/SenseSwitchTimer.c **** uint16 SenseSwitchTimer_ReadCounter(void) 
 509:Generated_Source\PSoC5/SenseSwitchTimer.c **** {
 668              		.loc 1 509 0
 669              		.cfi_startproc
 670              		@ args = 0, pretend = 0, frame = 0
 671              		@ frame_needed = 1, uses_anonymous_args = 0
 672              		@ link register save eliminated.
 673 0000 80B4     		push	{r7}
 674              		.cfi_def_cfa_offset 4
 675              		.cfi_offset 7, -4
 676 0002 00AF     		add	r7, sp, #0
 677              		.cfi_def_cfa_register 7
 510:Generated_Source\PSoC5/SenseSwitchTimer.c ****     /* Force capture by reading Accumulator */
 511:Generated_Source\PSoC5/SenseSwitchTimer.c ****     /* Must first do a software capture to be able to read the counter */
 512:Generated_Source\PSoC5/SenseSwitchTimer.c ****     /* It is up to the user code to make sure there isn't already captured data in the FIFO */
 513:Generated_Source\PSoC5/SenseSwitchTimer.c ****     #if(SenseSwitchTimer_UsingFixedFunction)
 514:Generated_Source\PSoC5/SenseSwitchTimer.c ****         (void)CY_GET_REG16(SenseSwitchTimer_COUNTER_LSB_PTR);
 678              		.loc 1 514 0
 679 0004 044B     		ldr	r3, .L47
 680 0006 1B88     		ldrh	r3, [r3]	@ movhi
 515:Generated_Source\PSoC5/SenseSwitchTimer.c ****     #else
 516:Generated_Source\PSoC5/SenseSwitchTimer.c ****         (void)CY_GET_REG8(SenseSwitchTimer_COUNTER_LSB_PTR_8BIT);
 517:Generated_Source\PSoC5/SenseSwitchTimer.c ****     #endif/* (SenseSwitchTimer_UsingFixedFunction) */
ARM GAS  C:\Users\tpbw4321\AppData\Local\Temp\ccpvo6pw.s 			page 22


 518:Generated_Source\PSoC5/SenseSwitchTimer.c **** 
 519:Generated_Source\PSoC5/SenseSwitchTimer.c ****     /* Read the data from the FIFO (or capture register for Fixed Function)*/
 520:Generated_Source\PSoC5/SenseSwitchTimer.c ****     #if(SenseSwitchTimer_UsingFixedFunction)
 521:Generated_Source\PSoC5/SenseSwitchTimer.c ****         return ((uint16)CY_GET_REG16(SenseSwitchTimer_CAPTURE_LSB_PTR));
 681              		.loc 1 521 0
 682 0008 044B     		ldr	r3, .L47+4
 683 000a 1B88     		ldrh	r3, [r3]	@ movhi
 684 000c 9BB2     		uxth	r3, r3
 522:Generated_Source\PSoC5/SenseSwitchTimer.c ****     #else
 523:Generated_Source\PSoC5/SenseSwitchTimer.c ****         return (CY_GET_REG16(SenseSwitchTimer_CAPTURE_LSB_PTR));
 524:Generated_Source\PSoC5/SenseSwitchTimer.c ****     #endif /* (SenseSwitchTimer_UsingFixedFunction) */
 525:Generated_Source\PSoC5/SenseSwitchTimer.c **** }
 685              		.loc 1 525 0
 686 000e 1846     		mov	r0, r3
 687 0010 BD46     		mov	sp, r7
 688              		.cfi_def_cfa_register 13
 689              		@ sp needed
 690 0012 80BC     		pop	{r7}
 691              		.cfi_restore 7
 692              		.cfi_def_cfa_offset 0
 693 0014 7047     		bx	lr
 694              	.L48:
 695 0016 00BF     		.align	2
 696              	.L47:
 697 0018 124F0040 		.word	1073762066
 698 001c 144F0040 		.word	1073762068
 699              		.cfi_endproc
 700              	.LFE13:
 701              		.size	SenseSwitchTimer_ReadCounter, .-SenseSwitchTimer_ReadCounter
 702              		.text
 703              	.Letext0:
 704              		.file 2 "Generated_Source\\PSoC5\\cytypes.h"