ARM GAS  C:\Users\tpbw4321\AppData\Local\Temp\ccMlJFu6.s 			page 1


   1              		.syntax unified
   2              		.cpu cortex-m3
   3              		.fpu softvfp
   4              		.eabi_attribute 20, 1
   5              		.eabi_attribute 21, 1
   6              		.eabi_attribute 23, 3
   7              		.eabi_attribute 24, 1
   8              		.eabi_attribute 25, 1
   9              		.eabi_attribute 26, 1
  10              		.eabi_attribute 30, 6
  11              		.eabi_attribute 34, 1
  12              		.eabi_attribute 18, 4
  13              		.thumb
  14              		.syntax unified
  15              		.file	"SensorComTx.c"
  16              		.text
  17              	.Ltext0:
  18              		.cfi_sections	.debug_frame
  19              		.section	.rodata
  20              		.align	2
  21              	.LC0:
  22 0000 696E7661 		.ascii	"invalid_key\000"
  22      6C69645F 
  22      6B657900 
  23              		.align	2
  24              	.LC1:
  25 000c 666C6F77 		.ascii	"flow_target\000"
  25      5F746172 
  25      67657400 
  26              		.align	2
  27              	.LC2:
  28 0018 70685F74 		.ascii	"ph_target\000"
  28      61726765 
  28      7400
  29 0022 0000     		.align	2
  30              	.LC3:
  31 0024 65635F74 		.ascii	"ec_target\000"
  31      61726765 
  31      7400
  32 002e 0000     		.align	2
  33              	.LC4:
  34 0030 6832305F 		.ascii	"h20_level_target\000"
  34      6C657665 
  34      6C5F7461 
  34      72676574 
  34      00
  35 0041 000000   		.align	2
  36              	.LC5:
  37 0044 6832305F 		.ascii	"h20_level\000"
  37      6C657665 
  37      6C00
  38 004e 0000     		.align	2
  39              	.LC6:
  40 0050 6832305F 		.ascii	"h20_stored\000"
  40      73746F72 
  40      656400
  41 005b 00       		.align	2
ARM GAS  C:\Users\tpbw4321\AppData\Local\Temp\ccMlJFu6.s 			page 2


  42              	.LC7:
  43 005c 70685F6D 		.ascii	"ph_measured\000"
  43      65617375 
  43      72656400 
  44              		.align	2
  45              	.LC8:
  46 0068 70685F75 		.ascii	"ph_up_stored\000"
  46      705F7374 
  46      6F726564 
  46      00
  47 0075 000000   		.align	2
  48              	.LC9:
  49 0078 70685F64 		.ascii	"ph_down_stored\000"
  49      6F776E5F 
  49      73746F72 
  49      656400
  50 0087 00       		.align	2
  51              	.LC10:
  52 0088 65635F6D 		.ascii	"ec_measured\000"
  52      65617375 
  52      72656400 
  53              		.align	2
  54              	.LC11:
  55 0094 65635F73 		.ascii	"ec_stored\000"
  55      746F7265 
  55      6400
  56 009e 0000     		.align	2
  57              	.LC12:
  58 00a0 74656D70 		.ascii	"temp_measured\000"
  58      5F6D6561 
  58      73757265 
  58      6400
  59 00ae 0000     		.align	2
  60              	.LC13:
  61 00b0 666C6F77 		.ascii	"flow_measured\000"
  61      5F6D6561 
  61      73757265 
  61      6400
  62              		.data
  63              		.align	2
  64              		.type	pkey_const, %object
  65              		.size	pkey_const, 56
  66              	pkey_const:
  67 0000 00000000 		.word	.LC0
  68 0004 0C000000 		.word	.LC1
  69 0008 18000000 		.word	.LC2
  70 000c 24000000 		.word	.LC3
  71 0010 30000000 		.word	.LC4
  72 0014 44000000 		.word	.LC5
  73 0018 50000000 		.word	.LC6
  74 001c 5C000000 		.word	.LC7
  75 0020 68000000 		.word	.LC8
  76 0024 78000000 		.word	.LC9
  77 0028 88000000 		.word	.LC10
  78 002c 94000000 		.word	.LC11
  79 0030 A0000000 		.word	.LC12
  80 0034 B0000000 		.word	.LC13
ARM GAS  C:\Users\tpbw4321\AppData\Local\Temp\ccMlJFu6.s 			page 3


  81              		.bss
  82              		.align	2
  83              	buffer:
  84 0000 00000000 		.space	255
  84      00000000 
  84      00000000 
  84      00000000 
  84      00000000 
  85              		.data
  86              		.type	ready, %object
  87              		.size	ready, 1
  88              	ready:
  89 0038 02       		.byte	2
  90              		.section	.text.SensorComTx_Init,"ax",%progbits
  91              		.align	2
  92              		.global	SensorComTx_Init
  93              		.thumb
  94              		.thumb_func
  95              		.type	SensorComTx_Init, %function
  96              	SensorComTx_Init:
  97              	.LFB64:
  98              		.file 1 "src\\SensorComTx.c"
   1:src/SensorComTx.c **** /* ========================================
   2:src/SensorComTx.c ****  *
   3:src/SensorComTx.c ****  * Copyright YOUR COMPANY, THE YEAR
   4:src/SensorComTx.c ****  * All Rights Reserved
   5:src/SensorComTx.c ****  * UNPUBLISHED, LICENSED SOFTWARE.
   6:src/SensorComTx.c ****  *
   7:src/SensorComTx.c ****  * CONFIDENTIAL AND PROPRIETARY INFORMATION
   8:src/SensorComTx.c ****  * WHICH IS THE PROPERTY OF AdvancedByte.
   9:src/SensorComTx.c ****  *
  10:src/SensorComTx.c ****  * ========================================
  11:src/SensorComTx.c **** */
  12:src/SensorComTx.c **** #include <stdio.h>
  13:src/SensorComTx.c **** #include <string.h>
  14:src/SensorComTx.c **** #include <stdlib.h>
  15:src/SensorComTx.c **** #include "project.h"
  16:src/SensorComTx.c **** #include "SensorComTx.h"
  17:src/SensorComTx.c **** #include "sensor_data.h"
  18:src/SensorComTx.c **** 
  19:src/SensorComTx.c **** #define BUFF_SIZE 255
  20:src/SensorComTx.c **** #define TRUE 1
  21:src/SensorComTx.c **** #define FALSE 2
  22:src/SensorComTx.c **** extern struct SensorData sd;
  23:src/SensorComTx.c **** static char buffer[BUFF_SIZE];
  24:src/SensorComTx.c **** static uint8_t ready = FALSE;
  25:src/SensorComTx.c **** int CalcChecksum(const char *s);
  26:src/SensorComTx.c **** 
  27:src/SensorComTx.c **** /**
  28:src/SensorComTx.c ****  * @function SensorComTx_Init()
  29:src/SensorComTx.c ****  * @param None
  30:src/SensorComTx.c ****  * @return None
  31:src/SensorComTx.c ****  * @brief Initialize serial communication for sensor data
  32:src/SensorComTx.c ****  * @author Barron Wong 04/04/19
  33:src/SensorComTx.c ****  */
  34:src/SensorComTx.c **** void SensorComTx_Init(){
  99              		.loc 1 34 0
ARM GAS  C:\Users\tpbw4321\AppData\Local\Temp\ccMlJFu6.s 			page 4


 100              		.cfi_startproc
 101              		@ args = 0, pretend = 0, frame = 0
 102              		@ frame_needed = 1, uses_anonymous_args = 0
 103 0000 80B5     		push	{r7, lr}
 104              		.cfi_def_cfa_offset 8
 105              		.cfi_offset 7, -8
 106              		.cfi_offset 14, -4
 107 0002 00AF     		add	r7, sp, #0
 108              		.cfi_def_cfa_register 7
  35:src/SensorComTx.c ****     SensorDataComISR_StartEx(SensorDataComISRHandler);
 109              		.loc 1 35 0
 110 0004 0448     		ldr	r0, .L2
 111 0006 FFF7FEFF 		bl	SensorDataComISR_StartEx
  36:src/SensorComTx.c ****     SensorComTxUART_Start();
 112              		.loc 1 36 0
 113 000a FFF7FEFF 		bl	SensorComTxUART_Start
  37:src/SensorComTx.c ****     SensorDataComTimer_Start();
 114              		.loc 1 37 0
 115 000e FFF7FEFF 		bl	SensorDataComTimer_Start
  38:src/SensorComTx.c **** }
 116              		.loc 1 38 0
 117 0012 00BF     		nop
 118 0014 80BD     		pop	{r7, pc}
 119              	.L3:
 120 0016 00BF     		.align	2
 121              	.L2:
 122 0018 00000000 		.word	SensorDataComISRHandler
 123              		.cfi_endproc
 124              	.LFE64:
 125              		.size	SensorComTx_Init, .-SensorComTx_Init
 126              		.section	.text.SensorComTx_isReady,"ax",%progbits
 127              		.align	2
 128              		.global	SensorComTx_isReady
 129              		.thumb
 130              		.thumb_func
 131              		.type	SensorComTx_isReady, %function
 132              	SensorComTx_isReady:
 133              	.LFB65:
  39:src/SensorComTx.c **** 
  40:src/SensorComTx.c **** /**
  41:src/SensorComTx.c ****  * @function SensorComTx_isReady()
  42:src/SensorComTx.c ****  * @param None
  43:src/SensorComTx.c ****  * @return None
  44:src/SensorComTx.c ****  * @brief Check if its time to send out data
  45:src/SensorComTx.c ****  * @author Barron Wong 05/15/19
  46:src/SensorComTx.c ****  */
  47:src/SensorComTx.c **** uint8_t SensorComTx_isReady(){
 134              		.loc 1 47 0
 135              		.cfi_startproc
 136              		@ args = 0, pretend = 0, frame = 0
 137              		@ frame_needed = 1, uses_anonymous_args = 0
 138              		@ link register save eliminated.
 139 0000 80B4     		push	{r7}
 140              		.cfi_def_cfa_offset 4
 141              		.cfi_offset 7, -4
 142 0002 00AF     		add	r7, sp, #0
 143              		.cfi_def_cfa_register 7
ARM GAS  C:\Users\tpbw4321\AppData\Local\Temp\ccMlJFu6.s 			page 5


  48:src/SensorComTx.c ****     if(ready){
 144              		.loc 1 48 0
 145 0004 064B     		ldr	r3, .L7
 146 0006 1B78     		ldrb	r3, [r3]	@ zero_extendqisi2
 147 0008 002B     		cmp	r3, #0
 148 000a 04D0     		beq	.L5
  49:src/SensorComTx.c ****         ready = FALSE;
 149              		.loc 1 49 0
 150 000c 044B     		ldr	r3, .L7
 151 000e 0222     		movs	r2, #2
 152 0010 1A70     		strb	r2, [r3]
  50:src/SensorComTx.c ****         return TRUE;
 153              		.loc 1 50 0
 154 0012 0123     		movs	r3, #1
 155 0014 00E0     		b	.L6
 156              	.L5:
  51:src/SensorComTx.c ****     }
  52:src/SensorComTx.c ****     return FALSE;
 157              		.loc 1 52 0
 158 0016 0223     		movs	r3, #2
 159              	.L6:
  53:src/SensorComTx.c **** }
 160              		.loc 1 53 0
 161 0018 1846     		mov	r0, r3
 162 001a BD46     		mov	sp, r7
 163              		.cfi_def_cfa_register 13
 164              		@ sp needed
 165 001c 80BC     		pop	{r7}
 166              		.cfi_restore 7
 167              		.cfi_def_cfa_offset 0
 168 001e 7047     		bx	lr
 169              	.L8:
 170              		.align	2
 171              	.L7:
 172 0020 38000000 		.word	ready
 173              		.cfi_endproc
 174              	.LFE65:
 175              		.size	SensorComTx_isReady, .-SensorComTx_isReady
 176              		.global	__aeabi_d2f
 177              		.section	.rodata
 178 00be 0000     		.align	2
 179              	.LC14:
 180 00c0 25303258 		.ascii	"%02X\000"
 180      00
 181              		.section	.text.SensorComTx_EncodeMessage,"ax",%progbits
 182              		.align	2
 183              		.global	SensorComTx_EncodeMessage
 184              		.thumb
 185              		.thumb_func
 186              		.type	SensorComTx_EncodeMessage, %function
 187              	SensorComTx_EncodeMessage:
 188              	.LFB66:
  54:src/SensorComTx.c **** 
  55:src/SensorComTx.c **** /**
  56:src/SensorComTx.c ****  * @function SensorComTx_EncodeMessage()
  57:src/SensorComTx.c ****  * @param SensorData structure, buffer
  58:src/SensorComTx.c ****  * @return None
ARM GAS  C:\Users\tpbw4321\AppData\Local\Temp\ccMlJFu6.s 			page 6


  59:src/SensorComTx.c ****  * @brief Takes in a SensorData structure and returns
  60:src/SensorComTx.c ****  *        a string in nmea0183 format
  61:src/SensorComTx.c ****  * @author Barron Wong 04/04/19
  62:src/SensorComTx.c ****  */
  63:src/SensorComTx.c **** char * SensorComTx_EncodeMessage(struct SensorData sd, char * buffer){
 189              		.loc 1 63 0
 190              		.cfi_startproc
 191              		@ args = 372, pretend = 16, frame = 272
 192              		@ frame_needed = 1, uses_anonymous_args = 0
 193 0000 84B0     		sub	sp, sp, #16
 194              		.cfi_def_cfa_offset 16
 195 0002 90B5     		push	{r4, r7, lr}
 196              		.cfi_def_cfa_offset 28
 197              		.cfi_offset 4, -28
 198              		.cfi_offset 7, -24
 199              		.cfi_offset 14, -20
 200 0004 C5B0     		sub	sp, sp, #276
 201              		.cfi_def_cfa_offset 304
 202 0006 00AF     		add	r7, sp, #0
 203              		.cfi_def_cfa_register 7
 204 0008 07F59074 		add	r4, r7, #288
 205 000c 84E80F00 		stmia	r4, {r0, r1, r2, r3}
  64:src/SensorComTx.c ****     int len;
  65:src/SensorComTx.c ****     int checksum;
  66:src/SensorComTx.c ****     char data_buffer[BUFF_SIZE];
  67:src/SensorComTx.c ****     
  68:src/SensorComTx.c ****     //Clear buffer
  69:src/SensorComTx.c ****     len = strlen(buffer);
 206              		.loc 1 69 0
 207 0010 D7F89002 		ldr	r0, [r7, #656]
 208 0014 FFF7FEFF 		bl	strlen
 209 0018 0346     		mov	r3, r0
 210 001a C7F80831 		str	r3, [r7, #264]
 211              	.LBB2:
  70:src/SensorComTx.c ****     for(int i = 0; i < len; i++){
 212              		.loc 1 70 0
 213 001e 0023     		movs	r3, #0
 214 0020 C7F80C31 		str	r3, [r7, #268]
 215 0024 0BE0     		b	.L10
 216              	.L11:
  71:src/SensorComTx.c ****         buffer[i] = 0;
 217              		.loc 1 71 0 discriminator 3
 218 0026 D7F80C31 		ldr	r3, [r7, #268]
 219 002a D7F89022 		ldr	r2, [r7, #656]
 220 002e 1344     		add	r3, r3, r2
 221 0030 0022     		movs	r2, #0
 222 0032 1A70     		strb	r2, [r3]
  70:src/SensorComTx.c ****     for(int i = 0; i < len; i++){
 223              		.loc 1 70 0 discriminator 3
 224 0034 D7F80C31 		ldr	r3, [r7, #268]
 225 0038 0133     		adds	r3, r3, #1
 226 003a C7F80C31 		str	r3, [r7, #268]
 227              	.L10:
  70:src/SensorComTx.c ****     for(int i = 0; i < len; i++){
 228              		.loc 1 70 0 is_stmt 0 discriminator 1
 229 003e D7F80C21 		ldr	r2, [r7, #268]
 230 0042 D7F80831 		ldr	r3, [r7, #264]
ARM GAS  C:\Users\tpbw4321\AppData\Local\Temp\ccMlJFu6.s 			page 7


 231 0046 9A42     		cmp	r2, r3
 232 0048 EDDB     		blt	.L11
 233              	.LBE2:
  72:src/SensorComTx.c ****     }
  73:src/SensorComTx.c ****     
  74:src/SensorComTx.c ****     buffer[0] = '$';
 234              		.loc 1 74 0 is_stmt 1
 235 004a D7F89032 		ldr	r3, [r7, #656]
 236 004e 2422     		movs	r2, #36
 237 0050 1A70     		strb	r2, [r3]
  75:src/SensorComTx.c ****     
  76:src/SensorComTx.c ****     //h20_level
  77:src/SensorComTx.c ****     strcat(buffer,Protocol_EncodeOutput(h20_level, sd.h2o_level, data_buffer));
 238              		.loc 1 77 0
 239 0052 07F59073 		add	r3, r7, #288
 240 0056 18CB     		ldmia	r3, {r3-r4}
 241 0058 1846     		mov	r0, r3
 242 005a 2146     		mov	r1, r4
 243 005c FFF7FEFF 		bl	__aeabi_d2f
 244 0060 0146     		mov	r1, r0
 245 0062 3B1D     		adds	r3, r7, #4
 246 0064 1A46     		mov	r2, r3
 247 0066 0520     		movs	r0, #5
 248 0068 FFF7FEFF 		bl	Protocol_EncodeOutput
 249 006c 0346     		mov	r3, r0
 250 006e 1946     		mov	r1, r3
 251 0070 D7F89002 		ldr	r0, [r7, #656]
 252 0074 FFF7FEFF 		bl	strcat
  78:src/SensorComTx.c ****     buffer[strlen(buffer)]= ',';
 253              		.loc 1 78 0
 254 0078 D7F89002 		ldr	r0, [r7, #656]
 255 007c FFF7FEFF 		bl	strlen
 256 0080 0246     		mov	r2, r0
 257 0082 D7F89032 		ldr	r3, [r7, #656]
 258 0086 1344     		add	r3, r3, r2
 259 0088 2C22     		movs	r2, #44
 260 008a 1A70     		strb	r2, [r3]
  79:src/SensorComTx.c ****     
  80:src/SensorComTx.c ****     //h20_stored
  81:src/SensorComTx.c ****     strcat(buffer,Protocol_EncodeOutput(h20_stored, sd.h2o_stored, data_buffer));
 261              		.loc 1 81 0
 262 008c 07F59473 		add	r3, r7, #296
 263 0090 18CB     		ldmia	r3, {r3-r4}
 264 0092 1846     		mov	r0, r3
 265 0094 2146     		mov	r1, r4
 266 0096 FFF7FEFF 		bl	__aeabi_d2f
 267 009a 0146     		mov	r1, r0
 268 009c 3B1D     		adds	r3, r7, #4
 269 009e 1A46     		mov	r2, r3
 270 00a0 0620     		movs	r0, #6
 271 00a2 FFF7FEFF 		bl	Protocol_EncodeOutput
 272 00a6 0346     		mov	r3, r0
 273 00a8 1946     		mov	r1, r3
 274 00aa D7F89002 		ldr	r0, [r7, #656]
 275 00ae FFF7FEFF 		bl	strcat
  82:src/SensorComTx.c ****     buffer[strlen(buffer)]= ',';
 276              		.loc 1 82 0
ARM GAS  C:\Users\tpbw4321\AppData\Local\Temp\ccMlJFu6.s 			page 8


 277 00b2 D7F89002 		ldr	r0, [r7, #656]
 278 00b6 FFF7FEFF 		bl	strlen
 279 00ba 0246     		mov	r2, r0
 280 00bc D7F89032 		ldr	r3, [r7, #656]
 281 00c0 1344     		add	r3, r3, r2
 282 00c2 2C22     		movs	r2, #44
 283 00c4 1A70     		strb	r2, [r3]
  83:src/SensorComTx.c ****     
  84:src/SensorComTx.c ****     //ph_measured
  85:src/SensorComTx.c ****     strcat(buffer,Protocol_EncodeOutput(ph_measured, sd.ph_level, data_buffer));
 284              		.loc 1 85 0
 285 00c6 07F59873 		add	r3, r7, #304
 286 00ca 18CB     		ldmia	r3, {r3-r4}
 287 00cc 1846     		mov	r0, r3
 288 00ce 2146     		mov	r1, r4
 289 00d0 FFF7FEFF 		bl	__aeabi_d2f
 290 00d4 0146     		mov	r1, r0
 291 00d6 3B1D     		adds	r3, r7, #4
 292 00d8 1A46     		mov	r2, r3
 293 00da 0720     		movs	r0, #7
 294 00dc FFF7FEFF 		bl	Protocol_EncodeOutput
 295 00e0 0346     		mov	r3, r0
 296 00e2 1946     		mov	r1, r3
 297 00e4 D7F89002 		ldr	r0, [r7, #656]
 298 00e8 FFF7FEFF 		bl	strcat
  86:src/SensorComTx.c ****     buffer[strlen(buffer)]= ',';
 299              		.loc 1 86 0
 300 00ec D7F89002 		ldr	r0, [r7, #656]
 301 00f0 FFF7FEFF 		bl	strlen
 302 00f4 0246     		mov	r2, r0
 303 00f6 D7F89032 		ldr	r3, [r7, #656]
 304 00fa 1344     		add	r3, r3, r2
 305 00fc 2C22     		movs	r2, #44
 306 00fe 1A70     		strb	r2, [r3]
  87:src/SensorComTx.c ****     
  88:src/SensorComTx.c ****     //ph_up_stored
  89:src/SensorComTx.c ****     strcat(buffer,Protocol_EncodeOutput(ph_up_stored, sd.ph_up_stored, data_buffer));
 307              		.loc 1 89 0
 308 0100 07F59C73 		add	r3, r7, #312
 309 0104 18CB     		ldmia	r3, {r3-r4}
 310 0106 1846     		mov	r0, r3
 311 0108 2146     		mov	r1, r4
 312 010a FFF7FEFF 		bl	__aeabi_d2f
 313 010e 0146     		mov	r1, r0
 314 0110 3B1D     		adds	r3, r7, #4
 315 0112 1A46     		mov	r2, r3
 316 0114 0820     		movs	r0, #8
 317 0116 FFF7FEFF 		bl	Protocol_EncodeOutput
 318 011a 0346     		mov	r3, r0
 319 011c 1946     		mov	r1, r3
 320 011e D7F89002 		ldr	r0, [r7, #656]
 321 0122 FFF7FEFF 		bl	strcat
  90:src/SensorComTx.c ****     buffer[strlen(buffer)]= ',';
 322              		.loc 1 90 0
 323 0126 D7F89002 		ldr	r0, [r7, #656]
 324 012a FFF7FEFF 		bl	strlen
 325 012e 0246     		mov	r2, r0
ARM GAS  C:\Users\tpbw4321\AppData\Local\Temp\ccMlJFu6.s 			page 9


 326 0130 D7F89032 		ldr	r3, [r7, #656]
 327 0134 1344     		add	r3, r3, r2
 328 0136 2C22     		movs	r2, #44
 329 0138 1A70     		strb	r2, [r3]
  91:src/SensorComTx.c ****     
  92:src/SensorComTx.c ****     //ph_down_stored
  93:src/SensorComTx.c ****     strcat(buffer,Protocol_EncodeOutput(ph_down_stored, sd.ph_down_stored, data_buffer));
 330              		.loc 1 93 0
 331 013a 07F5A073 		add	r3, r7, #320
 332 013e 18CB     		ldmia	r3, {r3-r4}
 333 0140 1846     		mov	r0, r3
 334 0142 2146     		mov	r1, r4
 335 0144 FFF7FEFF 		bl	__aeabi_d2f
 336 0148 0146     		mov	r1, r0
 337 014a 3B1D     		adds	r3, r7, #4
 338 014c 1A46     		mov	r2, r3
 339 014e 0920     		movs	r0, #9
 340 0150 FFF7FEFF 		bl	Protocol_EncodeOutput
 341 0154 0346     		mov	r3, r0
 342 0156 1946     		mov	r1, r3
 343 0158 D7F89002 		ldr	r0, [r7, #656]
 344 015c FFF7FEFF 		bl	strcat
  94:src/SensorComTx.c ****     buffer[strlen(buffer)]= ',';
 345              		.loc 1 94 0
 346 0160 D7F89002 		ldr	r0, [r7, #656]
 347 0164 FFF7FEFF 		bl	strlen
 348 0168 0246     		mov	r2, r0
 349 016a D7F89032 		ldr	r3, [r7, #656]
 350 016e 1344     		add	r3, r3, r2
 351 0170 2C22     		movs	r2, #44
 352 0172 1A70     		strb	r2, [r3]
  95:src/SensorComTx.c ****     
  96:src/SensorComTx.c ****     //ec_measured
  97:src/SensorComTx.c ****     strcat(buffer,Protocol_EncodeOutput(ec_measured, sd.ec_level, data_buffer));
 353              		.loc 1 97 0
 354 0174 07F5A473 		add	r3, r7, #328
 355 0178 18CB     		ldmia	r3, {r3-r4}
 356 017a 1846     		mov	r0, r3
 357 017c 2146     		mov	r1, r4
 358 017e FFF7FEFF 		bl	__aeabi_d2f
 359 0182 0146     		mov	r1, r0
 360 0184 3B1D     		adds	r3, r7, #4
 361 0186 1A46     		mov	r2, r3
 362 0188 0A20     		movs	r0, #10
 363 018a FFF7FEFF 		bl	Protocol_EncodeOutput
 364 018e 0346     		mov	r3, r0
 365 0190 1946     		mov	r1, r3
 366 0192 D7F89002 		ldr	r0, [r7, #656]
 367 0196 FFF7FEFF 		bl	strcat
  98:src/SensorComTx.c ****     buffer[strlen(buffer)]= ',';
 368              		.loc 1 98 0
 369 019a D7F89002 		ldr	r0, [r7, #656]
 370 019e FFF7FEFF 		bl	strlen
 371 01a2 0246     		mov	r2, r0
 372 01a4 D7F89032 		ldr	r3, [r7, #656]
 373 01a8 1344     		add	r3, r3, r2
 374 01aa 2C22     		movs	r2, #44
ARM GAS  C:\Users\tpbw4321\AppData\Local\Temp\ccMlJFu6.s 			page 10


 375 01ac 1A70     		strb	r2, [r3]
  99:src/SensorComTx.c ****     
 100:src/SensorComTx.c ****     //ec_stored
 101:src/SensorComTx.c ****     strcat(buffer,Protocol_EncodeOutput(ec_stored, sd.ec_stored, data_buffer));
 376              		.loc 1 101 0
 377 01ae 07F5A873 		add	r3, r7, #336
 378 01b2 18CB     		ldmia	r3, {r3-r4}
 379 01b4 1846     		mov	r0, r3
 380 01b6 2146     		mov	r1, r4
 381 01b8 FFF7FEFF 		bl	__aeabi_d2f
 382 01bc 0146     		mov	r1, r0
 383 01be 3B1D     		adds	r3, r7, #4
 384 01c0 1A46     		mov	r2, r3
 385 01c2 0B20     		movs	r0, #11
 386 01c4 FFF7FEFF 		bl	Protocol_EncodeOutput
 387 01c8 0346     		mov	r3, r0
 388 01ca 1946     		mov	r1, r3
 389 01cc D7F89002 		ldr	r0, [r7, #656]
 390 01d0 FFF7FEFF 		bl	strcat
 102:src/SensorComTx.c ****     buffer[strlen(buffer)]= ',';
 391              		.loc 1 102 0
 392 01d4 D7F89002 		ldr	r0, [r7, #656]
 393 01d8 FFF7FEFF 		bl	strlen
 394 01dc 0246     		mov	r2, r0
 395 01de D7F89032 		ldr	r3, [r7, #656]
 396 01e2 1344     		add	r3, r3, r2
 397 01e4 2C22     		movs	r2, #44
 398 01e6 1A70     		strb	r2, [r3]
 103:src/SensorComTx.c ****     
 104:src/SensorComTx.c ****     //temp_measured
 105:src/SensorComTx.c ****     strcat(buffer,Protocol_EncodeOutput(temp_measured, sd.temp_measured, data_buffer));
 399              		.loc 1 105 0
 400 01e8 07F5AC73 		add	r3, r7, #344
 401 01ec 18CB     		ldmia	r3, {r3-r4}
 402 01ee 1846     		mov	r0, r3
 403 01f0 2146     		mov	r1, r4
 404 01f2 FFF7FEFF 		bl	__aeabi_d2f
 405 01f6 0146     		mov	r1, r0
 406 01f8 3B1D     		adds	r3, r7, #4
 407 01fa 1A46     		mov	r2, r3
 408 01fc 0C20     		movs	r0, #12
 409 01fe FFF7FEFF 		bl	Protocol_EncodeOutput
 410 0202 0346     		mov	r3, r0
 411 0204 1946     		mov	r1, r3
 412 0206 D7F89002 		ldr	r0, [r7, #656]
 413 020a FFF7FEFF 		bl	strcat
 106:src/SensorComTx.c ****     buffer[strlen(buffer)]= ',';
 414              		.loc 1 106 0
 415 020e D7F89002 		ldr	r0, [r7, #656]
 416 0212 FFF7FEFF 		bl	strlen
 417 0216 0246     		mov	r2, r0
 418 0218 D7F89032 		ldr	r3, [r7, #656]
 419 021c 1344     		add	r3, r3, r2
 420 021e 2C22     		movs	r2, #44
 421 0220 1A70     		strb	r2, [r3]
 107:src/SensorComTx.c ****     
 108:src/SensorComTx.c ****     //flow_measured
ARM GAS  C:\Users\tpbw4321\AppData\Local\Temp\ccMlJFu6.s 			page 11


 109:src/SensorComTx.c ****     strcat(buffer,Protocol_EncodeOutput(flow_measured, sd.flow_measured, data_buffer));
 422              		.loc 1 109 0
 423 0222 07F5B073 		add	r3, r7, #352
 424 0226 18CB     		ldmia	r3, {r3-r4}
 425 0228 1846     		mov	r0, r3
 426 022a 2146     		mov	r1, r4
 427 022c FFF7FEFF 		bl	__aeabi_d2f
 428 0230 0146     		mov	r1, r0
 429 0232 3B1D     		adds	r3, r7, #4
 430 0234 1A46     		mov	r2, r3
 431 0236 0D20     		movs	r0, #13
 432 0238 FFF7FEFF 		bl	Protocol_EncodeOutput
 433 023c 0346     		mov	r3, r0
 434 023e 1946     		mov	r1, r3
 435 0240 D7F89002 		ldr	r0, [r7, #656]
 436 0244 FFF7FEFF 		bl	strcat
 110:src/SensorComTx.c ****     
 111:src/SensorComTx.c ****     //Calc checksum ignoring starting character
 112:src/SensorComTx.c ****     checksum = CalcChecksum(buffer+1);
 437              		.loc 1 112 0
 438 0248 D7F89032 		ldr	r3, [r7, #656]
 439 024c 0133     		adds	r3, r3, #1
 440 024e 1846     		mov	r0, r3
 441 0250 FFF7FEFF 		bl	CalcChecksum
 442 0254 C7F80401 		str	r0, [r7, #260]
 113:src/SensorComTx.c ****     
 114:src/SensorComTx.c ****     buffer[strlen(buffer)]= '*';
 443              		.loc 1 114 0
 444 0258 D7F89002 		ldr	r0, [r7, #656]
 445 025c FFF7FEFF 		bl	strlen
 446 0260 0246     		mov	r2, r0
 447 0262 D7F89032 		ldr	r3, [r7, #656]
 448 0266 1344     		add	r3, r3, r2
 449 0268 2A22     		movs	r2, #42
 450 026a 1A70     		strb	r2, [r3]
 115:src/SensorComTx.c ****     sprintf(data_buffer,"%02X",checksum);
 451              		.loc 1 115 0
 452 026c 3B1D     		adds	r3, r7, #4
 453 026e D7F80421 		ldr	r2, [r7, #260]
 454 0272 0A49     		ldr	r1, .L13
 455 0274 1846     		mov	r0, r3
 456 0276 FFF7FEFF 		bl	sprintf
 116:src/SensorComTx.c ****     strcat(buffer, data_buffer);
 457              		.loc 1 116 0
 458 027a 3B1D     		adds	r3, r7, #4
 459 027c 1946     		mov	r1, r3
 460 027e D7F89002 		ldr	r0, [r7, #656]
 461 0282 FFF7FEFF 		bl	strcat
 117:src/SensorComTx.c ****     //printf("%s\r\n", buffer);
 118:src/SensorComTx.c ****     
 119:src/SensorComTx.c ****     return buffer;
 462              		.loc 1 119 0
 463 0286 D7F89032 		ldr	r3, [r7, #656]
 120:src/SensorComTx.c **** }
 464              		.loc 1 120 0
 465 028a 1846     		mov	r0, r3
 466 028c 07F58A77 		add	r7, r7, #276
ARM GAS  C:\Users\tpbw4321\AppData\Local\Temp\ccMlJFu6.s 			page 12


 467              		.cfi_def_cfa_offset 28
 468 0290 BD46     		mov	sp, r7
 469              		.cfi_def_cfa_register 13
 470              		@ sp needed
 471 0292 BDE89040 		pop	{r4, r7, lr}
 472              		.cfi_restore 14
 473              		.cfi_restore 7
 474              		.cfi_restore 4
 475              		.cfi_def_cfa_offset 16
 476 0296 04B0     		add	sp, sp, #16
 477              		.cfi_def_cfa_offset 0
 478 0298 7047     		bx	lr
 479              	.L14:
 480 029a 00BF     		.align	2
 481              	.L13:
 482 029c C0000000 		.word	.LC14
 483              		.cfi_endproc
 484              	.LFE66:
 485              		.size	SensorComTx_EncodeMessage, .-SensorComTx_EncodeMessage
 486              		.section	.text.CalcChecksum,"ax",%progbits
 487              		.align	2
 488              		.global	CalcChecksum
 489              		.thumb
 490              		.thumb_func
 491              		.type	CalcChecksum, %function
 492              	CalcChecksum:
 493              	.LFB67:
 121:src/SensorComTx.c **** /**
 122:src/SensorComTx.c ****  * @function checksum()
 123:src/SensorComTx.c ****  * @param pointer to string that needs checksum generated
 124:src/SensorComTx.c ****  * @return checksum
 125:src/SensorComTx.c ****  * @brief computes and returns checksum of a string
 126:src/SensorComTx.c ****  * @author NMEA0183 Wikipedia Page
 127:src/SensorComTx.c ****  */
 128:src/SensorComTx.c **** int CalcChecksum(const char *s) {
 494              		.loc 1 128 0
 495              		.cfi_startproc
 496              		@ args = 0, pretend = 0, frame = 16
 497              		@ frame_needed = 1, uses_anonymous_args = 0
 498              		@ link register save eliminated.
 499 0000 80B4     		push	{r7}
 500              		.cfi_def_cfa_offset 4
 501              		.cfi_offset 7, -4
 502 0002 85B0     		sub	sp, sp, #20
 503              		.cfi_def_cfa_offset 24
 504 0004 00AF     		add	r7, sp, #0
 505              		.cfi_def_cfa_register 7
 506 0006 7860     		str	r0, [r7, #4]
 129:src/SensorComTx.c ****     int c = 0;
 507              		.loc 1 129 0
 508 0008 0023     		movs	r3, #0
 509 000a FB60     		str	r3, [r7, #12]
 130:src/SensorComTx.c **** 
 131:src/SensorComTx.c ****     while(*s){
 510              		.loc 1 131 0
 511 000c 07E0     		b	.L16
 512              	.L17:
ARM GAS  C:\Users\tpbw4321\AppData\Local\Temp\ccMlJFu6.s 			page 13


 132:src/SensorComTx.c ****         c ^= *s++;
 513              		.loc 1 132 0
 514 000e 7B68     		ldr	r3, [r7, #4]
 515 0010 5A1C     		adds	r2, r3, #1
 516 0012 7A60     		str	r2, [r7, #4]
 517 0014 1B78     		ldrb	r3, [r3]	@ zero_extendqisi2
 518 0016 1A46     		mov	r2, r3
 519 0018 FB68     		ldr	r3, [r7, #12]
 520 001a 5340     		eors	r3, r3, r2
 521 001c FB60     		str	r3, [r7, #12]
 522              	.L16:
 131:src/SensorComTx.c ****         c ^= *s++;
 523              		.loc 1 131 0
 524 001e 7B68     		ldr	r3, [r7, #4]
 525 0020 1B78     		ldrb	r3, [r3]	@ zero_extendqisi2
 526 0022 002B     		cmp	r3, #0
 527 0024 F3D1     		bne	.L17
 133:src/SensorComTx.c ****     }
 134:src/SensorComTx.c ****     return c;
 528              		.loc 1 134 0
 529 0026 FB68     		ldr	r3, [r7, #12]
 135:src/SensorComTx.c **** }
 530              		.loc 1 135 0
 531 0028 1846     		mov	r0, r3
 532 002a 1437     		adds	r7, r7, #20
 533              		.cfi_def_cfa_offset 4
 534 002c BD46     		mov	sp, r7
 535              		.cfi_def_cfa_register 13
 536              		@ sp needed
 537 002e 80BC     		pop	{r7}
 538              		.cfi_restore 7
 539              		.cfi_def_cfa_offset 0
 540 0030 7047     		bx	lr
 541              		.cfi_endproc
 542              	.LFE67:
 543              		.size	CalcChecksum, .-CalcChecksum
 544 0032 00BF     		.section	.text.SensorDataComISRHandler,"ax",%progbits
 545              		.align	2
 546              		.global	SensorDataComISRHandler
 547              		.thumb
 548              		.thumb_func
 549              		.type	SensorDataComISRHandler, %function
 550              	SensorDataComISRHandler:
 551              	.LFB68:
 136:src/SensorComTx.c **** /**
 137:src/SensorComTx.c ****  * @function SensorDataComISRHandler(void)
 138:src/SensorComTx.c ****  * @param None
 139:src/SensorComTx.c ****  * @return None
 140:src/SensorComTx.c ****  * @brief ISR handler for sensor data transmission. Sends updated
 141:src/SensorComTx.c ****  *        SensorData every 200ms
 142:src/SensorComTx.c ****  * @author Barron Wong 04/05/19
 143:src/SensorComTx.c ****  */
 144:src/SensorComTx.c **** CY_ISR(SensorDataComISRHandler){
 552              		.loc 1 144 0
 553              		.cfi_startproc
 554              		@ args = 0, pretend = 0, frame = 0
 555              		@ frame_needed = 1, uses_anonymous_args = 0
ARM GAS  C:\Users\tpbw4321\AppData\Local\Temp\ccMlJFu6.s 			page 14


 556 0000 90B5     		push	{r4, r7, lr}
 557              		.cfi_def_cfa_offset 12
 558              		.cfi_offset 4, -12
 559              		.cfi_offset 7, -8
 560              		.cfi_offset 14, -4
 561 0002 DBB0     		sub	sp, sp, #364
 562              		.cfi_def_cfa_offset 376
 563 0004 5AAF     		add	r7, sp, #360
 564              		.cfi_def_cfa 7, 16
 145:src/SensorComTx.c ****     SensorDataComISR_ClearPending();
 565              		.loc 1 145 0
 566 0006 FFF7FEFF 		bl	SensorDataComISR_ClearPending
 146:src/SensorComTx.c ****     SensorComTx_EncodeMessage(sd,buffer);
 567              		.loc 1 146 0
 568 000a 0C4C     		ldr	r4, .L20
 569 000c 0C4B     		ldr	r3, .L20+4
 570 000e 5893     		str	r3, [sp, #352]
 571 0010 6846     		mov	r0, sp
 572 0012 04F11003 		add	r3, r4, #16
 573 0016 4FF4B072 		mov	r2, #352
 574 001a 1946     		mov	r1, r3
 575 001c FFF7FEFF 		bl	memcpy
 576 0020 94E80F00 		ldmia	r4, {r0, r1, r2, r3}
 577 0024 FFF7FEFF 		bl	SensorComTx_EncodeMessage
 147:src/SensorComTx.c ****     SensorComTx_SendMessage(buffer);
 578              		.loc 1 147 0
 579 0028 0548     		ldr	r0, .L20+4
 580 002a FFF7FEFF 		bl	SensorComTx_SendMessage
 148:src/SensorComTx.c ****     ready = TRUE;
 581              		.loc 1 148 0
 582 002e 054B     		ldr	r3, .L20+8
 583 0030 0122     		movs	r2, #1
 584 0032 1A70     		strb	r2, [r3]
 149:src/SensorComTx.c **** }
 585              		.loc 1 149 0
 586 0034 00BF     		nop
 587 0036 0437     		adds	r7, r7, #4
 588              		.cfi_def_cfa_offset 12
 589 0038 BD46     		mov	sp, r7
 590              		.cfi_def_cfa_register 13
 591              		@ sp needed
 592 003a 90BD     		pop	{r4, r7, pc}
 593              	.L21:
 594              		.align	2
 595              	.L20:
 596 003c 00000000 		.word	sd
 597 0040 00000000 		.word	buffer
 598 0044 38000000 		.word	ready
 599              		.cfi_endproc
 600              	.LFE68:
 601              		.size	SensorDataComISRHandler, .-SensorDataComISRHandler
 602              		.section	.text.SensorComTx_SendMessage,"ax",%progbits
 603              		.align	2
 604              		.global	SensorComTx_SendMessage
 605              		.thumb
 606              		.thumb_func
 607              		.type	SensorComTx_SendMessage, %function
ARM GAS  C:\Users\tpbw4321\AppData\Local\Temp\ccMlJFu6.s 			page 15


 608              	SensorComTx_SendMessage:
 609              	.LFB69:
 150:src/SensorComTx.c **** 
 151:src/SensorComTx.c **** /**
 152:src/SensorComTx.c ****  * @function SensorComTx_SendMessage()
 153:src/SensorComTx.c ****  * @param A string with data that needs to be sent
 154:src/SensorComTx.c ****  * @return None
 155:src/SensorComTx.c ****  * @brief Takes a string and send it over UART
 156:src/SensorComTx.c ****  * @author Barron Wong 04/04/19
 157:src/SensorComTx.c ****  */
 158:src/SensorComTx.c **** void SensorComTx_SendMessage(char* msg){
 610              		.loc 1 158 0
 611              		.cfi_startproc
 612              		@ args = 0, pretend = 0, frame = 8
 613              		@ frame_needed = 1, uses_anonymous_args = 0
 614 0000 80B5     		push	{r7, lr}
 615              		.cfi_def_cfa_offset 8
 616              		.cfi_offset 7, -8
 617              		.cfi_offset 14, -4
 618 0002 82B0     		sub	sp, sp, #8
 619              		.cfi_def_cfa_offset 16
 620 0004 00AF     		add	r7, sp, #0
 621              		.cfi_def_cfa_register 7
 622 0006 7860     		str	r0, [r7, #4]
 159:src/SensorComTx.c ****     SensorComTxUART_PutString(msg);
 623              		.loc 1 159 0
 624 0008 7868     		ldr	r0, [r7, #4]
 625 000a FFF7FEFF 		bl	SensorComTxUART_PutString
 160:src/SensorComTx.c **** }
 626              		.loc 1 160 0
 627 000e 00BF     		nop
 628 0010 0837     		adds	r7, r7, #8
 629              		.cfi_def_cfa_offset 8
 630 0012 BD46     		mov	sp, r7
 631              		.cfi_def_cfa_register 13
 632              		@ sp needed
 633 0014 80BD     		pop	{r7, pc}
 634              		.cfi_endproc
 635              	.LFE69:
 636              		.size	SensorComTx_SendMessage, .-SensorComTx_SendMessage
 637 0016 00BF     		.text
 638              	.Letext0:
 639              		.file 2 "c:\\program files (x86)\\cypress\\psoc creator\\4.2\\psoc creator\\import\\gnu\\arm\\5.4.
 640              		.file 3 "c:\\program files (x86)\\cypress\\psoc creator\\4.2\\psoc creator\\import\\gnu\\arm\\5.4.
 641              		.file 4 ".\\include/sensor_data.h"
 642              		.file 5 ".\\include/Protocol.h"
 643              		.file 6 "Generated_Source\\PSoC5/core_cm3.h"