ARM GAS  C:\Users\tpbw4321\AppData\Local\Temp\ccIBccDh.s 			page 1


   1              		.syntax unified
   2              		.cpu cortex-m3
   3              		.fpu softvfp
   4              		.eabi_attribute 20, 1
   5              		.eabi_attribute 21, 1
   6              		.eabi_attribute 23, 3
   7              		.eabi_attribute 24, 1
   8              		.eabi_attribute 25, 1
   9              		.eabi_attribute 26, 1
  10              		.eabi_attribute 30, 6
  11              		.eabi_attribute 34, 1
  12              		.eabi_attribute 18, 4
  13              		.thumb
  14              		.syntax unified
  15              		.file	"SerialCom.c"
  16              		.text
  17              	.Ltext0:
  18              		.cfi_sections	.debug_frame
  19              		.syntax unified
  20              		.global _printf_float
  21              		.thumb
  22              		.syntax unified
  23              		.global	errorStatus
  24              		.bss
  25              		.type	errorStatus, %object
  26              		.size	errorStatus, 1
  27              	errorStatus:
  28 0000 00       		.space	1
  29              		.section	.text.RxIsr,"ax",%progbits
  30              		.align	2
  31              		.global	RxIsr
  32              		.thumb
  33              		.thumb_func
  34              		.type	RxIsr, %function
  35              	RxIsr:
  36              	.LFB64:
  37              		.file 1 "src\\SerialCom.c"
   1:src/SerialCom.c **** /* ========================================
   2:src/SerialCom.c ****  *
   3:src/SerialCom.c ****  * Copyright YOUR COMPANY, THE YEAR
   4:src/SerialCom.c ****  * All Rights Reserved
   5:src/SerialCom.c ****  * UNPUBLISHED, LICENSED SOFTWARE.
   6:src/SerialCom.c ****  *
   7:src/SerialCom.c ****  * CONFIDENTIAL AND PROPRIETARY INFORMATION
   8:src/SerialCom.c ****  * WHICH IS THE PROPERTY OF your company.
   9:src/SerialCom.c ****  *
  10:src/SerialCom.c ****  * ========================================
  11:src/SerialCom.c **** */
  12:src/SerialCom.c **** #include "SerialCom.h"
  13:src/SerialCom.c **** uint8 errorStatus = 0u;
  14:src/SerialCom.c **** 
  15:src/SerialCom.c **** /*******************************************************************************
  16:src/SerialCom.c **** * Function Name: RxIsr
  17:src/SerialCom.c **** ********************************************************************************
  18:src/SerialCom.c **** *
  19:src/SerialCom.c **** * Summary:
  20:src/SerialCom.c **** *  Interrupt Service Routine for RX portion of the UART
ARM GAS  C:\Users\tpbw4321\AppData\Local\Temp\ccIBccDh.s 			page 2


  21:src/SerialCom.c **** *
  22:src/SerialCom.c **** * Parameters:
  23:src/SerialCom.c **** *  None.
  24:src/SerialCom.c **** *
  25:src/SerialCom.c **** * Return:
  26:src/SerialCom.c **** *  None.
  27:src/SerialCom.c **** *
  28:src/SerialCom.c **** *******************************************************************************/
  29:src/SerialCom.c **** 
  30:src/SerialCom.c **** CY_ISR(RxIsr)
  31:src/SerialCom.c **** {
  38              		.loc 1 31 0
  39              		.cfi_startproc
  40              		@ args = 0, pretend = 0, frame = 8
  41              		@ frame_needed = 1, uses_anonymous_args = 0
  42              		@ link register save eliminated.
  43 0000 80B4     		push	{r7}
  44              		.cfi_def_cfa_offset 4
  45              		.cfi_offset 7, -4
  46 0002 83B0     		sub	sp, sp, #12
  47              		.cfi_def_cfa_offset 16
  48 0004 00AF     		add	r7, sp, #0
  49              		.cfi_def_cfa_register 7
  50              	.L4:
  32:src/SerialCom.c ****     uint8 rxStatus;         
  33:src/SerialCom.c ****     uint8 rxData;           
  34:src/SerialCom.c ****     
  35:src/SerialCom.c ****     do
  36:src/SerialCom.c ****     {
  37:src/SerialCom.c ****         /* Read receiver status register */
  38:src/SerialCom.c ****         rxStatus = UART_RXSTATUS_REG;
  51              		.loc 1 38 0
  52 0006 174B     		ldr	r3, .L5
  53 0008 1B78     		ldrb	r3, [r3]
  54 000a FB71     		strb	r3, [r7, #7]
  39:src/SerialCom.c **** 
  40:src/SerialCom.c ****         if((rxStatus & (UART_RX_STS_BREAK      | UART_RX_STS_PAR_ERROR |
  41:src/SerialCom.c ****                         UART_RX_STS_STOP_ERROR | UART_RX_STS_OVERRUN)) != 0u)
  55              		.loc 1 41 0
  56 000c FB79     		ldrb	r3, [r7, #7]	@ zero_extendqisi2
  57 000e 03F01E03 		and	r3, r3, #30
  40:src/SerialCom.c ****                         UART_RX_STS_STOP_ERROR | UART_RX_STS_OVERRUN)) != 0u)
  58              		.loc 1 40 0
  59 0012 002B     		cmp	r3, #0
  60 0014 0CD0     		beq	.L2
  42:src/SerialCom.c ****         {
  43:src/SerialCom.c ****             /* ERROR handling. */
  44:src/SerialCom.c ****             errorStatus |= rxStatus & ( UART_RX_STS_BREAK      | UART_RX_STS_PAR_ERROR | 
  61              		.loc 1 44 0
  62 0016 97F90730 		ldrsb	r3, [r7, #7]
  63 001a 03F01E03 		and	r3, r3, #30
  64 001e 5AB2     		sxtb	r2, r3
  65 0020 114B     		ldr	r3, .L5+4
  66 0022 1B78     		ldrb	r3, [r3]	@ zero_extendqisi2
  67 0024 5BB2     		sxtb	r3, r3
  68 0026 1343     		orrs	r3, r3, r2
  69 0028 5BB2     		sxtb	r3, r3
ARM GAS  C:\Users\tpbw4321\AppData\Local\Temp\ccIBccDh.s 			page 3


  70 002a DAB2     		uxtb	r2, r3
  71 002c 0E4B     		ldr	r3, .L5+4
  72 002e 1A70     		strb	r2, [r3]
  73              	.L2:
  45:src/SerialCom.c ****                                         UART_RX_STS_STOP_ERROR | UART_RX_STS_OVERRUN);
  46:src/SerialCom.c ****         }
  47:src/SerialCom.c ****         
  48:src/SerialCom.c ****         if((rxStatus & UART_RX_STS_FIFO_NOTEMPTY) != 0u)
  74              		.loc 1 48 0
  75 0030 FB79     		ldrb	r3, [r7, #7]	@ zero_extendqisi2
  76 0032 03F02003 		and	r3, r3, #32
  77 0036 002B     		cmp	r3, #0
  78 0038 09D0     		beq	.L3
  49:src/SerialCom.c ****         {
  50:src/SerialCom.c ****             /* Read data from the RX data register */
  51:src/SerialCom.c ****             rxData = UART_RXDATA_REG;
  79              		.loc 1 51 0
  80 003a 0C4B     		ldr	r3, .L5+8
  81 003c 1B78     		ldrb	r3, [r3]
  82 003e BB71     		strb	r3, [r7, #6]
  52:src/SerialCom.c ****             if(errorStatus == 0u)
  83              		.loc 1 52 0
  84 0040 094B     		ldr	r3, .L5+4
  85 0042 1B78     		ldrb	r3, [r3]	@ zero_extendqisi2
  86 0044 002B     		cmp	r3, #0
  87 0046 02D1     		bne	.L3
  53:src/SerialCom.c ****             {
  54:src/SerialCom.c ****                 /* Send data backward */
  55:src/SerialCom.c ****                 UART_TXDATA_REG = rxData;
  88              		.loc 1 55 0
  89 0048 094A     		ldr	r2, .L5+12
  90 004a BB79     		ldrb	r3, [r7, #6]
  91 004c 1370     		strb	r3, [r2]
  92              	.L3:
  56:src/SerialCom.c ****             }
  57:src/SerialCom.c ****         }
  58:src/SerialCom.c ****     }while((rxStatus & UART_RX_STS_FIFO_NOTEMPTY) != 0u);
  93              		.loc 1 58 0
  94 004e FB79     		ldrb	r3, [r7, #7]	@ zero_extendqisi2
  95 0050 03F02003 		and	r3, r3, #32
  96 0054 002B     		cmp	r3, #0
  97 0056 D6D1     		bne	.L4
  59:src/SerialCom.c **** 
  60:src/SerialCom.c **** }
  98              		.loc 1 60 0
  99 0058 00BF     		nop
 100 005a 0C37     		adds	r7, r7, #12
 101              		.cfi_def_cfa_offset 4
 102 005c BD46     		mov	sp, r7
 103              		.cfi_def_cfa_register 13
 104              		@ sp needed
 105 005e 80BC     		pop	{r7}
 106              		.cfi_restore 7
 107              		.cfi_def_cfa_offset 0
 108 0060 7047     		bx	lr
 109              	.L6:
 110 0062 00BF     		.align	2
ARM GAS  C:\Users\tpbw4321\AppData\Local\Temp\ccIBccDh.s 			page 4


 111              	.L5:
 112 0064 68640040 		.word	1073767528
 113 0068 00000000 		.word	errorStatus
 114 006c 4B650040 		.word	1073767755
 115 0070 4C640040 		.word	1073767500
 116              		.cfi_endproc
 117              	.LFE64:
 118              		.size	RxIsr, .-RxIsr
 119              		.section	.text.SerialCom_Init,"ax",%progbits
 120              		.align	2
 121              		.global	SerialCom_Init
 122              		.thumb
 123              		.thumb_func
 124              		.type	SerialCom_Init, %function
 125              	SerialCom_Init:
 126              	.LFB65:
  61:src/SerialCom.c **** /**
  62:src/SerialCom.c ****  * @function SerialCom_Init(void)
  63:src/SerialCom.c ****  * @param None
  64:src/SerialCom.c ****  * @return None
  65:src/SerialCom.c ****  * @brief Initializes hardware components necessary Serial Communication
  66:src/SerialCom.c ****  *        through UART and KitProg
  67:src/SerialCom.c ****  * @author Barron Wong 01/26/19
  68:src/SerialCom.c **** */
  69:src/SerialCom.c **** void SerialCom_Init(){
 127              		.loc 1 69 0
 128              		.cfi_startproc
 129              		@ args = 0, pretend = 0, frame = 0
 130              		@ frame_needed = 1, uses_anonymous_args = 0
 131 0000 80B5     		push	{r7, lr}
 132              		.cfi_def_cfa_offset 8
 133              		.cfi_offset 7, -8
 134              		.cfi_offset 14, -4
 135 0002 00AF     		add	r7, sp, #0
 136              		.cfi_def_cfa_register 7
  70:src/SerialCom.c ****     UART_Start();
 137              		.loc 1 70 0
 138 0004 FFF7FEFF 		bl	UART_Start
  71:src/SerialCom.c ****     isr_rx_StartEx(RxIsr);
 139              		.loc 1 71 0
 140 0008 0248     		ldr	r0, .L8
 141 000a FFF7FEFF 		bl	isr_rx_StartEx
  72:src/SerialCom.c **** }
 142              		.loc 1 72 0
 143 000e 00BF     		nop
 144 0010 80BD     		pop	{r7, pc}
 145              	.L9:
 146 0012 00BF     		.align	2
 147              	.L8:
 148 0014 00000000 		.word	RxIsr
 149              		.cfi_endproc
 150              	.LFE65:
 151              		.size	SerialCom_Init, .-SerialCom_Init
 152              		.section	.text._write,"ax",%progbits
 153              		.align	2
 154              		.global	_write
 155              		.thumb
ARM GAS  C:\Users\tpbw4321\AppData\Local\Temp\ccIBccDh.s 			page 5


 156              		.thumb_func
 157              		.type	_write, %function
 158              	_write:
 159              	.LFB66:
  73:src/SerialCom.c **** 
  74:src/SerialCom.c **** /**
  75:src/SerialCom.c ****  * @function _write(void)
  76:src/SerialCom.c ****  * @param None
  77:src/SerialCom.c ****  * @return None
  78:src/SerialCom.c ****  * @brief Overriding _write function for printf redirection to UART
  79:src/SerialCom.c ****  * @author Barron Wong 01/26/19
  80:src/SerialCom.c **** */
  81:src/SerialCom.c **** /* For GCC compiler revise _write() function for printf functionality */
  82:src/SerialCom.c **** int _write(int file, char *ptr, int len)
  83:src/SerialCom.c ****     {
 160              		.loc 1 83 0
 161              		.cfi_startproc
 162              		@ args = 0, pretend = 0, frame = 24
 163              		@ frame_needed = 1, uses_anonymous_args = 0
 164 0000 80B5     		push	{r7, lr}
 165              		.cfi_def_cfa_offset 8
 166              		.cfi_offset 7, -8
 167              		.cfi_offset 14, -4
 168 0002 86B0     		sub	sp, sp, #24
 169              		.cfi_def_cfa_offset 32
 170 0004 00AF     		add	r7, sp, #0
 171              		.cfi_def_cfa_register 7
 172 0006 F860     		str	r0, [r7, #12]
 173 0008 B960     		str	r1, [r7, #8]
 174 000a 7A60     		str	r2, [r7, #4]
  84:src/SerialCom.c ****         int i;
  85:src/SerialCom.c ****         file = file;
  86:src/SerialCom.c ****         for (i = 0; i < len; i++)
 175              		.loc 1 86 0
 176 000c 0023     		movs	r3, #0
 177 000e 7B61     		str	r3, [r7, #20]
 178 0010 09E0     		b	.L11
 179              	.L12:
  87:src/SerialCom.c ****         {
  88:src/SerialCom.c ****             UART_PutChar(*ptr++);
 180              		.loc 1 88 0 discriminator 3
 181 0012 BB68     		ldr	r3, [r7, #8]
 182 0014 5A1C     		adds	r2, r3, #1
 183 0016 BA60     		str	r2, [r7, #8]
 184 0018 1B78     		ldrb	r3, [r3]	@ zero_extendqisi2
 185 001a 1846     		mov	r0, r3
 186 001c FFF7FEFF 		bl	UART_PutChar
  86:src/SerialCom.c ****         {
 187              		.loc 1 86 0 discriminator 3
 188 0020 7B69     		ldr	r3, [r7, #20]
 189 0022 0133     		adds	r3, r3, #1
 190 0024 7B61     		str	r3, [r7, #20]
 191              	.L11:
  86:src/SerialCom.c ****         {
 192              		.loc 1 86 0 is_stmt 0 discriminator 1
 193 0026 7A69     		ldr	r2, [r7, #20]
 194 0028 7B68     		ldr	r3, [r7, #4]
ARM GAS  C:\Users\tpbw4321\AppData\Local\Temp\ccIBccDh.s 			page 6


 195 002a 9A42     		cmp	r2, r3
 196 002c F1DB     		blt	.L12
  89:src/SerialCom.c ****         }
  90:src/SerialCom.c ****         return (len);
 197              		.loc 1 90 0 is_stmt 1
 198 002e 7B68     		ldr	r3, [r7, #4]
  91:src/SerialCom.c ****     }
 199              		.loc 1 91 0
 200 0030 1846     		mov	r0, r3
 201 0032 1837     		adds	r7, r7, #24
 202              		.cfi_def_cfa_offset 8
 203 0034 BD46     		mov	sp, r7
 204              		.cfi_def_cfa_register 13
 205              		@ sp needed
 206 0036 80BD     		pop	{r7, pc}
 207              		.cfi_endproc
 208              	.LFE66:
 209              		.size	_write, .-_write
 210              		.text
 211              	.Letext0:
 212              		.file 2 "c:\\program files (x86)\\cypress\\psoc creator\\4.2\\psoc creator\\import\\gnu\\arm\\5.4.
 213              		.file 3 "c:\\program files (x86)\\cypress\\psoc creator\\4.2\\psoc creator\\import\\gnu\\arm\\5.4.
 214              		.file 4 "Generated_Source\\PSoC5/cytypes.h"
 215              		.file 5 "Generated_Source\\PSoC5/core_cm3.h"